 SPGamex86

 Timestamp is 56ecfb79 (Sat Mar 19 03:10:49 2016)

 Preferred load address is 20000000

 Start         Length     Name                   Class
 0001:00000000 003063d0H .text                   CODE
 0001:003063d0 0000d7b9H .text$x                 CODE
 0001:00313b90 0000d705H .text$yc                CODE
 0001:003212a0 00002debH .text$yd                CODE
 0002:00000000 0000012cH .idata$5                DATA
 0002:0000012c 00000004H .CRT$XCA                DATA
 0002:00000130 0000107cH .CRT$XCU                DATA
 0002:000011ac 00000004H .CRT$XCZ                DATA
 0002:000011b0 00000004H .CRT$XIA                DATA
 0002:000011b4 00000014H .CRT$XIC                DATA
 0002:000011c8 00000004H .CRT$XIZ                DATA
 0002:000011cc 00000004H .CRT$XPA                DATA
 0002:000011d0 00000004H .CRT$XPX                DATA
 0002:000011d4 00000004H .CRT$XPXA               DATA
 0002:000011d8 00000004H .CRT$XPZ                DATA
 0002:000011dc 00000004H .CRT$XTA                DATA
 0002:000011e0 00000004H .CRT$XTZ                DATA
 0002:000011f0 000519a8H .rdata                  DATA
 0002:00052b98 00000044H .rdata$debug            DATA
 0002:00052bdc 00007170H .rdata$r                DATA
 0002:00059d50 00001770H .rdata$sxdata           DATA
 0002:0005b4c0 00000004H .rtc$IAA                DATA
 0002:0005b4c4 00000004H .rtc$IZZ                DATA
 0002:0005b4c8 00000004H .rtc$TAA                DATA
 0002:0005b4cc 00000004H .rtc$TZZ                DATA
 0002:0005b4d0 00017da4H .xdata$x                DATA
 0002:00073274 00000028H .idata$2                DATA
 0002:0007329c 00000014H .idata$3                DATA
 0002:000732b0 0000012cH .idata$4                DATA
 0002:000733dc 00000556H .idata$6                DATA
 0002:00073940 0000004bH .edata                  DATA
 0003:00000000 0000e0b0H .data                   DATA
 0003:0000e0c0 006cfd44H .bss                    DATA

  Address         Publics by Value              Rva+Base       Lib:Object

 0000:00000000       __except_list              00000000     <absolute>
 0000:000005dc       ___safe_se_handler_count   000005dc     <absolute>
 0000:00000000       ___ImageBase               20000000     <linker-defined>
 0001:00000000       ??0idAnimState@@QAE@XZ     20001000 f   Actor.obj
 0001:00000030       ??1idAnimState@@QAE@XZ     20001030 f   Actor.obj
 0001:00000040       ?Save@idAnimState@@QBEXPAVidSaveGame@@@Z 20001040 f   Actor.obj
 0001:000000b0       ?Restore@idAnimState@@QAEXPAVidRestoreGame@@@Z 200010b0 f   Actor.obj
 0001:00000130       ?Shutdown@idAnimState@@QAEXXZ 20001130 f   Actor.obj
 0001:00000140       ?PostState@idAnimState@@QAEXPBDHHH@Z 20001140 f   Actor.obj
 0001:00000190       ?SetState@idAnimState@@QAEXPBDHH@Z 20001190 f   Actor.obj
 0001:000001f0       ?BecomeIdle@idAnimState@@QAEXXZ 200011f0 f   Actor.obj
 0001:00000200       ?Disabled@idAnimState@@QBE_NXZ 20001200 f   Actor.obj
 0001:00000210       ?IsIdle@idAnimState@@QBE_NXZ 20001210 f   Actor.obj
 0001:00000230       ?Enable@idAnimState@@QAEXH@Z 20001230 f   Actor.obj
 0001:00000250       ?Disable@idAnimState@@QAEXXZ 20001250 f   Actor.obj
 0001:00000260       ?UpdateState@idAnimState@@QAE_NXZ 20001260 f   Actor.obj
 0001:00000280       ?GetClassType@idActor@@SAAAVidTypeInfo@@XZ 20001280 f   Actor.obj
 0001:00000290       ?GetType@idActor@@UBEPAVidTypeInfo@@XZ 20001290 f   Actor.obj
 0001:000002a0       ?GetDefaultSurfaceType@idActor@@UBEHXZ 200012a0 f   Actor.obj
 0001:000002b0       ?ShutdownThreads@idActor@@QAEXXZ 200012b0 f   Actor.obj
 0001:000002e0       ?OnStateThreadClear@idActor@@UAEXPBDH@Z 200012e0 f   Actor.obj
 0001:000002f0       ?SetState@idActor@@QAEXPBDH@Z 200012f0 f   Actor.obj
 0001:00000330       ?PostState@idActor@@QAEXPBDHH@Z 20001330 f   Actor.obj
 0001:00000380       ?InterruptState@idActor@@QAEXPBDHH@Z 20001380 f   Actor.obj
 0001:000003d0       ?UpdateState@idActor@@QAEXXZ 200013d0 f   Actor.obj
 0001:000003e0       ?SetFOV@idActor@@QAEXMM@Z  200013e0 f   Actor.obj
 0001:00000440       ?EyeHeight@idActor@@QBEMXZ 20001440 f   Actor.obj
 0001:00000450       ?Event_Teleport@idActor@@AAEXAAVidVec3@@0@Z 20001450 f   Actor.obj
 0001:00000490       ?HasFOV@idActor@@UAE_NPAVidEntity@@@Z 20001490 f   Actor.obj
 0001:000004a0       ?CanSee@idActor@@UBE_NPBVidEntity@@_N@Z 200014a0 f   Actor.obj
 0001:000004e0       ?GetCombatModel@idActor@@QBEPAVidClipModel@@XZ 200014e0 f   Actor.obj
 0001:000004f0       ?GetDeltaViewAngles@idActor@@QBEABVidAngles@@XZ 200014f0 f   Actor.obj
 0001:00000500       ?OnLadder@idActor@@UBE_NXZ 20001500 f   Actor.obj
 0001:00000510       ?OnStateChange@idActor@@UAEXH@Z 20001510 f   Actor.obj
 0001:00000530       ?OnFriendlyFire@idActor@@UAEXPAV1@@Z 20001530 f   Actor.obj
 0001:00000540       ?UpdateAnimState@idActor@@QAEXXZ 20001540 f   Actor.obj
 0001:00000570       ?ClearPain@idActor@@QAEXXZ 20001570 f   Actor.obj
 0001:00000580       ?Event_EnableEyeFocus@idActor@@AAEXXZ 20001580 f   Actor.obj
 0001:000005f0       ?Event_EnableBlink@idActor@@AAEXXZ 200015f0 f   Actor.obj
 0001:00000650       ?Event_DisableBlink@idActor@@AAEXXZ 20001650 f   Actor.obj
 0001:00000660       ?Event_Footstep@idActor@@AAEXXZ 20001660 f   Actor.obj
 0001:00000670       ?Event_EnableWalkIK@idActor@@AAEXXZ 20001670 f   Actor.obj
 0001:00000680       ?Event_DisableWalkIK@idActor@@AAEXXZ 20001680 f   Actor.obj
 0001:00000690       ?Event_EnableLegIK@idActor@@AAEXH@Z 20001690 f   Actor.obj
 0001:000006a0       ?Event_DisableLegIK@idActor@@AAEXH@Z 200016a0 f   Actor.obj
 0001:000006b0       ?Event_PreventPain@idActor@@AAEXM@Z 200016b0 f   Actor.obj
 0001:000006e0       ?Event_DisablePain@idActor@@AAEXXZ 200016e0 f   Actor.obj
 0001:000006f0       ?Event_EnablePain@idActor@@AAEXXZ 200016f0 f   Actor.obj
 0001:00000700       ?Event_SetAnimPrefix@idActor@@AAEXPBD@Z 20001700 f   Actor.obj
 0001:00000710       ?Event_EnableAnim@idActor@@AAEXHH@Z 20001710 f   Actor.obj
 0001:00000770       ?Event_SetBlendFrames@idActor@@AAEXHH@Z 20001770 f   Actor.obj
 0001:000007d0       ?Event_GetBlendFrames@idActor@@AAEXH@Z 200017d0 f   Actor.obj
 0001:00000830       ?State_Wait_Frame@idActor@@IAE?AW4stateResult_t@@ABUstateParms_t@@@Z 20001830 f   Actor.obj
 0001:00000840       ?GetAnimState@idActor@@IAEAAVidAnimState@@H@Z 20001840 f   Actor.obj
 0001:00000890       ?EnableAnimState@idActor@@IAEXH@Z 20001890 f   Actor.obj
 0001:000008b0       ?Init@idAnimState@@QAEXPAVidEntity@@PAVidAnimator@@H@Z 200018b0 f   Actor.obj
 0001:00000900       ?StopAnim@idAnimState@@QAEXH@Z 20001900 f   Actor.obj
 0001:00000940       ?PlayAnim@idAnimState@@QAEXH@Z 20001940 f   Actor.obj
 0001:00000990       ?CycleAnim@idAnimState@@QAEXH@Z 20001990 f   Actor.obj
 0001:000009e0       ?AnimDone@idAnimState@@QBE_NH@Z 200019e0 f   Actor.obj
 0001:00000a30       ?GetAnimFlags@idAnimState@@QBE?AUanimFlags_t@@XZ 20001a30 f   Actor.obj
 0001:00000a80       ?Save@idActor@@QBEXPAVidSaveGame@@@Z 20001a80 f   Actor.obj
 0001:00000e50       ?Hide@idActor@@UAEXXZ      20001e50 f   Actor.obj
 0001:00000f10       ?Show@idActor@@UAEXXZ      20001f10 f   Actor.obj
 0001:00000fd0       ?ProjectOverlay@idActor@@UAEXABVidVec3@@0MPBD@Z 20001fd0 f   Actor.obj
 0001:00001080       ?SetEyeHeight@idActor@@QAEXM@Z 20002080 f   Actor.obj
 0001:000010e0       ?SetChestHeight@idActor@@QAEXM@Z 200020e0 f   Actor.obj
 0001:00001140       ?GetEyePosition@idActor@@UBE?AVidVec3@@XZ 20002140 f   Actor.obj
 0001:00001200       ?GetChestPosition@idActor@@UBE?AVidVec3@@XZ 20002200 f   Actor.obj
 0001:000012c0       ?GetGroundEntity@idActor@@QBEPAVidEntity@@XZ 200022c0 f   Actor.obj
 0001:000012d0       ?FlashlightUpdate@idActor@@IAEX_N@Z 200022d0 f   Actor.obj
 0001:00001490       ?GetViewPos@idActor@@UBEXAAVidVec3@@AAVidMat3@@@Z 20002490 f   Actor.obj
 0001:00001520       ?CheckFOV@idActor@@QBE_NABVidVec3@@M@Z 20002520 f   Actor.obj
 0001:00001750       ?GetRenderView@idActor@@UAEPAUrenderView_s@@XZ 20002750 f   Actor.obj
 0001:000017e0       ?SetCombatModel@idActor@@QAEXXZ 200027e0 f   Actor.obj
 0001:000018c0       ?LinkCombat@idActor@@UAEXXZ 200028c0 f   Actor.obj
 0001:00001930       ?UnlinkCombat@idActor@@UAEXXZ 20002930 f   Actor.obj
 0001:00001980       ?StopRagdoll@idActor@@QAEXXZ 20002980 f   Actor.obj
 0001:000019a0       ?RemoveAttachments@idActor@@IAEXXZ 200029a0 f   Actor.obj
 0001:00001a20       ?FindAttachment@idActor@@QAEPAVidEntity@@PBD@Z 20002a20 f   Actor.obj
 0001:00001ac0       ?HideAttachment@idActor@@QAEXPBD@Z 20002ac0 f   Actor.obj
 0001:00001ae0       ?ShowAttachment@idActor@@QAEXPBD@Z 20002ae0 f   Actor.obj
 0001:00001b00       ?Teleport@idActor@@UAEXABVidVec3@@ABVidAngles@@PAVidEntity@@@Z 20002b00 f   Actor.obj
 0001:00001be0       ?SetDeltaViewAngles@idActor@@QAEXABVidAngles@@@Z 20002be0 f   Actor.obj
 0001:00001c10       ?HasEnemies@idActor@@QBE_NXZ 20002c10 f   Actor.obj
 0001:00001c60       ?ClosestEnemyToPoint@idActor@@QAEPAV1@ABVidVec3@@M_N1@Z 20002c60 f   Actor.obj
 0001:00001de0       ?EnemyWithMostHealth@idActor@@QAEPAV1@XZ 20002de0 f   Actor.obj
 0001:00001e40       ?GetAASLocation@idActor@@UBEXPAVidAAS@@AAVidVec3@@AAH@Z 20002e40 f   Actor.obj
 0001:00001f00       ?StopAnimState@idActor@@QAEXH@Z 20002f00 f   Actor.obj
 0001:00001f20       ?PostAnimState@idActor@@QAEXHPBDHHH@Z 20002f20 f   Actor.obj
 0001:00001f50       ?SetAnimState@idActor@@QAEXHPBDHH@Z 20002f50 f   Actor.obj
 0001:00001fd0       ?GetAnim@idActor@@QAEHHPBD_N@Z 20002fd0 f   Actor.obj
 0001:000020b0       ?SyncAnimChannels@idActor@@AAEXHHH@Z 200030b0 f   Actor.obj
 0001:00002300       ?Gib@idActor@@MAEXABVidVec3@@PBD@Z 20003300 f   Actor.obj
 0001:000023f0       ?CheckDeathObjectives@idActor@@IAEXXZ 200033f0 f   Actor.obj
 0001:00002620       ?InitDeathPush@idActor@@IAEXABVidVec3@@HPBVidDict@@M@Z 20003620 f   Actor.obj
 0001:00002860       ?DeathPush@idActor@@IAEXXZ 20003860 f   Actor.obj
 0001:000029b0       ?SkipImpulse@idActor@@UAE_NPAVidEntity@@H@Z 200039b0 f   Actor.obj
 0001:00002a30       ?AddDamageEffect@idActor@@UAEXABUtrace_t@@ABVidVec3@@PBDPAVidEntity@@@Z 20003a30 f   Actor.obj
 0001:00002a90       ?SpawnGibs@idActor@@UAEXABVidVec3@@PBD@Z 20003a90 f   Actor.obj
 0001:00002ac0       ?GetDamageForLocation@idActor@@UAEHHH@Z 20003ac0 f   Actor.obj
 0001:00002b10       ?GetDamageGroup@idActor@@QAEPBDH@Z 20003b10 f   Actor.obj
 0001:00002b40       ?FootStep@idActor@@MAEXXZ  20003b40 f   Actor.obj
 0001:00002bf0       ?Event_DisableEyeFocus@idActor@@AAEXXZ 20003bf0 f   Actor.obj
 0001:00002c50       ?Event_StopAnim@idActor@@AAEXHH@Z 20003c50 f   Actor.obj
 0001:00002cb0       ?DebugFilter@idActor@@QBE_NABVidCVar@@@Z 20003cb0 f   Actor.obj
 0001:00002d00       ?Event_IdleAnim@idActor@@AAEXHPBD@Z 20003d00 f   Actor.obj
 0001:00003080       ?Event_SetSyncedAnimWeight@idActor@@AAEXHHM@Z 20004080 f   Actor.obj
 0001:00003230       ?Event_OverrideAnim@idActor@@AAEXH@Z 20004230 f   Actor.obj
 0001:00003310       ?Event_HasEnemies@idActor@@AAEXXZ 20004310 f   Actor.obj
 0001:00003320       ?Event_ClosestEnemyToPoint@idActor@@AAEXABVidVec3@@@Z 20004320 f   Actor.obj
 0001:00003350       ?Event_StopSound@idActor@@AAEXHH@Z 20004350 f   Actor.obj
 0001:000033b0       ?Event_GetHead@idActor@@AAEXXZ 200043b0 f   Actor.obj
 0001:000033f0       ?Event_SetAnimRate@idActor@@AAEXM@Z 200043f0 f   Actor.obj
 0001:00003400       ?PlayAnim@idActor@@QAEHHPBDH@Z 20004400 f   Actor.obj
 0001:000036d0       ?PlayCycle@idActor@@QAE_NHPBDH@Z 200046d0 f   Actor.obj
 0001:00003930       ?IdleAnim@idActor@@QAEXHPBDH@Z 20004930 f   Actor.obj
 0001:00003960       ?OverrideAnim@idActor@@QAEXH@Z 20004960 f   Actor.obj
 0001:00003970       ?DisableAnimState@idActor@@IAEXH@Z 20004970 f   Actor.obj
 0001:00003980       ?HasAnim@idActor@@QAE_NHPBD_N@Z 20004980 f   Actor.obj
 0001:000039a0       ?AnimDone@idActor@@QAE_NHH@Z 200049a0 f   Actor.obj
 0001:000039c0       ?Event_DamageOverTime@idActor@@AAEXHHPAVidEntity@@0AAVidVec3@@PBDMH@Z 200049c0 f   Actor.obj
 0001:00003ad0       ?Event_DamageOverTimeEffect@idActor@@EAEXHHPBD@Z 20004ad0 f   Actor.obj
 0001:00003be0       ?Event_JointCrawlEffect@idActor@@AAEXPBDM@Z 20004be0 f   Actor.obj
 0001:00003ce0       ?LoadAF@idActor@@UAE_NPBD_N@Z 20004ce0 f   Actor.obj
 0001:00003df0       ?SetupBody@idActor@@QAEXXZ 20004df0 f   Actor.obj
 0001:00004050       ?CheckBlink@idActor@@UAEXXZ 20005050 f   Actor.obj
 0001:00004160       ?GetPhysicsToVisualTransform@idActor@@UAE_NAAVidVec3@@AAVidMat3@@@Z 20005160 f   Actor.obj
 0001:00004240       ?GetPhysicsToSoundTransform@idActor@@UAE_NAAVidVec3@@AAVidMat3@@@Z 20005240 f   Actor.obj
 0001:000043a0       ?Present@idActor@@UAEXXZ   200053a0 f   Actor.obj
 0001:000043c0       ?Event_EnterVehicle@idActor@@AAEXPAVidEntity@@@Z 200053c0 f   Actor.obj
 0001:000043f0       ?Event_ExitVehicle@idActor@@AAEX_N@Z 200053f0 f   Actor.obj
 0001:00004420       ?Event_PreExitVehicle@idActor@@AAEX_N@Z 20005420 f   Actor.obj
 0001:000044f0       ?Event_Flashlight@idActor@@AAEX_N@Z 200054f0 f   Actor.obj
 0001:000045a0       ?CanSeeFrom@idActor@@UBE_NABVidVec3@@PBVidEntity@@_N@Z 200055a0 f   Actor.obj
 0001:00004680       ?UpdateAnimationControllers@idActor@@UAE_NXZ 20005680 f   Actor.obj
 0001:00004a50       ?Damage@idActor@@UAEXPAVidEntity@@0ABVidVec3@@PBDMH@Z 20005a50 f   Actor.obj
 0001:000051f0       ?Pain@idActor@@UAE_NPAVidEntity@@0HABVidVec3@@H@Z 200061f0 f   Actor.obj
 0001:000055e0       ?ExitVehicle@idActor@@MAE_N_N@Z 200065e0 f   Actor.obj
 0001:00005790       ?EnterVehicle@idActor@@MAE_NPAVidEntity@@@Z 20006790 f   Actor.obj
 0001:00005800       ?Event_PlayAnim@idActor@@AAEXHPBD@Z 20006800 f   Actor.obj
 0001:00005840       ?Event_PlayCycle@idActor@@AAEXHPBD@Z 20006840 f   Actor.obj
 0001:00005860       ?Event_NextEnemy@idActor@@AAEXPAVidEntity@@@Z 20006860 f   Actor.obj
 0001:00005930       ?State_Wait_LegsAnim@idActor@@IAE?AW4stateResult_t@@ABUstateParms_t@@@Z 20006930 f   Actor.obj
 0001:00005950       ?State_Wait_TorsoAnim@idActor@@IAE?AW4stateResult_t@@ABUstateParms_t@@@Z 20006950 f   Actor.obj
 0001:00005970       ?GetDebugInfo@idActor@@MAEXP6AXPBD00PAX@Z1@Z 20006970 f   Actor.obj
 0001:00005be0       ?GetGroundElevator@idActor@@UBEPAVidEntity@@PAV2@@Z 20006be0 f   Actor.obj
 0001:00005da0       ?GuidedProjectileIncoming@idActor@@UAEXPAVidGuidedProjectile@@@Z 20006da0 f   Actor.obj
 0001:00005df0       ??1idActor@@UAE@XZ         20006df0 f   Actor.obj
 0001:000060f0       ?FinishSetup@idActor@@AAEXXZ 200070f0 f   Actor.obj
 0001:00006130       ?SetupHead@idActor@@MAEXPBDVidVec3@@@Z 20007130 f   Actor.obj
 0001:000068d0       ?Restart@idActor@@UAEXXZ   200078d0 f   Actor.obj
 0001:00006920       ?CanSeeFrom@idActor@@UBE_NABVidVec3@@0_N@Z 20007920 f   Actor.obj
 0001:00006990       ?StartRagdoll@idActor@@QAE_NXZ 20007990 f   Actor.obj
 0001:00007000       ?SetupDamageGroups@idActor@@QAEXXZ 20008000 f   Actor.obj
 0001:000075c0       ??0idActor@@QAE@XZ         200085c0 f   Actor.obj
 0001:00007a30       ?Restore@idActor@@QAEXPAVidRestoreGame@@@Z 20008a30 f   Actor.obj
 0001:00008550       ?Attach@idActor@@QAEXPAVidEntity@@@Z 20009550 f   Actor.obj
 0001:00008b50       ?CreateInstance@idActor@@SAPAVidClass@@XZ 20009b50 f   Actor.obj
 0001:00008bf0       ?Spawn@idActor@@QAEXXZ     20009bf0 f   Actor.obj
 0001:000095d0       ?RegisterClassA@idActor@@SAXXZ 2000a5d0 f   Actor.obj
 0001:00009660       ?Register_idActor@@YAXXZ   2000a660 f   Actor.obj
 0001:00009670       ?ceil@@YAMM@Z              2000a670 f i Actor.obj
 0001:00009690       ??0idVec3@@QAE@XZ          2000a690 f i Actor.obj
 0001:00009690       ??0idVec2@@QAE@XZ          2000a690 f i Actor.obj
 0001:000096a0       ??_H@YGXPAXIHP6EPAX0@Z@Z   2000a6a0 f i Actor.obj
 0001:000096d0       ??0?$idLinkList@VrvSplineMover@@@@QAE@XZ 2000a6d0 f i SplineMover.obj
 0001:000096d0       ??0?$idLinkList@VidEvent@@@@QAE@XZ 2000a6d0 f i Event.obj
 0001:000096d0       ??0?$idLinkList@UannouncerSoundNode_s@idMultiplayerGame@@@@QAE@XZ 2000a6d0 f i MultiplayerGame.obj
 0001:000096d0       ??0?$idLinkList@VrvClientEntity@@@@QAE@XZ 2000a6d0 f i Entity.obj
 0001:000096d0       ??0?$idLinkList@VidEntity@@@@QAE@XZ 2000a6d0 f i Entity.obj
 0001:000096d0       ??0?$idLinkList@VidAI@@@@QAE@XZ 2000a6d0 f i AI.obj
 0001:000096d0       ??0?$idLinkList@UstateCall_t@@@@QAE@XZ 2000a6d0 f i State.obj
 0001:000096d0       ??0?$idLinkList@VrvAIHelper@@@@QAE@XZ 2000a6d0 f i AI_Manager.obj
 0001:000096d0       ??0?$idLinkList@VidMsgQueue@@@@QAE@XZ 2000a6d0 f i idLib:BitMsg.obj
 0001:000096d0       ??0?$idLinkList@VidActor@@@@QAE@XZ 2000a6d0 f i Actor.obj
 0001:000096f0       ??_9idActor@@$BBNI@AE      2000a6f0 f i Actor.obj
 0001:00009700       ??4idMat3@@QAEAAV0@ABV0@@Z 2000a700 f i Actor.obj
 0001:00009740       ??1idHashIndex@@QAE@XZ     2000a740 f i Actor.obj
 0001:00009750       ??2@YAPAXI@Z               2000a750 f i Actor.obj
 0001:00009750       ?Allocate@Memory@@SAPAXI@Z 2000a750 f i Actor.obj
 0001:00009780       ??3@YAXPAX@Z               2000a780 f i Actor.obj
 0001:00009780       ?Free@Memory@@SAXPAX@Z     2000a780 f i Actor.obj
 0001:00009780       ??_V@YAXPAX@Z              2000a780 f i Actor.obj
 0001:000097b0       ?IsLoaded@idAF@@QBE_NXZ    2000a7b0 f i Actor.obj
 0001:000097d0       ??_EidStr@@QAEPAXI@Z       2000a7d0 f i Actor.obj
 0001:00009870       ??4?$idEntityPtr@VidEntity@@@@QAEAAV0@AAV0@@Z 2000a870 f i Actor.obj
 0001:000098c0       ?IsType@idClass@@QBE_NPBVidTypeInfo@@@Z 2000a8c0 f i Actor.obj
 0001:000098f0       ??0idDict@@QAE@XZ          2000a8f0 f i Actor.obj
 0001:00009a60       ??1idDict@@QAE@XZ          2000aa60 f i Actor.obj
 0001:00009af0       ??1?$idList@VidStr@@@@QAE@XZ 2000aaf0 f i Actor.obj
 0001:00009b50       ?Collide@idEntity@@UAE_NABUtrace_t@@ABVidVec3@@AA_N@Z 2000ab50 f i Actor.obj
 0001:00009b70       ?GetLastBlocker@idEntity@@UAEHXZ 2000ab70 f i Actor.obj
 0001:00009b80       ?GetRefSoundShaderFlags@idEntity@@UBEHXZ 2000ab80 f i Actor.obj
 0001:00009b90       ?SetRefSoundShaderFlags@idEntity@@UAEXH@Z 2000ab90 f i Actor.obj
 0001:00009ba0       ?ProjectHeadOverlay@idAnimatedEntity@@UAEXABVidVec3@@0MPBD@Z 2000aba0 f i Actor.obj
 0001:00009bb0       ?GetAnimator@idAnimatedEntity@@UBEPBVidAnimator@@XZ 2000abb0 f i Actor.obj
 0001:00009bc0       ?GetInstance@idEntity@@UBEHXZ 2000abc0 f i Actor.obj
 0001:00009bd0       ?SetClipWorld@idEntity@@UAEXH@Z 2000abd0 f i Actor.obj
 0001:00009c10       ?AdjustHealthByDamage@idActor@@UAEXH@Z 2000ac10 f i Actor.obj
 0001:00009c20       ??_GrvModviewModel@@UAEPAXI@Z 2000ac20 f i GameEdit.obj
 0001:00009c20       ??_EidActor@@UAEPAXI@Z     2000ac20 f i Actor.obj
 0001:00009c20       ??_GidActor@@UAEPAXI@Z     2000ac20 f i Actor.obj
 0001:00009c20       ??_ErvModviewModel@@UAEPAXI@Z 2000ac20 f i GameEdit.obj
 0001:00009c50       ?Stop@idAF@@QAEXXZ         2000ac50 f   AF.obj
 0001:00009c70       ?Rest@idAF@@QAEXXZ         2000ac70 f   AF.obj
 0001:00009c80       ?Save@idAF@@QBEXPAVidSaveGame@@@Z 2000ac80 f   AF.obj
 0001:00009d20       ?SetupPose@idAF@@QAEXPAVidEntity@@H@Z 2000ad20 f   AF.obj
 0001:0000a120       ?ChangePose@idAF@@QAEXPAVidEntity@@H@Z 2000b120 f   AF.obj
 0001:0000a5f0       ?EntitiesTouchingAF@idAF@@QBEHQAUafTouch_s@@@Z 2000b5f0 f   AF.obj
 0001:0000a7d0       ?BodyForClipModelId@idAF@@QBEHH@Z 2000b7d0 f   AF.obj
 0001:0000a800       ?GetPhysicsToVisualTransform@idAF@@QBEXAAVidVec3@@AAVidMat3@@@Z 2000b800 f   AF.obj
 0001:0000a8d0       ?GetImpactInfo@idAF@@QAEXPAVidEntity@@HABVidVec3@@PAUimpactInfo_s@@@Z 2000b8d0 f   AF.obj
 0001:0000a910       ?ApplyImpulse@idAF@@QAEXPAVidEntity@@HABVidVec3@@1@Z 2000b910 f   AF.obj
 0001:0000a950       ?AddForce@idAF@@QAEXPAVidEntity@@HABVidVec3@@1@Z 2000b950 f   AF.obj
 0001:0000a990       ?LoadConstraint@idAF@@IAE_NPBVidDeclAF_Constraint@@@Z 2000b990 f   AF.obj
 0001:0000b2c0       ?Start@idAF@@QAEXXZ        2000c2c0 f   AF.obj
 0001:0000b320       ?SetConstraintPosition@idAF@@QAEXPBDABVidVec3@@@Z 2000c320 f   AF.obj
 0001:0000b480       ?GetBounds@idAF@@QBE?AVidBounds@@XZ 2000c480 f   AF.obj
 0001:0000b9e0       ?SaveState@idAF@@QBEXAAVidDict@@@Z 2000c9e0 f   AF.obj
 0001:0000bbd0       ?LoadState@idAF@@QAEXABVidDict@@@Z 2000cbd0 f   AF.obj
 0001:0000bd80       ?AddBindConstraints@idAF@@QAEXXZ 2000cd80 f   AF.obj
 0001:0000c9a0       ?RemoveBindConstraints@idAF@@QAEXXZ 2000d9a0 f   AF.obj
 0001:0000cac0       ??0idAF@@QAE@XZ            2000dac0 f   AF.obj
 0001:0000cc00       ??1idAF@@QAE@XZ            2000dc00 f   AF.obj
 0001:0000cce0       ?UpdateAnimation@idAF@@QAE_NXZ 2000dce0 f   AF.obj
 0001:0000d590       ?TestSolid@idAF@@QBE_NXZ   2000e590 f   AF.obj
 0001:0000d780       ?StartFromCurrentPose@idAF@@QAEXH@Z 2000e780 f   AF.obj
 0001:0000d830       ?AddBody@idAF@@IAEXPAVidAFBody@@PBVidJointMat@@PBDW4AFJointModType_t@@@Z 2000e830 f   AF.obj
 0001:0000dc70       ?SetBase@idAF@@IAEXPAVidAFBody@@PBVidJointMat@@@Z 2000ec70 f   AF.obj
 0001:0000dd30       ?LoadBody@idAF@@IAE_NPBVidDeclAF_Body@@PBVidJointMat@@@Z 2000ed30 f   AF.obj
 0001:0000e690       ?Load@idAF@@QAE_NPAVidEntity@@PBD_N@Z 2000f690 f   AF.obj
 0001:0000eee0       ?Restore@idAF@@QAEXPAVidRestoreGame@@@Z 2000fee0 f   AF.obj
 0001:0000f010       ?SetWorldAxis@idAFBody@@QAEXABVidMat3@@@Z 20010010 f i AF.obj
 0001:0000f060       ??H@YA?AVidStr@@PBDABV0@@Z 20010060 f i AF.obj
 0001:0000f140       ?GetClassType@idMultiModelAF@@SAAAVidTypeInfo@@XZ 20010140 f   AFEntity.obj
 0001:0000f150       ?GetType@idMultiModelAF@@UBEPAVidTypeInfo@@XZ 20010150 f   AFEntity.obj
 0001:0000f160       ?Spawn@idMultiModelAF@@QAEXXZ 20010160 f   AFEntity.obj
 0001:0000f180       ?Think@idMultiModelAF@@UAEXXZ 20010180 f   AFEntity.obj
 0001:0000f1a0       ?GetClassType@idChain@@SAAAVidTypeInfo@@XZ 200101a0 f   AFEntity.obj
 0001:0000f1b0       ?GetType@idChain@@UBEPAVidTypeInfo@@XZ 200101b0 f   AFEntity.obj
 0001:0000f1c0       ?GetClassType@idAFAttachment@@SAAAVidTypeInfo@@XZ 200101c0 f   AFEntity.obj
 0001:0000f1d0       ?GetType@idAFAttachment@@UBEPAVidTypeInfo@@XZ 200101d0 f   AFEntity.obj
 0001:0000f1e0       ?Hide@idAFAttachment@@UAEXXZ 200101e0 f   AFEntity.obj
 0001:0000f200       ?Show@idAFAttachment@@UAEXXZ 20010200 f   AFEntity.obj
 0001:0000f220       ?PlayIdleAnim@idAFAttachment@@QAEXHH@Z 20010220 f   AFEntity.obj
 0001:0000f270       ?Think@idAFAttachment@@UAEXXZ 20010270 f   AFEntity.obj
 0001:0000f280       ?GetCombatModel@idAFAttachment@@QBEPAVidClipModel@@XZ 20010280 f   AFEntity.obj
 0001:0000f290       ?LinkCombat@idAFAttachment@@UAEXXZ 20010290 f   AFEntity.obj
 0001:0000f2d0       ?UnlinkCombat@idAFAttachment@@UAEXXZ 200102d0 f   AFEntity.obj
 0001:0000f2e0       ?Event_ClearAnims@idAFAttachment@@QAEXXZ 200102e0 f   AFEntity.obj
 0001:0000f300       ?GetClassType@idAFEntity_Base@@SAAAVidTypeInfo@@XZ 20010300 f   AFEntity.obj
 0001:0000f310       ?GetType@idAFEntity_Base@@UBEPAVidTypeInfo@@XZ 20010310 f   AFEntity.obj
 0001:0000f320       ?Save@idAFEntity_Base@@QBEXPAVidSaveGame@@@Z 20010320 f   AFEntity.obj
 0001:0000f3a0       ?Restore@idAFEntity_Base@@QAEXPAVidRestoreGame@@@Z 200103a0 f   AFEntity.obj
 0001:0000f420       ?BodyForClipModelId@idAFEntity_Base@@QBEHH@Z 20010420 f   AFEntity.obj
 0001:0000f430       ?LoadState@idAFEntity_Base@@QAEXABVidDict@@@Z 20010430 f   AFEntity.obj
 0001:0000f440       ?AddBindConstraints@idAFEntity_Base@@QAEXXZ 20010440 f   AFEntity.obj
 0001:0000f450       ?RemoveBindConstraints@idAFEntity_Base@@QAEXXZ 20010450 f   AFEntity.obj
 0001:0000f460       ?GetCombatModel@idAFEntity_Base@@QBEPAVidClipModel@@XZ 20010460 f   AFEntity.obj
 0001:0000f470       ?LinkCombat@idAFEntity_Base@@UAEXXZ 20010470 f   AFEntity.obj
 0001:0000f4b0       ?UnlinkCombat@idAFEntity_Base@@UAEXXZ 200104b0 f   AFEntity.obj
 0001:0000f4c0       ?FreeModelDef@idAFEntity_Base@@UAEXXZ 200104c0 f   AFEntity.obj
 0001:0000f4e0       ?ShowEditingDialog@idAFEntity_Base@@UAEXXZ 200104e0 f   AFEntity.obj
 0001:0000f500       ?Event_SetConstraintPosition@idAFEntity_Base@@IAEXPBDABVidVec3@@@Z 20010500 f   AFEntity.obj
 0001:0000f510       ?GetClassType@idAFEntity_Gibbable@@SAAAVidTypeInfo@@XZ 20010510 f   AFEntity.obj
 0001:0000f520       ?GetType@idAFEntity_Gibbable@@UBEPAVidTypeInfo@@XZ 20010520 f   AFEntity.obj
 0001:0000f530       ?Save@idAFEntity_Gibbable@@QBEXPAVidSaveGame@@@Z 20010530 f   AFEntity.obj
 0001:0000f570       ?GetClassType@idAFEntity_Generic@@SAAAVidTypeInfo@@XZ 20010570 f   AFEntity.obj
 0001:0000f580       ?GetType@idAFEntity_Generic@@UBEPAVidTypeInfo@@XZ 20010580 f   AFEntity.obj
 0001:0000f590       ?Save@idAFEntity_Generic@@QBEXPAVidSaveGame@@@Z 20010590 f   AFEntity.obj
 0001:0000f5b0       ?Restore@idAFEntity_Generic@@QAEXPAVidRestoreGame@@@Z 200105b0 f   AFEntity.obj
 0001:0000f5d0       ?GetClassType@idAFEntity_WithAttachedHead@@SAAAVidTypeInfo@@XZ 200105d0 f   AFEntity.obj
 0001:0000f5e0       ?GetType@idAFEntity_WithAttachedHead@@UBEPAVidTypeInfo@@XZ 200105e0 f   AFEntity.obj
 0001:0000f5f0       ?Event_Gib@idAFEntity_WithAttachedHead@@AAEXPBD@Z 200105f0 f   AFEntity.obj
 0001:0000f620       ?GetClassType@idAFEntity_Vehicle@@SAAAVidTypeInfo@@XZ 20010620 f   AFEntity.obj
 0001:0000f630       ?GetType@idAFEntity_Vehicle@@UBEPAVidTypeInfo@@XZ 20010630 f   AFEntity.obj
 0001:0000f640       ?GetSteerAngle@idAFEntity_Vehicle@@IAEMXZ 20010640 f   AFEntity.obj
 0001:0000f6d0       ?GetClassType@idAFEntity_VehicleFourWheels@@SAAAVidTypeInfo@@XZ 200106d0 f   AFEntity.obj
 0001:0000f6e0       ?GetType@idAFEntity_VehicleFourWheels@@UBEPAVidTypeInfo@@XZ 200106e0 f   AFEntity.obj
 0001:0000f6f0       ?GetClassType@idAFEntity_VehicleSixWheels@@SAAAVidTypeInfo@@XZ 200106f0 f   AFEntity.obj
 0001:0000f700       ?GetType@idAFEntity_VehicleSixWheels@@UBEPAVidTypeInfo@@XZ 20010700 f   AFEntity.obj
 0001:0000f710       ?GetClassType@idAFEntity_SteamPipe@@SAAAVidTypeInfo@@XZ 20010710 f   AFEntity.obj
 0001:0000f720       ?GetType@idAFEntity_SteamPipe@@UBEPAVidTypeInfo@@XZ 20010720 f   AFEntity.obj
 0001:0000f730       ?Save@idAFEntity_SteamPipe@@QBEXPAVidSaveGame@@@Z 20010730 f   AFEntity.obj
 0001:0000f740       ?GetClassType@idAFEntity_ClawFourFingers@@SAAAVidTypeInfo@@XZ 20010740 f   AFEntity.obj
 0001:0000f750       ?GetType@idAFEntity_ClawFourFingers@@UBEPAVidTypeInfo@@XZ 20010750 f   AFEntity.obj
 0001:0000f760       ?Save@idAFEntity_ClawFourFingers@@QBEXPAVidSaveGame@@@Z 20010760 f   AFEntity.obj
 0001:0000f790       ?Event_StopFingers@idAFEntity_ClawFourFingers@@AAEXXZ 20010790 f   AFEntity.obj
 0001:0000f7c0       ?GetClassType@rvAFAttractor@@SAAAVidTypeInfo@@XZ 200107c0 f   AFEntity.obj
 0001:0000f7d0       ?GetType@rvAFAttractor@@UBEPAVidTypeInfo@@XZ 200107d0 f   AFEntity.obj
 0001:0000f7e0       ?Present@idMultiModelAF@@UAEXXZ 200107e0 f   AFEntity.obj
 0001:0000f910       ?ClearBody@idAFAttachment@@QAEXXZ 20010910 f   AFEntity.obj
 0001:0000f930       ?Save@idAFAttachment@@QBEXPAVidSaveGame@@@Z 20010930 f   AFEntity.obj
 0001:0000fa20       ?GetPhysicsToSoundTransform@idAFAttachment@@UAE_NAAVidVec3@@AAVidMat3@@@Z 20010a20 f   AFEntity.obj
 0001:0000fb10       ?Event_PlayAnim@idAFAttachment@@QAEXHPBD@Z 20010b10 f   AFEntity.obj
 0001:0000fbe0       ?Event_PlayCycle@idAFAttachment@@QAEXHPBD@Z 20010be0 f   AFEntity.obj
 0001:0000fc70       ??1idAFEntity_Base@@UAE@XZ 20010c70 f   AFEntity.obj
 0001:0000fd10       ?Spawn@idAFEntity_Base@@QAEXXZ 20010d10 f   AFEntity.obj
 0001:0000fde0       ?Think@idAFEntity_Base@@UAEXXZ 20010de0 f   AFEntity.obj
 0001:0000fe80       ?SaveState@idAFEntity_Base@@QBEXAAVidDict@@@Z 20010e80 f   AFEntity.obj
 0001:0000ff50       ?GetImpactInfo@idAFEntity_Base@@UAEXPAVidEntity@@HABVidVec3@@PAUimpactInfo_s@@@Z 20010f50 f   AFEntity.obj
 0001:0000ff70       ?AddForce@idAFEntity_Base@@UAEXPAVidEntity@@HABVidVec3@@1@Z 20010f70 f   AFEntity.obj
 0001:0000ffd0       ?Collide@idAFEntity_Base@@UAE_NABUtrace_t@@ABVidVec3@@@Z 20010fd0 f   AFEntity.obj
 0001:000100a0       ?GetPhysicsToVisualTransform@idAFEntity_Base@@UAE_NAAVidVec3@@AAVidMat3@@@Z 200110a0 f   AFEntity.obj
 0001:000100d0       ?UpdateAnimationControllers@idAFEntity_Base@@UAE_NXZ 200110d0 f   AFEntity.obj
 0001:000100f0       ?SetCombatModel@idAFEntity_Base@@QAEXXZ 200110f0 f   AFEntity.obj
 0001:000101a0       ?SetCombatContents@idAFEntity_Base@@QAEX_N@Z 200111a0 f   AFEntity.obj
 0001:00010200       ?GetNoPlayerImpactFX@idAFEntity_Base@@QAE_NXZ 20011200 f   AFEntity.obj
 0001:00010260       ??1idAFEntity_Gibbable@@UAE@XZ 20011260 f   AFEntity.obj
 0001:000102d0       ?InitSkeletonModel@idAFEntity_Gibbable@@IAEXXZ 200112d0 f   AFEntity.obj
 0001:000103b0       ?Damage@idAFEntity_Gibbable@@UAEXPAVidEntity@@0ABVidVec3@@PBDMH@Z 200113b0 f   AFEntity.obj
 0001:00010430       ?Gib@idAFEntity_Gibbable@@MAEXABVidVec3@@PBD@Z 20011430 f   AFEntity.obj
 0001:000105f0       ?Event_Gib@idAFEntity_Gibbable@@IAEXPBD@Z 200115f0 f   AFEntity.obj
 0001:00010620       ??1idAFEntity_Generic@@UAE@XZ 20011620 f   AFEntity.obj
 0001:00010630       ?Think@idAFEntity_Generic@@UAEXXZ 20011630 f   AFEntity.obj
 0001:00010650       ?Spawn@idAFEntity_Generic@@QAEXXZ 20011650 f   AFEntity.obj
 0001:000106e0       ?Event_Activate@idAFEntity_Generic@@AAEXPAVidEntity@@@Z 200116e0 f   AFEntity.obj
 0001:00010840       ??1idAFEntity_WithAttachedHead@@UAE@XZ 20011840 f   AFEntity.obj
 0001:00010910       ?Spawn@idAFEntity_WithAttachedHead@@QAEXXZ 20011910 f   AFEntity.obj
 0001:00010a80       ?Save@idAFEntity_WithAttachedHead@@QBEXPAVidSaveGame@@@Z 20011a80 f   AFEntity.obj
 0001:00010aa0       ?Restore@idAFEntity_WithAttachedHead@@QAEXPAVidRestoreGame@@@Z 20011aa0 f   AFEntity.obj
 0001:00010ac0       ?Think@idAFEntity_WithAttachedHead@@UAEXXZ 20011ac0 f   AFEntity.obj
 0001:00010ad0       ?LinkCombat@idAFEntity_WithAttachedHead@@UAEXXZ 20011ad0 f   AFEntity.obj
 0001:00010b40       ?UnlinkCombat@idAFEntity_WithAttachedHead@@UAEXXZ 20011b40 f   AFEntity.obj
 0001:00010b90       ?Hide@idAFEntity_WithAttachedHead@@UAEXXZ 20011b90 f   AFEntity.obj
 0001:00010bf0       ?Show@idAFEntity_WithAttachedHead@@UAEXXZ 20011bf0 f   AFEntity.obj
 0001:00010c50       ?ProjectOverlay@idAFEntity_WithAttachedHead@@UAEXABVidVec3@@0MPBD@Z 20011c50 f   AFEntity.obj
 0001:00010cc0       ?Gib@idAFEntity_WithAttachedHead@@MAEXABVidVec3@@PBD@Z 20011cc0 f   AFEntity.obj
 0001:00010d30       ?Event_Activate@idAFEntity_WithAttachedHead@@AAEXPAVidEntity@@@Z 20011d30 f   AFEntity.obj
 0001:00010e90       ?Spawn@idAFEntity_Vehicle@@QAEXXZ 20011e90 f   AFEntity.obj
 0001:00010fc0       ?Use@idAFEntity_Vehicle@@QAEXPAVidPlayer@@@Z 20011fc0 f   AFEntity.obj
 0001:00011110       ?Spawn@idAFEntity_VehicleFourWheels@@QAEXXZ 20012110 f   AFEntity.obj
 0001:000112e0       ?Think@idAFEntity_VehicleFourWheels@@UAEXXZ 200122e0 f   AFEntity.obj
 0001:00011600       ?Spawn@idAFEntity_VehicleSixWheels@@QAEXXZ 20012600 f   AFEntity.obj
 0001:000117e0       ?Think@idAFEntity_VehicleSixWheels@@UAEXXZ 200127e0 f   AFEntity.obj
 0001:00011ba0       ??1idAFEntity_SteamPipe@@UAE@XZ 20012ba0 f   AFEntity.obj
 0001:00011c10       ?InitSteamRenderEntity@idAFEntity_SteamPipe@@AAEXXZ 20012c10 f   AFEntity.obj
 0001:00011de0       ?Think@idAFEntity_SteamPipe@@UAEXXZ 20012de0 f   AFEntity.obj
 0001:00011f80       ?Restore@idAFEntity_ClawFourFingers@@QAEXPAVidRestoreGame@@@Z 20012f80 f   AFEntity.obj
 0001:00011ff0       ?Spawn@idAFEntity_ClawFourFingers@@QAEXXZ 20012ff0 f   AFEntity.obj
 0001:00012070       ?Event_SetFingerAngle@idAFEntity_ClawFourFingers@@AAEXM@Z 20013070 f   AFEntity.obj
 0001:000120c0       ?AF_UpdateEntities@idGameEdit@@UAEXPBD@Z 200130c0 f   AFEntity.obj
 0001:000121b0       ?AF_UndoChanges@idGameEdit@@UAEXXZ 200131b0 f   AFEntity.obj
 0001:00012400       ?CreateInstance@rvAFAttractor@@SAPAVidClass@@XZ 20013400 f   AFEntity.obj
 0001:000124b0       ?Spawn@idAFAttachment@@QAEXXZ 200134b0 f   AFEntity.obj
 0001:00012650       ?CopyJointsFromBody@idAFAttachment@@QAEXXZ 20013650 f   AFEntity.obj
 0001:00012970       ?SetBody@idAFAttachment@@QAEXPAVidAnimatedEntity@@PBDW4jointHandle_t@@@Z 20013970 f   AFEntity.obj
 0001:00012a30       ?GetBody@idAFAttachment@@QBEPAVidEntity@@XZ 20013a30 f   AFEntity.obj
 0001:00012a60       ?Damage@idAFAttachment@@UAEXPAVidEntity@@0ABVidVec3@@PBDMH@Z 20013a60 f   AFEntity.obj
 0001:00012ad0       ?AddDamageEffect@idAFAttachment@@UAEXABUtrace_t@@ABVidVec3@@PBDPAVidEntity@@@Z 20013ad0 f   AFEntity.obj
 0001:00012b60       ?GetImpactInfo@idAFAttachment@@UAEXPAVidEntity@@HABVidVec3@@PAUimpactInfo_s@@@Z 20013b60 f   AFEntity.obj
 0001:00012bd0       ?GetNoPlayerImpactFX@idAFAttachment@@QAE_NXZ 20013bd0 f   AFEntity.obj
 0001:00012c30       ?ApplyImpulse@idAFAttachment@@UAEXPAVidEntity@@HABVidVec3@@1_N@Z 20013c30 f   AFEntity.obj
 0001:00012cb0       ?AddForce@idAFAttachment@@UAEXPAVidEntity@@HABVidVec3@@1@Z 20013cb0 f   AFEntity.obj
 0001:00012d20       ?UpdateAnimationControllers@idAFAttachment@@UAE_NXZ 20013d20 f   AFEntity.obj
 0001:00012d30       ?SetCombatModel@idAFAttachment@@QAEXXZ 20013d30 f   AFEntity.obj
 0001:00012e20       ?GetDamageEntity@idAFAttachment@@UAEPAVidEntity@@XZ 20013e20 f   AFEntity.obj
 0001:00012e90       ??0idAFEntity_Base@@QAE@XZ 20013e90 f   AFEntity.obj
 0001:00012f80       ?LoadAF@idAFEntity_Base@@UAE_NPBD@Z 20013f80 f   AFEntity.obj
 0001:00013120       ?ApplyImpulse@idAFEntity_Base@@UAEXPAVidEntity@@HABVidVec3@@1_N@Z 20014120 f   AFEntity.obj
 0001:00013210       ?CanPlayImpactEffect@idAFEntity_Base@@UAE_NPAVidEntity@@0@Z 20014210 f   AFEntity.obj
 0001:00013270       ??0idAFEntity_Gibbable@@QAE@XZ 20014270 f   AFEntity.obj
 0001:000132a0       ?Restore@idAFEntity_Gibbable@@QAEXPAVidRestoreGame@@@Z 200142a0 f   AFEntity.obj
 0001:00013310       ?Spawn@idAFEntity_Gibbable@@QAEXXZ 20014310 f   AFEntity.obj
 0001:00013340       ?Present@idAFEntity_Gibbable@@UAEXXZ 20014340 f   AFEntity.obj
 0001:000133f0       ??0idAFEntity_Generic@@QAE@XZ 200143f0 f   AFEntity.obj
 0001:00013410       ??0idAFEntity_WithAttachedHead@@QAE@XZ 20014410 f   AFEntity.obj
 0001:00013430       ??0idAFEntity_Vehicle@@QAE@XZ 20014430 f   AFEntity.obj
 0001:00013470       ??0idAFEntity_VehicleFourWheels@@QAE@XZ 20014470 f   AFEntity.obj
 0001:000134e0       ??0idAFEntity_VehicleSixWheels@@QAE@XZ 200144e0 f   AFEntity.obj
 0001:00013580       ??0idAFEntity_SteamPipe@@QAE@XZ 20014580 f   AFEntity.obj
 0001:00013610       ?Spawn@idAFEntity_SteamPipe@@QAEXXZ 20014610 f   AFEntity.obj
 0001:00013770       ??0idAFEntity_ClawFourFingers@@QAE@XZ 20014770 f   AFEntity.obj
 0001:000137a0       ?AF_CreateMesh@idGameEdit@@UAEPAVidRenderModel@@ABVidDict@@AAVidVec3@@AAVidMat3@@AA_N@Z 200147a0 f   AFEntity.obj
 0001:00014f40       ?RegisterClassA@rvAFAttractor@@SAXXZ 20015f40 f   AFEntity.obj
 0001:00014fd0       ?Register_rvAFAttractor@@YAXXZ 20015fd0 f   AFEntity.obj
 0001:00014fe0       ??1idMultiModelAF@@UAE@XZ  20015fe0 f   AFEntity.obj
 0001:00015110       ?SetModelForId@idMultiModelAF@@IAEXHABVidStr@@@Z 20016110 f   AFEntity.obj
 0001:00015410       ?BuildChain@idChain@@IAEXABVidStr@@ABVidVec3@@MMMH_N@Z 20016410 f   AFEntity.obj
 0001:00015cb0       ?Spawn@idChain@@QAEXXZ     20016cb0 f   AFEntity.obj
 0001:00015f10       ??0idAFAttachment@@QAE@XZ  20016f10 f   AFEntity.obj
 0001:00015fa0       ??1idAFAttachment@@UAE@XZ  20016fa0 f   AFEntity.obj
 0001:00016080       ?InitCopyJoints@idAFAttachment@@QAEXXZ 20017080 f   AFEntity.obj
 0001:00016470       ?Restore@idAFAttachment@@QAEXPAVidRestoreGame@@@Z 20017470 f   AFEntity.obj
 0001:000166f0       ?CanPlayImpactEffect@idAFAttachment@@UAE_NPAVidEntity@@0@Z 200176f0 f   AFEntity.obj
 0001:00016750       ?CreateInstance@idAFEntity_Base@@SAPAVidClass@@XZ 20017750 f   AFEntity.obj
 0001:000167f0       ?DropAFs@idAFEntity_Base@@SAXPAVidEntity@@PBDPAV?$idList@PAVidEntity@@@@@Z 200177f0 f   AFEntity.obj
 0001:00016cc0       ?CreateInstance@idAFEntity_Gibbable@@SAPAVidClass@@XZ 20017cc0 f   AFEntity.obj
 0001:00016d60       ?SpawnGibs@idAFEntity_Gibbable@@UAEXABVidVec3@@PBD@Z 20017d60 f   AFEntity.obj
 0001:00017120       ?CreateInstance@idAFEntity_Generic@@SAPAVidClass@@XZ 20018120 f   AFEntity.obj
 0001:000171c0       ?CreateInstance@idAFEntity_WithAttachedHead@@SAPAVidClass@@XZ 200181c0 f   AFEntity.obj
 0001:00017260       ?SetupHead@idAFEntity_WithAttachedHead@@UAEXPBD@Z 20018260 f   AFEntity.obj
 0001:00017720       ?CreateInstance@idAFEntity_Vehicle@@SAPAVidClass@@XZ 20018720 f   AFEntity.obj
 0001:000177c0       ?CreateInstance@idAFEntity_VehicleFourWheels@@SAPAVidClass@@XZ 200187c0 f   AFEntity.obj
 0001:00017860       ?CreateInstance@idAFEntity_VehicleSixWheels@@SAPAVidClass@@XZ 20018860 f   AFEntity.obj
 0001:00017900       ?CreateInstance@idAFEntity_SteamPipe@@SAPAVidClass@@XZ 20018900 f   AFEntity.obj
 0001:000179a0       ?Restore@idAFEntity_SteamPipe@@QAEXPAVidRestoreGame@@@Z 200189a0 f   AFEntity.obj
 0001:000179b0       ?CreateInstance@idAFEntity_ClawFourFingers@@SAPAVidClass@@XZ 200189b0 f   AFEntity.obj
 0001:00017a50       ?AF_SpawnEntity@idGameEdit@@UAE_NPBD@Z 20018a50 f   AFEntity.obj
 0001:00017ea0       ?CreateInstance@idMultiModelAF@@SAPAVidClass@@XZ 20018ea0 f   AFEntity.obj
 0001:00017f90       ?CreateInstance@idChain@@SAPAVidClass@@XZ 20018f90 f   AFEntity.obj
 0001:00018080       ?CreateInstance@idAFAttachment@@SAPAVidClass@@XZ 20019080 f   AFEntity.obj
 0001:00018120       ?RegisterClassA@idAFEntity_Base@@SAXXZ 20019120 f   AFEntity.obj
 0001:000181b0       ?Register_idAFEntity_Base@@YAXXZ 200191b0 f   AFEntity.obj
 0001:000181c0       ?RegisterClassA@idAFEntity_Gibbable@@SAXXZ 200191c0 f   AFEntity.obj
 0001:00018250       ?Register_idAFEntity_Gibbable@@YAXXZ 20019250 f   AFEntity.obj
 0001:00018260       ?RegisterClassA@idAFEntity_Generic@@SAXXZ 20019260 f   AFEntity.obj
 0001:000182f0       ?Register_idAFEntity_Generic@@YAXXZ 200192f0 f   AFEntity.obj
 0001:00018300       ?RegisterClassA@idAFEntity_WithAttachedHead@@SAXXZ 20019300 f   AFEntity.obj
 0001:00018390       ?Register_idAFEntity_WithAttachedHead@@YAXXZ 20019390 f   AFEntity.obj
 0001:000183a0       ?RegisterClassA@idAFEntity_Vehicle@@SAXXZ 200193a0 f   AFEntity.obj
 0001:00018430       ?Register_idAFEntity_Vehicle@@YAXXZ 20019430 f   AFEntity.obj
 0001:00018440       ?RegisterClassA@idAFEntity_VehicleFourWheels@@SAXXZ 20019440 f   AFEntity.obj
 0001:000184d0       ?Register_idAFEntity_VehicleFourWheels@@YAXXZ 200194d0 f   AFEntity.obj
 0001:000184e0       ?RegisterClassA@idAFEntity_VehicleSixWheels@@SAXXZ 200194e0 f   AFEntity.obj
 0001:00018570       ?Register_idAFEntity_VehicleSixWheels@@YAXXZ 20019570 f   AFEntity.obj
 0001:00018580       ?RegisterClassA@idAFEntity_SteamPipe@@SAXXZ 20019580 f   AFEntity.obj
 0001:00018610       ?Register_idAFEntity_SteamPipe@@YAXXZ 20019610 f   AFEntity.obj
 0001:00018620       ?RegisterClassA@idAFEntity_ClawFourFingers@@SAXXZ 20019620 f   AFEntity.obj
 0001:000186b0       ?Register_idAFEntity_ClawFourFingers@@YAXXZ 200196b0 f   AFEntity.obj
 0001:000186c0       ?RegisterClassA@idMultiModelAF@@SAXXZ 200196c0 f   AFEntity.obj
 0001:00018750       ?Register_idMultiModelAF@@YAXXZ 20019750 f   AFEntity.obj
 0001:00018760       ?RegisterClassA@idChain@@SAXXZ 20019760 f   AFEntity.obj
 0001:000187f0       ?Register_idChain@@YAXXZ   200197f0 f   AFEntity.obj
 0001:00018800       ?RegisterClassA@idAFAttachment@@SAXXZ 20019800 f   AFEntity.obj
 0001:00018890       ?Register_idAFAttachment@@YAXXZ 20019890 f   AFEntity.obj
 0001:000188a0       ??4idBounds@@QAEAAV0@ABV0@@Z 200198a0 f i AFEntity.obj
 0001:000188d0       ??4renderEntity_s@@QAEAAU0@ABU0@@Z 200198d0 f i AFEntity.obj
 0001:00018aa0       ??H@YA?AVidStr@@ABV0@0@Z   20019aa0 f i AFEntity.obj
 0001:00018b70       ?GetEyePosition@idEntity@@UBE?AVidVec3@@XZ 20019b70 f i AFEntity.obj
 0001:00018ba0       ??4idTraceModel@@QAEAAV0@ABV0@@Z 20019ba0 f i AFEntity.obj
 0001:00018e10       ??_GidAFEntity_Gibbable@@UAEPAXI@Z 20019e10 f i AFEntity.obj
 0001:00018e10       ??_EidAFEntity_Gibbable@@UAEPAXI@Z 20019e10 f i AFEntity.obj
 0001:00018e40       ??_EidAFEntity_Generic@@UAEPAXI@Z 20019e40 f i AFEntity.obj
 0001:00018e40       ??_GidAFEntity_Generic@@UAEPAXI@Z 20019e40 f i AFEntity.obj
 0001:00018e70       ??_EidAFEntity_WithAttachedHead@@UAEPAXI@Z 20019e70 f i AFEntity.obj
 0001:00018e70       ??_GidAFEntity_WithAttachedHead@@UAEPAXI@Z 20019e70 f i AFEntity.obj
 0001:00018ea0       ??_EidAFEntity_VehicleSixWheels@@UAEPAXI@Z 20019ea0 f i AFEntity.obj
 0001:00018ea0       ??_GidAFEntity_Vehicle@@UAEPAXI@Z 20019ea0 f i AFEntity.obj
 0001:00018ea0       ??_EidAFEntity_Vehicle@@UAEPAXI@Z 20019ea0 f i AFEntity.obj
 0001:00018ea0       ??_EidAFEntity_Base@@UAEPAXI@Z 20019ea0 f i AFEntity.obj
 0001:00018ea0       ??_EidAFEntity_VehicleFourWheels@@UAEPAXI@Z 20019ea0 f i AFEntity.obj
 0001:00018ea0       ??_GidAFEntity_ClawFourFingers@@UAEPAXI@Z 20019ea0 f i AFEntity.obj
 0001:00018ea0       ??_GidAFEntity_VehicleSixWheels@@UAEPAXI@Z 20019ea0 f i AFEntity.obj
 0001:00018ea0       ??_GidAFEntity_Base@@UAEPAXI@Z 20019ea0 f i AFEntity.obj
 0001:00018ea0       ??_EidAFEntity_ClawFourFingers@@UAEPAXI@Z 20019ea0 f i AFEntity.obj
 0001:00018ea0       ??_GidAFEntity_VehicleFourWheels@@UAEPAXI@Z 20019ea0 f i AFEntity.obj
 0001:00018ed0       ??_EidAFEntity_SteamPipe@@UAEPAXI@Z 20019ed0 f i AFEntity.obj
 0001:00018ed0       ??_GidAFEntity_SteamPipe@@UAEPAXI@Z 20019ed0 f i AFEntity.obj
 0001:00018f00       ??_GidChain@@UAEPAXI@Z     20019f00 f i AFEntity.obj
 0001:00018f00       ??_EidChain@@UAEPAXI@Z     20019f00 f i AFEntity.obj
 0001:00018f00       ??_GidMultiModelAF@@UAEPAXI@Z 20019f00 f i AFEntity.obj
 0001:00018f00       ??_EidMultiModelAF@@UAEPAXI@Z 20019f00 f i AFEntity.obj
 0001:00018f30       ??_GidAFAttachment@@UAEPAXI@Z 20019f30 f i AFEntity.obj
 0001:00018f30       ??_EidAFAttachment@@UAEPAXI@Z 20019f30 f i AFEntity.obj
 0001:00018f60       ?GetClassType@idBrittleFracture@@SAAAVidTypeInfo@@XZ 20019f60 f   BrittleFracture.obj
 0001:00018f70       ?GetType@idBrittleFracture@@UBEPAVidTypeInfo@@XZ 20019f70 f   BrittleFracture.obj
 0001:00018f80       ?Break@idBrittleFracture@@AAEXXZ 20019f80 f   BrittleFracture.obj
 0001:00018fa0       ?IsBroken@idBrittleFracture@@QBE_NXZ 20019fa0 f   BrittleFracture.obj
 0001:00018fb0       ?Killed@idBrittleFracture@@UAEXPAVidEntity@@0HABVidVec3@@H@Z 20019fb0 f   BrittleFracture.obj
 0001:00018fe0       ?Event_Activate@idBrittleFracture@@AAEXPAVidEntity@@@Z 20019fe0 f   BrittleFracture.obj
 0001:00019000       ?ClientPredictionThink@idBrittleFracture@@UAEXXZ 2001a000 f   BrittleFracture.obj
 0001:00019020       ?Save@idBrittleFracture@@QBEXPAVidSaveGame@@@Z 2001a020 f   BrittleFracture.obj
 0001:00019360       ?UpdateRenderEntity@idBrittleFracture@@ABE_NPAUrenderEntity_s@@PBUrenderView_s@@@Z 2001a360 f   BrittleFracture.obj
 0001:00019fb0       ?ModelCallback@idBrittleFracture@@CA_NPAUrenderEntity_s@@PBUrenderView_s@@@Z 2001afb0 f   BrittleFracture.obj
 0001:00019ff0       ?Present@idBrittleFracture@@UAEXXZ 2001aff0 f   BrittleFracture.obj
 0001:0001a120       ?DropShard@idBrittleFracture@@AAEXPAUshard_s@@ABVidVec3@@1MH@Z 2001b120 f   BrittleFracture.obj
 0001:0001a5f0       ?DropFloatingIslands@idBrittleFracture@@AAEXABVidVec3@@0H@Z 2001b5f0 f   BrittleFracture.obj
 0001:0001a7e0       ??0idBrittleFracture@@QAE@XZ 2001b7e0 f   BrittleFracture.obj
 0001:0001a950       ?AddShard@idBrittleFracture@@AAEXPAVidClipModel@@AAVidFixedWinding@@@Z 2001b950 f   BrittleFracture.obj
 0001:0001adc0       ?ProjectDecal@idBrittleFracture@@QAEXABVidVec3@@0HPBD@Z 2001bdc0 f   BrittleFracture.obj
 0001:0001b6e0       ?Shatter@idBrittleFracture@@AAEXABVidVec3@@0H@Z 2001c6e0 f   BrittleFracture.obj
 0001:0001b970       ?AddDamageEffect@idBrittleFracture@@UAEXABUtrace_t@@ABVidVec3@@PBDPAVidEntity@@@Z 2001c970 f   BrittleFracture.obj
 0001:0001b9a0       ?Fracture_r@idBrittleFracture@@AAEXAAVidFixedWinding@@@Z 2001c9a0 f   BrittleFracture.obj
 0001:0001bfa0       ?CreateFractures@idBrittleFracture@@AAEXPBVidRenderModel@@@Z 2001cfa0 f   BrittleFracture.obj
 0001:0001c240       ?FindNeighbours@idBrittleFracture@@AAEXXZ 2001d240 f   BrittleFracture.obj
 0001:0001cd60       ?Event_Touch@idBrittleFracture@@AAEXPAVidEntity@@PAUtrace_t@@@Z 2001dd60 f   BrittleFracture.obj
 0001:0001ce20       ?ClientReceiveEvent@idBrittleFracture@@UAE_NHHABVidBitMsg@@@Z 2001de20 f   BrittleFracture.obj
 0001:0001cf30       ?CreateInstance@idBrittleFracture@@SAPAVidClass@@XZ 2001df30 f   BrittleFracture.obj
 0001:0001cfd0       ?Restore@idBrittleFracture@@QAEXPAVidRestoreGame@@@Z 2001dfd0 f   BrittleFracture.obj
 0001:0001d8c0       ?Spawn@idBrittleFracture@@QAEXXZ 2001e8c0 f   BrittleFracture.obj
 0001:0001dcb0       ?RemoveShard@idBrittleFracture@@AAEXH@Z 2001ecb0 f   BrittleFracture.obj
 0001:0001dd60       ?Think@idBrittleFracture@@UAEXXZ 2001ed60 f   BrittleFracture.obj
 0001:0001dfd0       ?ApplyImpulse@idBrittleFracture@@UAEXPAVidEntity@@HABVidVec3@@1_N@Z 2001efd0 f   BrittleFracture.obj
 0001:0001e040       ?AddForce@idBrittleFracture@@UAEXPAVidEntity@@HABVidVec3@@1@Z 2001f040 f   BrittleFracture.obj
 0001:0001e0b0       ?RegisterClassA@idBrittleFracture@@SAXXZ 2001f0b0 f   BrittleFracture.obj
 0001:0001e140       ?Register_idBrittleFracture@@YAXXZ 2001f140 f   BrittleFracture.obj
 0001:0001e150       ??1idBrittleFracture@@UAE@XZ 2001f150 f   BrittleFracture.obj
 0001:0001e310       ?Clear@idFixedWinding@@UAEXXZ 2001f310 f i BrittleFracture.obj
 0001:0001e320       ??1idWinding@@UAE@XZ       2001f320 f i BrittleFracture.obj
 0001:0001e370       ?Clear@idWinding@@UAEXXZ   2001f370 f i BrittleFracture.obj
 0001:0001e3b0       ??1idFixedWinding@@UAE@XZ  2001f3b0 f i BrittleFracture.obj
 0001:0001e400       ??4idFixedWinding@@QAEAAV0@ABV0@@Z 2001f400 f i BrittleFracture.obj
 0001:0001e4b0       ??_EidWinding@@UAEPAXI@Z   2001f4b0 f i BrittleFracture.obj
 0001:0001e4b0       ??_GidWinding@@UAEPAXI@Z   2001f4b0 f i BrittleFracture.obj
 0001:0001e530       ??_EidFixedWinding@@UAEPAXI@Z 2001f530 f i BrittleFracture.obj
 0001:0001e530       ??_GidFixedWinding@@UAEPAXI@Z 2001f530 f i BrittleFracture.obj
 0001:0001e5b0       ??1shard_s@@QAE@XZ         2001f5b0 f i BrittleFracture.obj
 0001:0001e710       ??0shard_s@@QAE@XZ         2001f710 f i BrittleFracture.obj
 0001:0001e7c0       ??_EidBrittleFracture@@UAEPAXI@Z 2001f7c0 f i BrittleFracture.obj
 0001:0001e7c0       ??_GidBrittleFracture@@UAEPAXI@Z 2001f7c0 f i BrittleFracture.obj
 0001:0001e7f0       ?CreateInstance@idCamera@@SAPAVidClass@@XZ 2001f7f0 f   Camera.obj
 0001:0001e810       ?GetClassType@idCamera@@SAAAVidTypeInfo@@XZ 2001f810 f   Camera.obj
 0001:0001e820       ?GetType@idCamera@@UBEPAVidTypeInfo@@XZ 2001f820 f   Camera.obj
 0001:0001e830       ?Spawn@idCamera@@QAEXXZ    2001f830 f   Camera.obj
 0001:0001e840       ?GetRenderView@idCamera@@UAEPAUrenderView_s@@XZ 2001f840 f   Camera.obj
 0001:0001e860       ?GetClassType@idCameraView@@SAAAVidTypeInfo@@XZ 2001f860 f   Camera.obj
 0001:0001e870       ?GetType@idCameraView@@UBEPAVidTypeInfo@@XZ 2001f870 f   Camera.obj
 0001:0001e880       ?Event_GetFOV@idCameraView@@IAEXXZ 2001f880 f   Camera.obj
 0001:0001e8b0       ?DefaultDefinition@idDeclCameraDef@@UBEPBDXZ 2001f8b0 f   Camera.obj
 0001:0001e8c0       ?Touch@idDeclCameraDef@@QBEXXZ 2001f8c0 f   Camera.obj
 0001:0001e8d0       ?Validate@idDeclCameraDef@@UBE_NPBDHAAVidStr@@@Z 2001f8d0 f   Camera.obj
 0001:0001e930       ?GetClassType@idCameraAnim@@SAAAVidTypeInfo@@XZ 2001f930 f   Camera.obj
 0001:0001e940       ?GetType@idCameraAnim@@UBEPAVidTypeInfo@@XZ 2001f940 f   Camera.obj
 0001:0001e950       ?Event_Stop@idCameraAnim@@AAEXXZ 2001f950 f   Camera.obj
 0001:0001e960       ?Event_SetCallback@idCameraAnim@@AAEXXZ 2001f960 f   Camera.obj
 0001:0001e9a0       ?Event_IsActive@idCameraAnim@@AAEXXZ 2001f9a0 f   Camera.obj
 0001:0001e9d0       ?GetClassType@rvCameraPortalSky@@SAAAVidTypeInfo@@XZ 2001f9d0 f   Camera.obj
 0001:0001e9e0       ?GetType@rvCameraPortalSky@@UBEPAVidTypeInfo@@XZ 2001f9e0 f   Camera.obj
 0001:0001e9f0       ?Save@rvCameraPortalSky@@QBEXPAVidSaveGame@@@Z 2001f9f0 f   Camera.obj
 0001:0001ea00       ?Spawn@rvCameraPortalSky@@QAEXXZ 2001fa00 f   Camera.obj
 0001:0001ea30       ?GetClassType@rvCameraPlayback@@SAAAVidTypeInfo@@XZ 2001fa30 f   Camera.obj
 0001:0001ea40       ?GetType@rvCameraPlayback@@UBEPAVidTypeInfo@@XZ 2001fa40 f   Camera.obj
 0001:0001ea50       ?Save@rvCameraPlayback@@QBEXPAVidSaveGame@@@Z 2001fa50 f   Camera.obj
 0001:0001ea60       ?RegisterClassA@idCamera@@SAXXZ 2001fa60 f   Camera.obj
 0001:0001eaf0       ?Register_idCamera@@YAXXZ  2001faf0 f   Camera.obj
 0001:0001eb00       ??0idCameraView@@QAE@XZ    2001fb00 f   Camera.obj
 0001:0001ebc0       ?Save@idCameraView@@QBEXPAVidSaveGame@@@Z 2001fbc0 f   Camera.obj
 0001:0001ec40       ?Restore@idCameraView@@QAEXPAVidRestoreGame@@@Z 2001fc40 f   Camera.obj
 0001:0001ecc0       ?Event_Activate@idCameraView@@IAEXPAVidEntity@@@Z 2001fcc0 f   Camera.obj
 0001:0001ed80       ?Stop@idCameraView@@UAEXXZ 2001fd80 f   Camera.obj
 0001:0001ede0       ?Event_SetFOV@idCameraView@@IAEXM@Z 2001fde0 f   Camera.obj
 0001:0001ee30       ?Event_BlendFOV@idCameraView@@IAEXMMM@Z 2001fe30 f   Camera.obj
 0001:0001ee90       ?SetAttachment@idCameraView@@IAEXPAPAVidEntity@@PBD@Z 2001fe90 f   Camera.obj
 0001:0001eee0       ?Spawn@idCameraView@@QAEXXZ 2001fee0 f   Camera.obj
 0001:0001f040       ?GetViewParms@idCameraView@@UAEXPAUrenderView_s@@@Z 20020040 f   Camera.obj
 0001:0001f1c0       ?Name@rvCameraAnimation@@QBEPBDXZ 200201c0 f   Camera.obj
 0001:0001f1d0       ?FullName@rvCameraAnimation@@QBEPBDXZ 200201d0 f   Camera.obj
 0001:0001f1e0       ?NumFrames@rvCameraAnimation@@QBEHXZ 200201e0 f   Camera.obj
 0001:0001f1f0       ?NumCuts@rvCameraAnimation@@QBEHXZ 200201f0 f   Camera.obj
 0001:0001f200       ?CallFrameCommandSound@rvCameraAnimation@@QBEXABUframeCommand_t@@PAVidEntity@@H@Z 20020200 f   Camera.obj
 0001:0001f250       ?Size@idDeclCameraDef@@UBEIXZ 20020250 f   Camera.obj
 0001:0001f260       ?HasAnim@idDeclCameraDef@@QBE_NPBD@Z 20020260 f   Camera.obj
 0001:0001f2b0       ?NumAnims@idDeclCameraDef@@QBEHXZ 200202b0 f   Camera.obj
 0001:0001f2c0       ?GetSpecificAnim@idDeclCameraDef@@QBEHPBD@Z 200202c0 f   Camera.obj
 0001:0001f310       ?GetAnim@idDeclCameraDef@@QBEHPBD@Z 20020310 f   Camera.obj
 0001:0001f3d0       ?Save@idCameraAnim@@QBEXPAVidSaveGame@@@Z 200203d0 f   Camera.obj
 0001:0001f440       ?LoadAnim@idCameraAnim@@AAEXXZ 20020440 f   Camera.obj
 0001:0001f550       ?Restore@rvCameraPortalSky@@QAEXPAVidRestoreGame@@@Z 20020550 f   Camera.obj
 0001:0001f560       ?GetViewParms@rvCameraPortalSky@@UAEXPAUrenderView_s@@@Z 20020560 f   Camera.obj
 0001:0001f5a0       ?CreateInstance@rvCameraPlayback@@SAPAVidClass@@XZ 200205a0 f   Camera.obj
 0001:0001f650       ?Spawn@rvCameraPlayback@@QAEXXZ 20020650 f   Camera.obj
 0001:0001f690       ?CreateInstance@idCameraView@@SAPAVidClass@@XZ 20020690 f   Camera.obj
 0001:0001f730       ?Event_SetAttachments@idCameraView@@IAEXXZ 20020730 f   Camera.obj
 0001:0001f760       ?CallFrameCommands@rvCameraAnimation@@QBEXPAVidEntity@@HH@Z 20020760 f   Camera.obj
 0001:0001fcc0       ?Restore@idCameraAnim@@QAEXPAVidRestoreGame@@@Z 20020cc0 f   Camera.obj
 0001:0001fd30       ?Spawn@idCameraAnim@@QAEXXZ 20020d30 f   Camera.obj
 0001:0001ff80       ?Start@idCameraAnim@@AAEXXZ 20020f80 f   Camera.obj
 0001:000200a0       ?Stop@idCameraAnim@@EAEXXZ 200210a0 f   Camera.obj
 0001:00020180       ?Think@idCameraAnim@@EAEXXZ 20021180 f   Camera.obj
 0001:00020300       ?GetViewParms@idCameraAnim@@UAEXPAUrenderView_s@@@Z 20021300 f   Camera.obj
 0001:00020b30       ?Event_Activate@idCameraAnim@@AAEXPAVidEntity@@@Z 20021b30 f   Camera.obj
 0001:00020b80       ?Event_Start@idCameraAnim@@AAEXXZ 20021b80 f   Camera.obj
 0001:00020b90       ?CreateInstance@rvCameraPortalSky@@SAPAVidClass@@XZ 20021b90 f   Camera.obj
 0001:00020c40       ?Restore@rvCameraPlayback@@QAEXPAVidRestoreGame@@@Z 20021c40 f   Camera.obj
 0001:00020c50       ?GetViewParms@rvCameraPlayback@@UAEXPAUrenderView_s@@@Z 20021c50 f   Camera.obj
 0001:00020d50       ?RegisterClassA@idCameraView@@SAXXZ 20021d50 f   Camera.obj
 0001:00020de0       ?Register_idCameraView@@YAXXZ 20021de0 f   Camera.obj
 0001:00020df0       ??0rvCameraAnimation@@QAE@XZ 20021df0 f   Camera.obj
 0001:00020e80       ??0rvCameraAnimation@@QAE@PBVidDeclCameraDef@@PBV0@@Z 20021e80 f   Camera.obj
 0001:000212b0       ??1rvCameraAnimation@@QAE@XZ 200222b0 f   Camera.obj
 0001:000213e0       ?SetAnim@rvCameraAnimation@@QAEXPBVidDeclCameraDef@@PBD1VidStr@@@Z 200223e0 f   Camera.obj
 0001:00021a60       ??0idDeclCameraDef@@QAE@XZ 20022a60 f   Camera.obj
 0001:00021ab0       ?CopyDecl@idDeclCameraDef@@AAEXPBV1@@Z 20022ab0 f   Camera.obj
 0001:00021c50       ??0idCameraAnim@@QAE@XZ    20022c50 f   Camera.obj
 0001:00021d00       ??1idCameraAnim@@UAE@XZ    20022d00 f   Camera.obj
 0001:00021df0       ?RegisterClassA@rvCameraPortalSky@@SAXXZ 20022df0 f   Camera.obj
 0001:00021e80       ?Register_rvCameraPortalSky@@YAXXZ 20022e80 f   Camera.obj
 0001:00021e90       ?RegisterClassA@rvCameraPlayback@@SAXXZ 20022e90 f   Camera.obj
 0001:00021f20       ?Register_rvCameraPlayback@@YAXXZ 20022f20 f   Camera.obj
 0001:00021f30       ?AddFrameCommand@rvCameraAnimation@@QAEPBDPBVidDeclCameraDef@@ABV?$idList@H@@AAVidLexer@@PBVidDict@@@Z 20022f30 f   Camera.obj
 0001:00023eb0       ?ParseAnim@idDeclCameraDef@@AAE_NAAVidLexer@@H@Z 20024eb0 f   Camera.obj
 0001:000246f0       ?Parse@idDeclCameraDef@@UAE_NPBDH_N@Z 200256f0 f   Camera.obj
 0001:00024b20       ?CreateInstance@idCameraAnim@@SAPAVidClass@@XZ 20025b20 f   Camera.obj
 0001:00024bc0       ?FreeData@idDeclCameraDef@@UAEXXZ 20025bc0 f   Camera.obj
 0001:00024c60       ?RegisterClassA@idCameraAnim@@SAXXZ 20025c60 f   Camera.obj
 0001:00024cf0       ?Register_idCameraAnim@@YAXXZ 20025cf0 f   Camera.obj
 0001:00024d00       ??1idDeclCameraDef@@UAE@XZ 20025d00 f   Camera.obj
 0001:00024d90       ??0?$idInterpolate@M@@QAE@XZ 20025d90 f i Camera.obj
 0001:00024dd0       ??1idDecl@@UAE@XZ          20025dd0 f i Camera.obj
 0001:00024de0       ?SetDefaultText@idDecl@@UAE_NXZ 20025de0 f i Camera.obj
 0001:00024df0       ?DefaultDefinition@idDecl@@UBEPBDXZ 20025df0 f i Camera.obj
 0001:00024e00       ?Parse@idDecl@@UAE_NPBDH_N@Z 20025e00 f i Camera.obj
 0001:00024e10       ?FreeData@idDecl@@UAEXXZ   20025e10 f i Camera.obj
 0001:00024e20       ?Size@idDecl@@UBEIXZ       20025e20 f i Camera.obj
 0001:00024e30       ?List@idDecl@@UBEXXZ       20025e30 f i Camera.obj
 0001:00024e40       ?Print@idDecl@@UBEXXZ      20025e40 f i Camera.obj
 0001:00024e50       ?RebuildTextSource@idDecl@@UAE_NXZ 20025e50 f i Camera.obj
 0001:00024e60       ?SetReferencedThisLevel@idDecl@@UAEXXZ 20025e60 f i Camera.obj
 0001:00024e70       ?Validate@idDecl@@UBE_NPBDHAAVidStr@@@Z 20025e70 f i Camera.obj
 0001:00024e80       ??1idTarget@@UAE@XZ        20025e80 f i Target.obj
 0001:00024e80       ??1idCamera@@UAE@XZ        20025e80 f i Camera.obj
 0001:00024e80       ??1idDamagable@@UAE@XZ     20025e80 f i Misc.obj
 0001:00024e90       ??_ErvCameraPlayback@@UAEPAXI@Z 20025e90 f i Camera.obj
 0001:00024e90       ??_GrvCameraPlayback@@UAEPAXI@Z 20025e90 f i Camera.obj
 0001:00024ec0       ??1?$idInterpolate@M@@UAE@XZ 20025ec0 f i Camera.obj
 0001:00024ed0       ??_E?$idInterpolate@M@@UAEPAXI@Z 20025ed0 f i Camera.obj
 0001:00024ed0       ??_G?$idInterpolate@M@@UAEPAXI@Z 20025ed0 f i Camera.obj
 0001:00024f20       ?GetCurrentValue@?$idInterpolate@M@@UBEMM@Z 20025f20 f i Camera.obj
 0001:00024fa0       ?GetDeltaValue@?$idInterpolate@M@@UBEMMM@Z 20025fa0 f i Camera.obj
 0001:00024fe0       ??_GidDecl@@UAEPAXI@Z      20025fe0 f i Camera.obj
 0001:00024fe0       ??_EidDecl@@UAEPAXI@Z      20025fe0 f i Camera.obj
 0001:00025030       ??_GrvCameraPortalSky@@UAEPAXI@Z 20026030 f i Camera.obj
 0001:00025030       ??_ErvCameraPortalSky@@UAEPAXI@Z 20026030 f i Camera.obj
 0001:00025060       ??_GidCameraView@@UAEPAXI@Z 20026060 f i Camera.obj
 0001:00025060       ??_EidCameraView@@UAEPAXI@Z 20026060 f i Camera.obj
 0001:00025090       ??_G?$idList@VidStr@@@@QAEPAXI@Z 20026090 f i Camera.obj
 0001:00025130       ??_EidCameraAnim@@UAEPAXI@Z 20026130 f i Camera.obj
 0001:00025130       ??_GidCameraAnim@@UAEPAXI@Z 20026130 f i Camera.obj
 0001:00025160       ??_GidDeclCameraDef@@UAEPAXI@Z 20026160 f i Camera.obj
 0001:00025160       ??_EidDeclCameraDef@@UAEPAXI@Z 20026160 f i Camera.obj
 0001:000251b0       ?GetClassType@rvClientAFEntity@@SAAAVidTypeInfo@@XZ 200261b0 f   ClientAFEntity.obj
 0001:000251c0       ?GetType@rvClientAFEntity@@UBEPAVidTypeInfo@@XZ 200261c0 f   ClientAFEntity.obj
 0001:000251d0       ?Think@rvClientAFEntity@@UAEXXZ 200261d0 f   ClientAFEntity.obj
 0001:00025200       ?BodyForClipModelId@rvClientAFEntity@@QBEHH@Z 20026200 f   ClientAFEntity.obj
 0001:00025210       ?LoadState@rvClientAFEntity@@QAEXABVidDict@@@Z 20026210 f   ClientAFEntity.obj
 0001:00025220       ?AddBindConstraints@rvClientAFEntity@@QAEXXZ 20026220 f   ClientAFEntity.obj
 0001:00025230       ?RemoveBindConstraints@rvClientAFEntity@@QAEXXZ 20026230 f   ClientAFEntity.obj
 0001:00025240       ?CanPlayImpactEffect@rvClientAFEntity@@UAE_NPAVidEntity@@0@Z 20026240 f   ClientAFEntity.obj
 0001:00025250       ?GetCombatModel@rvClientAFEntity@@QBEPAVidClipModel@@XZ 20026250 f   ClientAFEntity.obj
 0001:00025260       ?LinkCombat@rvClientAFEntity@@UAEXXZ 20026260 f   ClientAFEntity.obj
 0001:00025290       ?UnlinkCombat@rvClientAFEntity@@UAEXXZ 20026290 f   ClientAFEntity.obj
 0001:000252a0       ?FreeEntityDef@rvClientAFEntity@@UAEXXZ 200262a0 f   ClientAFEntity.obj
 0001:000252c0       ?GetNoPlayerImpactFX@rvClientAFEntity@@QAE_NXZ 200262c0 f   ClientAFEntity.obj
 0001:000252d0       ?GetClassType@rvClientAFAttachment@@SAAAVidTypeInfo@@XZ 200262d0 f   ClientAFEntity.obj
 0001:000252e0       ?GetType@rvClientAFAttachment@@UBEPAVidTypeInfo@@XZ 200262e0 f   ClientAFEntity.obj
 0001:000252f0       ?Spawn@rvClientAFAttachment@@QAEXXZ 200262f0 f   ClientAFEntity.obj
 0001:00025310       ?Hide@rvClientAFAttachment@@UAEXXZ 20026310 f   ClientAFEntity.obj
 0001:00025320       ?Show@rvClientAFAttachment@@UAEXXZ 20026320 f   ClientAFEntity.obj
 0001:00025330       ?CanPlayImpactEffect@rvClientAFAttachment@@UAE_NPAVidEntity@@0@Z 20026330 f   ClientAFEntity.obj
 0001:00025340       ?PlayIdleAnim@rvClientAFAttachment@@QAEXHH@Z 20026340 f   ClientAFEntity.obj
 0001:00025390       ?Think@rvClientAFAttachment@@UAEXXZ 20026390 f   ClientAFEntity.obj
 0001:000253a0       ?GetCombatModel@rvClientAFAttachment@@QBEPAVidClipModel@@XZ 200263a0 f   ClientAFEntity.obj
 0001:000253b0       ?LinkCombat@rvClientAFAttachment@@UAEXXZ 200263b0 f   ClientAFEntity.obj
 0001:000253e0       ?UnlinkCombat@rvClientAFAttachment@@UAEXXZ 200263e0 f   ClientAFEntity.obj
 0001:000253f0       ?SaveState@rvClientAFEntity@@QBEXAAVidDict@@@Z 200263f0 f   ClientAFEntity.obj
 0001:000254c0       ?GetImpactInfo@rvClientAFEntity@@UAEXPAVidEntity@@HABVidVec3@@PAUimpactInfo_s@@@Z 200264c0 f   ClientAFEntity.obj
 0001:000254e0       ?ApplyImpulse@rvClientAFEntity@@UAEXPAVidEntity@@HABVidVec3@@1_N@Z 200264e0 f   ClientAFEntity.obj
 0001:00025540       ?AddForce@rvClientAFEntity@@UAEXPAVidEntity@@HABVidVec3@@1@Z 20026540 f   ClientAFEntity.obj
 0001:000255a0       ?Collide@rvClientAFEntity@@UAE_NABUtrace_t@@ABVidVec3@@@Z 200265a0 f   ClientAFEntity.obj
 0001:00025670       ?GetPhysicsToVisualTransform@rvClientAFEntity@@UAE_NAAVidVec3@@AAVidMat3@@@Z 20026670 f   ClientAFEntity.obj
 0001:000256a0       ?UpdateAnimationControllers@rvClientAFEntity@@UAE_NXZ 200266a0 f   ClientAFEntity.obj
 0001:000256c0       ?SetCombatModel@rvClientAFEntity@@QAEXXZ 200266c0 f   ClientAFEntity.obj
 0001:00025770       ?SetCombatContents@rvClientAFEntity@@QAEX_N@Z 20026770 f   ClientAFEntity.obj
 0001:000257d0       ?ClearBody@rvClientAFAttachment@@QAEXXZ 200267d0 f   ClientAFEntity.obj
 0001:000257f0       ??0rvClientAFEntity@@QAE@XZ 200267f0 f   ClientAFEntity.obj
 0001:000258d0       ??1rvClientAFEntity@@UAE@XZ 200268d0 f   ClientAFEntity.obj
 0001:00025970       ?Spawn@rvClientAFEntity@@QAEXXZ 20026970 f   ClientAFEntity.obj
 0001:00025a10       ?CopyJointsFromBody@rvClientAFAttachment@@QAEXXZ 20026a10 f   ClientAFEntity.obj
 0001:00025d50       ?SetBody@rvClientAFAttachment@@QAEXPAVidAnimatedEntity@@PBDW4jointHandle_t@@@Z 20026d50 f   ClientAFEntity.obj
 0001:00025e10       ?GetBody@rvClientAFAttachment@@QBEPAVidEntity@@XZ 20026e10 f   ClientAFEntity.obj
 0001:00025e40       ?AddDamageEffect@rvClientAFAttachment@@UAEXABUtrace_t@@ABVidVec3@@PBDPAVidEntity@@@Z 20026e40 f   ClientAFEntity.obj
 0001:00025ed0       ?GetImpactInfo@rvClientAFAttachment@@UAEXPAVidEntity@@HABVidVec3@@PAUimpactInfo_s@@@Z 20026ed0 f   ClientAFEntity.obj
 0001:00025f40       ?ApplyImpulse@rvClientAFAttachment@@UAEXPAVidEntity@@HABVidVec3@@1_N@Z 20026f40 f   ClientAFEntity.obj
 0001:00025fc0       ?AddForce@rvClientAFAttachment@@UAEXPAVidEntity@@HABVidVec3@@1@Z 20026fc0 f   ClientAFEntity.obj
 0001:00026030       ?UpdateAnimationControllers@rvClientAFAttachment@@UAE_NXZ 20027030 f   ClientAFEntity.obj
 0001:00026040       ?SetCombatModel@rvClientAFAttachment@@QAEXXZ 20027040 f   ClientAFEntity.obj
 0001:00026130       ?CreateInstance@rvClientAFEntity@@SAPAVidClass@@XZ 20027130 f   ClientAFEntity.obj
 0001:000261d0       ?LoadAF@rvClientAFEntity@@UAE_NPBD@Z 200271d0 f   ClientAFEntity.obj
 0001:00026440       ??0rvClientAFAttachment@@QAE@XZ 20027440 f   ClientAFEntity.obj
 0001:000264c0       ??1rvClientAFAttachment@@UAE@XZ 200274c0 f   ClientAFEntity.obj
 0001:00026590       ?InitCopyJoints@rvClientAFAttachment@@QAEXXZ 20027590 f   ClientAFEntity.obj
 0001:00026980       ?RegisterClassA@rvClientAFEntity@@SAXXZ 20027980 f   ClientAFEntity.obj
 0001:00026a10       ?Register_rvClientAFEntity@@YAXXZ 20027a10 f   ClientAFEntity.obj
 0001:00026a20       ?CreateInstance@rvClientAFAttachment@@SAPAVidClass@@XZ 20027a20 f   ClientAFEntity.obj
 0001:00026ac0       ?RegisterClassA@rvClientAFAttachment@@SAXXZ 20027ac0 f   ClientAFEntity.obj
 0001:00026b50       ?Register_rvClientAFAttachment@@YAXXZ 20027b50 f   ClientAFEntity.obj
 0001:00026b60       ?GetRenderEntity@rvClientModel@@UAEPAUrenderEntity_s@@XZ 20027b60 f i ClientAFEntity.obj
 0001:00026b70       ?GetAnimator@rvAnimatedClientEntity@@UBEPBVidAnimator@@XZ 20027b70 f i ClientAFEntity.obj
 0001:00026b70       ?GetAnimator@rvAnimatedClientEntity@@UAEPAVidAnimator@@XZ 20027b70 f i ClientAFEntity.obj
 0001:00026b80       ??_GrvClientAFEntity@@UAEPAXI@Z 20027b80 f i ClientAFEntity.obj
 0001:00026b80       ??_ErvClientAFEntity@@UAEPAXI@Z 20027b80 f i ClientAFEntity.obj
 0001:00026bb0       ??_ErvClientAFAttachment@@UAEPAXI@Z 20027bb0 f i ClientAFEntity.obj
 0001:00026bb0       ??_GrvClientAFAttachment@@UAEPAXI@Z 20027bb0 f i ClientAFEntity.obj
 0001:00026be0       ?GetClassType@rvEffect@@SAAAVidTypeInfo@@XZ 20027be0 f   Effect.obj
 0001:00026bf0       ?GetType@rvEffect@@UBEPAVidTypeInfo@@XZ 20027bf0 f   Effect.obj
 0001:00026c00       ?Stop@rvEffect@@QAEX_N@Z   20027c00 f   Effect.obj
 0001:00026c20       ?ShowEditingDialog@rvEffect@@UAEXXZ 20027c20 f   Effect.obj
 0001:00026c40       ?ClientPredictionThink@rvEffect@@UAEXXZ 20027c40 f   Effect.obj
 0001:00026c70       ?Event_Stop@rvEffect@@AAEXXZ 20027c70 f   Effect.obj
 0001:00026c90       ?InstanceLeave@rvEffect@@UAEXXZ 20027c90 f   Effect.obj
 0001:00026cb0       ??0rvEffect@@QAE@XZ        20027cb0 f   Effect.obj
 0001:00026d00       ?Spawn@rvEffect@@QAEXXZ    20027d00 f   Effect.obj
 0001:00026f00       ?Think@rvEffect@@UAEXXZ    20027f00 f   Effect.obj
 0001:00026f80       ?Save@rvEffect@@QBEXPAVidSaveGame@@@Z 20027f80 f   Effect.obj
 0001:00026ff0       ?Restore@rvEffect@@QAEXPAVidRestoreGame@@@Z 20027ff0 f   Effect.obj
 0001:000270c0       ?Attenuate@rvEffect@@QAEXM@Z 200280c0 f   Effect.obj
 0001:00027130       ?WriteToSnapshot@rvEffect@@UBEXAAVidBitMsgDelta@@@Z 20028130 f   Effect.obj
 0001:000271f0       ?Event_Attenuate@rvEffect@@AAEXM@Z 200281f0 f   Effect.obj
 0001:00027210       ?Event_IsActive@rvEffect@@AAEXXZ 20028210 f   Effect.obj
 0001:00027250       ?CreateInstance@rvEffect@@SAPAVidClass@@XZ 20028250 f   Effect.obj
 0001:000272f0       ?Play@rvEffect@@QAE_NXZ    200282f0 f   Effect.obj
 0001:00027460       ?Restart@rvEffect@@QAEXXZ  20028460 f   Effect.obj
 0001:00027480       ?UpdateChangeableSpawnArgs@rvEffect@@UAEXPBVidDict@@@Z 20028480 f   Effect.obj
 0001:00027690       ?ReadFromSnapshot@rvEffect@@UAEXABVidBitMsgDelta@@@Z 20028690 f   Effect.obj
 0001:00027790       ?Event_Start@rvEffect@@AAEXXZ 20028790 f   Effect.obj
 0001:00027810       ?Event_Activate@rvEffect@@AAEXPAVidEntity@@@Z 20028810 f   Effect.obj
 0001:00027850       ?Event_LookAtTarget@rvEffect@@AAEXXZ 20028850 f   Effect.obj
 0001:00027aa0       ?InstanceJoin@rvEffect@@UAEXXZ 20028aa0 f   Effect.obj
 0001:00027ab0       ?RegisterClassA@rvEffect@@SAXXZ 20028ab0 f   Effect.obj
 0001:00027b40       ?Register_rvEffect@@YAXXZ  20028b40 f   Effect.obj
 0001:00027b50       ?Event_EarthQuake@rvEffect@@AAEXM@Z 20028b50 f   Effect.obj
 0001:00027c40       ?CreateInstance@idEntity@@SAPAVidClass@@XZ 20028c40 f   Entity.obj
 0001:00027c60       ?GetClassType@idEntity@@SAAAVidTypeInfo@@XZ 20028c60 f   Entity.obj
 0001:00027c70       ?GetType@idEntity@@UBEPAVidTypeInfo@@XZ 20028c70 f   Entity.obj
 0001:00027c80       ?DoDormantTests@idEntity@@MAE_NXZ 20028c80 f   Entity.obj
 0001:00027cd0       ?CheckDormant@idEntity@@QAE_NXZ 20028cd0 f   Entity.obj
 0001:00027d70       ?DormantBegin@idEntity@@UAEXXZ 20028d70 f   Entity.obj
 0001:00027d80       ?DormantEnd@idEntity@@UAEXXZ 20028d80 f   Entity.obj
 0001:00027d90       ?UpdateAnimationControllers@idEntity@@UAE_NXZ 20028d90 f   Entity.obj
 0001:00027da0       ?GetSkin@idEntity@@QBEPBVidDeclSkin@@XZ 20028da0 f   Entity.obj
 0001:00027db0       ?FreeLightDef@idEntity@@UAEXXZ 20028db0 f   Entity.obj
 0001:00027dc0       ?IsHidden@idEntity@@QBE_NXZ 20028dc0 f   Entity.obj
 0001:00027dd0       ?UpdateRenderEntityCallback@idEntity@@UAEXXZ 20028dd0 f   Entity.obj
 0001:00027de0       ?ClearPVSAreas@idEntity@@QAEXXZ 20028de0 f   Entity.obj
 0001:00027df0       ?UpdateRenderEntity@idEntity@@QAE_NPAUrenderEntity_s@@PBUrenderView_s@@@Z 20028df0 f   Entity.obj
 0001:00027e30       ?ModelCallback@idEntity@@SA_NPAUrenderEntity_s@@PBUrenderView_s@@@Z 20028e30 f   Entity.obj
 0001:00027e70       ?GetAnimator@idEntity@@UAEPAVidAnimator@@XZ 20028e70 f   Entity.obj
 0001:00027e80       ?CanPlayChatterSounds@idEntity@@UBE_NXZ 20028e80 f   Entity.obj
 0001:00027e90       ?SetSoundVolume@idEntity@@QAEXM@Z 20028e90 f   Entity.obj
 0001:00027ea0       ?GetListenerId@idEntity@@QBEHXZ 20028ea0 f   Entity.obj
 0001:00027eb0       ?GetSoundEmitter@idEntity@@QBEHXZ 20028eb0 f   Entity.obj
 0001:00027ec0       ?FreeSoundEmitter@idEntity@@QAEX_N@Z 20028ec0 f   Entity.obj
 0001:00027ef0       ?PreBind@idEntity@@UAEXXZ  20028ef0 f   Entity.obj
 0001:00027f00       ?PostBind@idEntity@@UAEXXZ 20028f00 f   Entity.obj
 0001:00027f10       ?PreUnbind@idEntity@@UAEXXZ 20028f10 f   Entity.obj
 0001:00027f20       ?PostUnbind@idEntity@@UAEXXZ 20028f20 f   Entity.obj
 0001:00027f30       ?GetBindJoint@idEntity@@QBE?AW4jointHandle_t@@XZ 20028f30 f   Entity.obj
 0001:00027f40       ?GetBindBody@idEntity@@QBEHXZ 20028f40 f   Entity.obj
 0001:00027f50       ?GetTeamMaster@idEntity@@QBEPAV1@XZ 20028f50 f   Entity.obj
 0001:00027f60       ?GetNextTeamEntity@idEntity@@QBEPAV1@XZ 20028f60 f   Entity.obj
 0001:00027f70       ?QuitTeam@idEntity@@IAEXXZ 20028f70 f   Entity.obj
 0001:00028000       ?RestorePhysics@idEntity@@QAEXPAVidPhysics@@@Z 20029000 f   Entity.obj
 0001:00028010       ?GetPhysicsToVisualTransform@idEntity@@UAE_NAAVidVec3@@AAVidMat3@@@Z 20029010 f   Entity.obj
 0001:00028020       ?Collide@idEntity@@UAE_NABUtrace_t@@ABVidVec3@@@Z 20029020 f   Entity.obj
 0001:00028030       ?DamageFeedback@idEntity@@UAEXPAV1@0AAH@Z 20029030 f   Entity.obj
 0001:00028040       ?SkipImpulse@idEntity@@UAE_NPAV1@H@Z 20029040 f   Entity.obj
 0001:00028050       ?Pain@idEntity@@UAE_NPAV1@0HABVidVec3@@H@Z 20029050 f   Entity.obj
 0001:00028060       ?Killed@idEntity@@UAEXPAV1@0HABVidVec3@@H@Z 20029060 f   Entity.obj
 0001:00028070       ?ShouldConstructScriptObjectAtSpawn@idEntity@@UBE_NXZ 20029070 f   Entity.obj
 0001:00028080       ?TriggerGuis@idEntity@@QAEXXZ 20029080 f   Entity.obj
 0001:000280c0       ?HandleSingleGuiCommand@idEntity@@UAE_NPAV1@PAVidLexer@@@Z 200290c0 f   Entity.obj
 0001:000280d0       ?Event_GetLastBlocker@idEntity@@IAEXPAVidThread@@@Z 200290d0 f   Entity.obj
 0001:00028110       ?ShowSurface@idEntity@@QAEXPBD@Z 20029110 f   Entity.obj
 0001:00028150       ?Event_ShowSurface@idEntity@@IAEXPBD@Z 20029150 f   Entity.obj
 0001:00028160       ?HideSurface@idEntity@@QAEXPBD@Z 20029160 f   Entity.obj
 0001:000281a0       ?Event_HideSurface@idEntity@@IAEXPBD@Z 200291a0 f   Entity.obj
 0001:000281b0       ?Event_GuiEvent@idEntity@@IAEXPBD@Z 200291b0 f   Entity.obj
 0001:000281d0       ?Event_GetHealth@idEntity@@IAEXXZ 200291d0 f   Entity.obj
 0001:000281f0       ?Event_PlaybackCallback@idEntity@@IAEXHHH@Z 200291f0 f   Entity.obj
 0001:00028220       ?Event_ApplyImpulse@idEntity@@IAEXPAV1@ABVidVec3@@1@Z 20029220 f   Entity.obj
 0001:00028250       ?ShowEditingDialog@idEntity@@UAEXXZ 20029250 f   Entity.obj
 0001:00028260       ?Event_FindTargets@idEntity@@IAEXXZ 20029260 f   Entity.obj
 0001:00028270       ?Event_ActivateTargets@idEntity@@IAEXPAV1@@Z 20029270 f   Entity.obj
 0001:00028280       ?Event_RemoveNullTargets@idEntity@@IAEXXZ 20029280 f   Entity.obj
 0001:00028290       ?Event_SetHealth@idEntity@@IAEXM@Z 20029290 f   Entity.obj
 0001:000282b0       ?Event_SetModel@idEntity@@IAEXPBD@Z 200292b0 f   Entity.obj
 0001:000282c0       ?Event_GetShaderParm@idEntity@@IAEXH@Z 200292c0 f   Entity.obj
 0001:00028300       ?Event_SetColor@idEntity@@IAEXMMM@Z 20029300 f   Entity.obj
 0001:00028330       ?Event_GetColor@idEntity@@IAEXXZ 20029330 f   Entity.obj
 0001:00028360       ?Event_IsHidden@idEntity@@IAEXXZ 20029360 f   Entity.obj
 0001:00028380       ?Event_Hide@idEntity@@IAEXXZ 20029380 f   Entity.obj
 0001:00028390       ?Event_Show@idEntity@@IAEXXZ 20029390 f   Entity.obj
 0001:000283a0       ?Event_CacheSoundShader@idEntity@@IAEXPBD@Z 200293a0 f   Entity.obj
 0001:000283c0       ?Event_FadeSound@idEntity@@IAEXHMM@Z 200293c0 f   Entity.obj
 0001:00028400       ?Event_SetGuiFloat@idEntity@@IAEXPBDM@Z 20029400 f   Entity.obj
 0001:00028470       ?Event_SetKey@idEntity@@IAEXPBD0@Z 20029470 f   Entity.obj
 0001:00028480       ?Event_GetIntKey@idEntity@@IAEXPBD@Z 20029480 f   Entity.obj
 0001:000284b0       ?Event_GetFloatKey@idEntity@@IAEXPBD@Z 200294b0 f   Entity.obj
 0001:000284e0       ?Event_GetVectorKey@idEntity@@IAEXPBD@Z 200294e0 f   Entity.obj
 0001:00028510       ?Event_StartFx@idEntity@@IAEXPBD@Z 20029510 f   Entity.obj
 0001:00028520       ?Event_WaitFrame@idEntity@@IAEXXZ 20029520 f   Entity.obj
 0001:00028540       ?Event_Wait@idEntity@@IAEXM@Z 20029540 f   Entity.obj
 0001:00028580       ?Event_HasFunction@idEntity@@IAEXPBD@Z 20029580 f   Entity.obj
 0001:000285c0       ?Event_CallFunction@idEntity@@IAEXPBD@Z 200295c0 f   Entity.obj
 0001:00028600       ?Event_SetNeverDormant@idEntity@@IAEXH@Z 20029600 f   Entity.obj
 0001:00028630       ?WriteToSnapshot@idEntity@@UBEXAAVidBitMsgDelta@@@Z 20029630 f   Entity.obj
 0001:00028640       ?ReadFromSnapshot@idEntity@@UAEXABVidBitMsgDelta@@@Z 20029640 f   Entity.obj
 0001:00028650       ?ServerReceiveEvent@idEntity@@UAE_NHHABVidBitMsg@@@Z 20029650 f   Entity.obj
 0001:00028660       ?ClientUnstale@idEntity@@UAEXXZ 20029660 f   Entity.obj
 0001:00028670       ?SetInstance@idEntity@@UAEXH@Z 20029670 f   Entity.obj
 0001:000286a0       ?Size@idEntity@@UBEIXZ     200296a0 f   Entity.obj
 0001:000286b0       ?GetClassType@idAnimatedEntity@@SAAAVidTypeInfo@@XZ 200296b0 f   Entity.obj
 0001:000286c0       ?GetType@idAnimatedEntity@@UBEPAVidTypeInfo@@XZ 200296c0 f   Entity.obj
 0001:000286d0       ?Save@idAnimatedEntity@@QBEXPAVidSaveGame@@@Z 200296d0 f   Entity.obj
 0001:000286e0       ?Restore@idAnimatedEntity@@QAEXPAVidRestoreGame@@@Z 200296e0 f   Entity.obj
 0001:00028770       ?GetAnimator@idAnimatedEntity@@UAEPAVidAnimator@@XZ 20029770 f   Entity.obj
 0001:00028780       ?GetDefaultSurfaceType@idAnimatedEntity@@UBEHXZ 20029780 f   Entity.obj
 0001:00028790       ?UpdateRenderEntityCallback@idAnimatedEntity@@UAEXXZ 20029790 f   Entity.obj
 0001:000287c0       ?Event_GetJointHandle@idAnimatedEntity@@AAEXPBD@Z 200297c0 f   Entity.obj
 0001:000287e0       ?Event_ClearAllJoints@idAnimatedEntity@@AAEXXZ 200297e0 f   Entity.obj
 0001:000287f0       ?Event_ClearJoint@idAnimatedEntity@@AAEXW4jointHandle_t@@@Z 200297f0 f   Entity.obj
 0001:00028800       ?Event_SetJointPos@idAnimatedEntity@@AAEXW4jointHandle_t@@W4jointModTransform_t@@ABVidVec3@@@Z 20029800 f   Entity.obj
 0001:00028810       ?Event_SetJointAngle@idAnimatedEntity@@AAEXW4jointHandle_t@@W4jointModTransform_t@@ABVidAngles@@@Z 20029810 f   Entity.obj
 0001:00028880       ?Event_CollapseJoints@idAnimatedEntity@@AAEXPBD0@Z 20029880 f   Entity.obj
 0001:000288b0       ?UpdateGuiParms@@YAXPAVidUserInterface@@PBVidDict@@@Z 200298b0 f   Entity.obj
 0001:00028980       ?AddRenderGui@@YAXPBDPAPAVidUserInterface@@PBVidDict@@@Z 20029980 f   Entity.obj
 0001:00028a00       ?ParseSpawnArgsToRefSound@idGameEdit@@UAEXPBVidDict@@PAUrefSound_t@@@Z 20029a00 f   Entity.obj
 0001:00028da0       ?UpdateChangeableSpawnArgs@idEntity@@UAEXPBVidDict@@@Z 20029da0 f   Entity.obj
 0001:00028e20       ?Save@idEntity@@QBEXPAVidSaveGame@@@Z 20029e20 f   Entity.obj
 0001:00029100       ?GetEntityDefName@idEntity@@QBEPBDXZ 2002a100 f   Entity.obj
 0001:00029130       ?SetName@idEntity@@QAEXPBD@Z 2002a130 f   Entity.obj
 0001:000291e0       ?GetName@idEntity@@QBEPBDXZ 2002a1e0 f   Entity.obj
 0001:000291f0       ?IsActive@idEntity@@QBE_NXZ 2002a1f0 f   Entity.obj
 0001:00029200       ?BecomeInactive@idEntity@@QAEXH@Z 2002a200 f   Entity.obj
 0001:000292e0       ?GetColor@idEntity@@UBEXAAVidVec3@@@Z 2002a2e0 f   Entity.obj
 0001:00029310       ?GetColor@idEntity@@UBEXAAVidVec4@@@Z 2002a310 f   Entity.obj
 0001:00029340       ?FreeModelDef@idEntity@@UAEXXZ 2002a340 f   Entity.obj
 0001:000293a0       ?UpdateModelTransform@idEntity@@UAEXXZ 2002a3a0 f   Entity.obj
 0001:00029650       ?UpdatePVSAreas@idEntity@@IAEXXZ 2002a650 f   Entity.obj
 0001:00029790       ?UpdatePVSAreas@idEntity@@QAEXABVidVec3@@@Z 2002a790 f   Entity.obj
 0001:00029800       ?GetNumPVSAreas@idEntity@@QAEHXZ 2002a800 f   Entity.obj
 0001:00029820       ?GetPVSAreas@idEntity@@QAEPBHXZ 2002a820 f   Entity.obj
 0001:00029840       ?PhysicsTeamInPVS@idEntity@@QAE_NUpvsHandle_s@@@Z 2002a840 f   Entity.obj
 0001:000298c0       ?Present@idEntity@@UAEXXZ  2002a8c0 f   Entity.obj
 0001:000299d0       ?GetRenderView@idEntity@@UAEPAUrenderView_s@@XZ 2002a9d0 f   Entity.obj
 0001:00029b60       ?StopAllEffects@idEntity@@QAEX_N@Z 2002ab60 f   Entity.obj
 0001:00029bd0       ?StopEffect@idEntity@@QAEXPBVidDecl@@_N@Z 2002abd0 f   Entity.obj
 0001:00029c60       ?StopEffect@idEntity@@QAEXPBD_N@Z 2002ac60 f   Entity.obj
 0001:00029c90       ?UpdateSound@idEntity@@QAEXXZ 2002ac90 f   Entity.obj
 0001:00029de0       ?IsBound@idEntity@@QBE_NXZ 2002ade0 f   Entity.obj
 0001:00029e10       ?IsBoundTo@idEntity@@QBE_NPBV1@@Z 2002ae10 f   Entity.obj
 0001:00029e90       ?GetBindMaster@idEntity@@QBEPAV1@XZ 2002ae90 f   Entity.obj
 0001:00029ec0       ?ConvertLocalToWorldTransform@idEntity@@UAEXAAVidVec3@@AAVidMat3@@@Z 2002aec0 f   Entity.obj
 0001:0002a0e0       ?GetLocalVector@idEntity@@QBE?AVidVec3@@ABV2@@Z 2002b0e0 f   Entity.obj
 0001:0002a1a0       ?GetLocalCoordinates@idEntity@@QBE?AVidVec3@@ABV2@@Z 2002b1a0 f   Entity.obj
 0001:0002a290       ?DistanceTo2d@idEntity@@QBEMABVidVec3@@@Z 2002b290 f   Entity.obj
 0001:0002a440       ?GetLocalAngles@idEntity@@UAEXAAVidAngles@@@Z 2002b440 f   Entity.obj
 0001:0002a4b0       ?GetWorldVector@idEntity@@QBE?AVidVec3@@ABV2@@Z 2002b4b0 f   Entity.obj
 0001:0002a5e0       ?GetWorldCoordinates@idEntity@@QBE?AVidVec3@@ABV2@@Z 2002b5e0 f   Entity.obj
 0001:0002a710       ?GetPosition@idEntity@@UBEXAAVidVec3@@AAVidMat3@@@Z 2002b710 f   Entity.obj
 0001:0002a790       ?JoinTeam@idEntity@@QAEXPAV1@@Z 2002b790 f   Entity.obj
 0001:0002a8d0       ?SetPhysics@idEntity@@QAEXPAVidPhysics@@@Z 2002b8d0 f   Entity.obj
 0001:0002a990       ?GetFloorPos@idEntity@@QBE_NMAAVidVec3@@@Z 2002b990 f   Entity.obj
 0001:0002aaa0       ?GetImpactInfo@idEntity@@UAEXPAV1@HABVidVec3@@PAUimpactInfo_s@@@Z 2002baa0 f   Entity.obj
 0001:0002aac0       ?ApplyImpulse@idEntity@@UAEXPAV1@HABVidVec3@@1_N@Z 2002bac0 f   Entity.obj
 0001:0002ab00       ?AddForce@idEntity@@UAEXPAV1@HABVidVec3@@1@Z 2002bb00 f   Entity.obj
 0001:0002ab20       ?ActivatePhysics@idEntity@@UAEXPAV1@@Z 2002bb20 f   Entity.obj
 0001:0002ab30       ?IsAtRest@idEntity@@UBE_NXZ 2002bb30 f   Entity.obj
 0001:0002ab40       ?GetRestStartTime@idEntity@@UBEHXZ 2002bb40 f   Entity.obj
 0001:0002ab50       ?AddContactEntity@idEntity@@UAEXPAV1@@Z 2002bb50 f   Entity.obj
 0001:0002ab70       ?RemoveContactEntity@idEntity@@UAEXPAV1@@Z 2002bb70 f   Entity.obj
 0001:0002ab90       ?CanDamage@idEntity@@UBE_NABVidVec3@@AAV2@PAV1@@Z 2002bb90 f   Entity.obj
 0001:0002aed0       ?ApplyImpulse@idEntity@@UAEXPAV1@HABVidVec3@@1PBVidDict@@@Z 2002bed0 f   Entity.obj
 0001:0002af50       ?CanPlayImpactEffect@idEntity@@UAE_NPAV1@0@Z 2002bf50 f   Entity.obj
 0001:0002b0a0       ?ConstructScriptObject@idEntity@@UAEPAVidThread@@XZ 2002c0a0 f   Entity.obj
 0001:0002b150       ?DeconstructScriptObject@idEntity@@UAEXXZ 2002c150 f   Entity.obj
 0001:0002b200       ?HasSignal@idEntity@@QBE_NW4signalNum_t@@@Z 2002c200 f   Entity.obj
 0001:0002b230       ?ClearSignalThread@idEntity@@QAEXW4signalNum_t@@PAVidThread@@@Z 2002c230 f   Entity.obj
 0001:0002b2d0       ?FindTargets@idEntity@@UAEXXZ 2002c2d0 f   Entity.obj
 0001:0002b350       ?Event_SetContents@idEntity@@IAEXH@Z 2002c350 f   Entity.obj
 0001:0002b370       ?Event_StopAllEffects@idEntity@@IAEXXZ 2002c370 f   Entity.obj
 0001:0002b380       ?Event_GetBindMaster@idEntity@@IAEXXZ 2002c380 f   Entity.obj
 0001:0002b390       ?Event_StopEffect@idEntity@@IAEXPBD@Z 2002c390 f   Entity.obj
 0001:0002b3b0       ?Event_GetName@idEntity@@IAEXXZ 2002c3b0 f   Entity.obj
 0001:0002b3c0       ?Event_SetName@idEntity@@IAEXPBD@Z 2002c3c0 f   Entity.obj
 0001:0002b3d0       ?Event_NumTargets@idEntity@@IAEXXZ 2002c3d0 f   Entity.obj
 0001:0002b3f0       ?Event_GetTarget@idEntity@@IAEXM@Z 2002c3f0 f   Entity.obj
 0001:0002b460       ?Event_RandomTarget@idEntity@@IAEXPBD@Z 2002c460 f   Entity.obj
 0001:0002b590       ?Event_MatchPrefix@idEntity@@IAEXPBD0@Z 2002c590 f   Entity.obj
 0001:0002b5f0       ?Event_IsA@idEntity@@IAEXPBD@Z 2002c5f0 f   Entity.obj
 0001:0002b6a0       ?Event_SetOwner@idEntity@@IAEXPAV1@@Z 2002c6a0 f   Entity.obj
 0001:0002b6f0       ?Event_GetWorldOrigin@idEntity@@IAEXXZ 2002c6f0 f   Entity.obj
 0001:0002b710       ?Event_GetOrigin@idEntity@@IAEXXZ 2002c710 f   Entity.obj
 0001:0002b750       ?Event_GetAngles@idEntity@@IAEXXZ 2002c750 f   Entity.obj
 0001:0002b7a0       ?Event_SetLinearVelocity@idEntity@@IAEXABVidVec3@@@Z 2002c7a0 f   Entity.obj
 0001:0002b7c0       ?Event_GetLinearVelocity@idEntity@@IAEXXZ 2002c7c0 f   Entity.obj
 0001:0002b7e0       ?Event_SetAngularVelocity@idEntity@@IAEXABVidVec3@@@Z 2002c7e0 f   Entity.obj
 0001:0002b800       ?Event_GetAngularVelocity@idEntity@@IAEXXZ 2002c800 f   Entity.obj
 0001:0002b820       ?Event_SetSize@idEntity@@IAEXABVidVec3@@0@Z 2002c820 f   Entity.obj
 0001:0002b870       ?Event_GetSize@idEntity@@IAEXXZ 2002c870 f   Entity.obj
 0001:0002b8e0       ?Event_GetMins@idEntity@@IAEXXZ 2002c8e0 f   Entity.obj
 0001:0002b900       ?Event_GetMaxs@idEntity@@IAEXXZ 2002c900 f   Entity.obj
 0001:0002b920       ?Event_Touches@idEntity@@IAEXPAV1@@Z 2002c920 f   Entity.obj
 0001:0002b9e0       ?Event_SetGuiParm@idEntity@@IAEXPBD0@Z 2002c9e0 f   Entity.obj
 0001:0002bb60       ?Event_GetNextKey@idEntity@@IAEXPBD0@Z 2002cb60 f   Entity.obj
 0001:0002bbb0       ?Event_GetKey@idEntity@@IAEXPBD@Z 2002cbb0 f   Entity.obj
 0001:0002bbf0       ?Event_GetEntityKey@idEntity@@IAEXPBD@Z 2002cbf0 f   Entity.obj
 0001:0002bc60       ?Event_RestorePosition@idEntity@@IAEXXZ 2002cc60 f   Entity.obj
 0001:0002bdf0       ?Event_DistanceTo@idEntity@@IAEXPAV1@@Z 2002cdf0 f   Entity.obj
 0001:0002bed0       ?Event_DistanceToPoint@idEntity@@IAEXABVidVec3@@@Z 2002ced0 f   Entity.obj
 0001:0002bf80       ?WriteColorToSnapshot@idEntity@@QBEXAAVidBitMsgDelta@@@Z 2002cf80 f   Entity.obj
 0001:0002bfd0       ?ReadColorFromSnapshot@idEntity@@QAEXABVidBitMsgDelta@@@Z 2002cfd0 f   Entity.obj
 0001:0002c020       ?WriteGUIToSnapshot@idEntity@@QBEXAAVidBitMsgDelta@@@Z 2002d020 f   Entity.obj
 0001:0002c0a0       ?ReadGUIFromSnapshot@idEntity@@QAEXABVidBitMsgDelta@@@Z 2002d0a0 f   Entity.obj
 0001:0002c0f0       ?ServerSendEvent@idEntity@@QBEXHPBVidBitMsg@@_NH@Z 2002d0f0 f   Entity.obj
 0001:0002c220       ?ServerSendInstanceEvent@idEntity@@QBEXHPBVidBitMsg@@_NH@Z 2002d220 f   Entity.obj
 0001:0002c350       ?ClientSendEvent@idEntity@@QBEXHPBVidBitMsg@@@Z 2002d350 f   Entity.obj
 0001:0002c460       ?GetDamageEntity@idEntity@@UAEPAV1@XZ 2002d460 f   Entity.obj
 0001:0002c490       ?DrawDebugEntityInfo@idEntity@@UAEXPAVidBounds@@0PAVidVec4@@@Z 2002d490 f   Entity.obj
 0001:0002cb80       ?InstanceLeave@idEntity@@UAEXXZ 2002db80 f   Entity.obj
 0001:0002cba0       ?GetJointWorldTransform@idAnimatedEntity@@QAE_NW4jointHandle_t@@HAAVidVec3@@AAVidMat3@@@Z 2002dba0 f   Entity.obj
 0001:0002cc80       ?GetJointTransformForAnim@idAnimatedEntity@@QBE_NW4jointHandle_t@@HHAAVidVec3@@AAVidMat3@@@Z 2002dc80 f   Entity.obj
 0001:0002ceb0       ?AddDamageEffect@idAnimatedEntity@@UAEXABUtrace_t@@ABVidVec3@@PBDPAVidEntity@@@Z 2002deb0 f   Entity.obj
 0001:0002d320       ?Event_ClearAnims@idAnimatedEntity@@IAEXXZ 2002e320 f   Entity.obj
 0001:0002d340       ?Event_GetJointPos@idAnimatedEntity@@AAEXW4jointHandle_t@@@Z 2002e340 f   Entity.obj
 0001:0002d3a0       ?Event_GetJointAngle@idAnimatedEntity@@AAEXW4jointHandle_t@@@Z 2002e3a0 f   Entity.obj
 0001:0002d420       ?Event_SetJointAngularVelocity@idAnimatedEntity@@AAEXPBDMMMH@Z 2002e420 f   Entity.obj
 0001:0002d470       ?ParseSpawnArgsToRenderEntity@idGameEdit@@UAEXPBVidDict@@PAUrenderEntity_s@@@Z 2002e470 f   Entity.obj
 0001:0002da10       ?BecomeActive@idEntity@@QAEXH@Z 2002ea10 f   Entity.obj
 0001:0002db00       ?UpdateModel@idEntity@@QAEXXZ 2002eb00 f   Entity.obj
 0001:0002db30       ?UpdateVisuals@idEntity@@QAEXXZ 2002eb30 f   Entity.obj
 0001:0002db40       ?ProjectOverlay@idEntity@@UAEXABVidVec3@@0MPBD@Z 2002eb40 f   Entity.obj
 0001:0002e0a0       ?PlayEffect@idEntity@@QAEPAVrvClientEffect@@PBVidDecl@@W4jointHandle_t@@ABVidVec3@@ABVidMat3@@_N24W4effectCategory_t@@ABVidVec4@@@Z 2002f0a0 f   Entity.obj
 0001:0002e3f0       ?PlayEffect@idEntity@@QAEPAVrvClientEffect@@PBVidDecl@@ABVidVec3@@ABVidMat3@@_N13W4effectCategory_t@@ABVidVec4@@@Z 2002f3f0 f   Entity.obj
 0001:0002ea30       ?StartSoundShader@idEntity@@QAE_NPBVidSoundShader@@HH_NPAH@Z 2002fa30 f   Entity.obj
 0001:0002ec80       ?StopSound@idEntity@@QAEXH_N@Z 2002fc80 f   Entity.obj
 0001:0002ed60       ?RemoveClientEntities@idEntity@@IAEXXZ 2002fd60 f   Entity.obj
 0001:0002edb0       ?FinishBind@idEntity@@IAEXXZ 2002fdb0 f   Entity.obj
 0001:0002ee90       ?Unbind@idEntity@@QAEXXZ   2002fe90 f   Entity.obj
 0001:0002f020       ?RemoveBinds@idEntity@@IAEXXZ 20030020 f   Entity.obj
 0001:0002f090       ?GetMasterPosition@idEntity@@UBE_NAAVidVec3@@AAVidMat3@@@Z 20030090 f   Entity.obj
 0001:0002f5d0       ?GetWorldVelocities@idEntity@@QBEXAAVidVec3@@0@Z 200305d0 f   Entity.obj
 0001:0002f7a0       ?InitDefaultPhysics@idEntity@@IAEXABVidVec3@@ABVidMat3@@@Z 200307a0 f   Entity.obj
 0001:0002fca0       ?UpdateFromPhysics@idEntity@@IAEX_N@Z 20030ca0 f   Entity.obj
 0001:0002fd30       ?SetOrigin@idEntity@@QAEXABVidVec3@@@Z 20030d30 f   Entity.obj
 0001:0002fd60       ?SetAxis@idEntity@@QAEXABVidMat3@@@Z 20030d60 f   Entity.obj
 0001:0002fe10       ?SetAngles@idEntity@@QAEXABVidAngles@@@Z 20030e10 f   Entity.obj
 0001:0002fe40       ?GetPhysicsToSoundTransform@idEntity@@UAE_NAAVidVec3@@AAVidMat3@@@Z 20030e40 f   Entity.obj
 0001:0002ff10       ?Damage@idEntity@@UAEXPAV1@0ABVidVec3@@PBDMH@Z 20030f10 f   Entity.obj
 0001:00030050       ?AddDamageEffect@idEntity@@UAEXABUtrace_t@@ABVidVec3@@PBDPAV1@@Z 20031050 f   Entity.obj
 0001:00030220       ?ClearSignal@idEntity@@QAEXPAVidThread@@W4signalNum_t@@@Z 20031220 f   Entity.obj
 0001:000302a0       ?Signal@idEntity@@QAEXW4signalNum_t@@@Z 200312a0 f   Entity.obj
 0001:00030360       ?SignalEvent@idEntity@@QAEXPAVidThread@@W4signalNum_t@@@Z 20031360 f   Entity.obj
 0001:000303a0       ?ActivateTargets@idEntity@@UBEXPAV1@@Z 200313a0 f   Entity.obj
 0001:00030480       ?UnbindTargets@idEntity@@QBEXPAV1@@Z 20031480 f   Entity.obj
 0001:000304d0       ?Teleport@idEntity@@UAEXABVidVec3@@ABVidAngles@@PAV1@@Z 200314d0 f   Entity.obj
 0001:00030530       ?TouchTriggers@idEntity@@QBE_NPBVidTypeInfo@@@Z 20031530 f   Entity.obj
 0001:00030740       ?Event_UnbindTargets@idEntity@@IAEXPAV1@@Z 20031740 f   Entity.obj
 0001:00030750       ?Event_IsSameTypeAs@idEntity@@IAEXPBV1@@Z 20031750 f   Entity.obj
 0001:000307a0       ?Event_RemoveBinds@idEntity@@IAEXXZ 200317a0 f   Entity.obj
 0001:000307b0       ?Event_Unbind@idEntity@@IAEXXZ 200317b0 f   Entity.obj
 0001:000307c0       ?Event_SetSkin@idEntity@@IAEXPBD@Z 200317c0 f   Entity.obj
 0001:000307f0       ?Event_SetShaderParms@idEntity@@IAEXMMMM@Z 200317f0 f   Entity.obj
 0001:00030820       ?Event_StartSoundShader@idEntity@@IAEXPBDH@Z 20031820 f   Entity.obj
 0001:00030870       ?Event_StopSound@idEntity@@IAEXHH@Z 20031870 f   Entity.obj
 0001:00030890       ?Event_SetWorldOrigin@idEntity@@IAEXABVidVec3@@@Z 20031890 f   Entity.obj
 0001:000308c0       ?Event_SetOrigin@idEntity@@IAEXABVidVec3@@@Z 200318c0 f   Entity.obj
 0001:000308d0       ?Event_SetAngles@idEntity@@IAEXABVidAngles@@@Z 200318d0 f   Entity.obj
 0001:000308e0       ?Event_UpdateCameraTarget@idEntity@@IAEXXZ 200318e0 f   Entity.obj
 0001:00030a70       ?WriteBindToSnapshot@idEntity@@QBEXAAVidBitMsgDelta@@@Z 20031a70 f   Entity.obj
 0001:00030b20       ?ClientReceiveEvent@idEntity@@UAE_NHHABVidBitMsg@@@Z 20031b20 f   Entity.obj
 0001:00030ff0       ?ClientStale@idEntity@@UAE_NXZ 20031ff0 f   Entity.obj
 0001:00031020       ?InstanceJoin@idEntity@@UAEXXZ 20032020 f   Entity.obj
 0001:00031040       ?GetDebugInfo@idEntity@@UAEXP6AXPBD00PAX@Z1@Z 20032040 f   Entity.obj
 0001:00031320       ?UpdateAnimation@idAnimatedEntity@@QAEXXZ 20032320 f   Entity.obj
 0001:00031400       ?ClientReceiveEvent@idAnimatedEntity@@UAE_NHHABVidBitMsg@@@Z 20032400 f   Entity.obj
 0001:000315e0       ??0idEntity@@QAE@XZ        200325e0 f   Entity.obj
 0001:00031950       ?Spawn@idEntity@@QAEXXZ    20032950 f   Entity.obj
 0001:00031f30       ?SetShaderParm@idEntity@@QAEXHM@Z 20032f30 f   Entity.obj
 0001:00031f70       ?SetColor@idEntity@@UAEXMMM@Z 20032f70 f   Entity.obj
 0001:00031fa0       ?SetColor@idEntity@@UAEXABVidVec3@@@Z 20032fa0 f   Entity.obj
 0001:00031fe0       ?SetColor@idEntity@@UAEXABVidVec4@@@Z 20032fe0 f   Entity.obj
 0001:00032020       ?SetModel@idEntity@@UAEXPBD@Z 20033020 f   Entity.obj
 0001:00032100       ?SetSkin@idEntity@@QAEXPBVidDeclSkin@@@Z 20033100 f   Entity.obj
 0001:00032120       ?ClearSkin@idEntity@@QAEXXZ 20033120 f   Entity.obj
 0001:00032180       ?Hide@idEntity@@UAEXXZ     20033180 f   Entity.obj
 0001:000321b0       ?Show@idEntity@@UAEXXZ     200331b0 f   Entity.obj
 0001:000321d0       ?StartSound@idEntity@@QAE_NPBDHH_NPAH@Z 200331d0 f   Entity.obj
 0001:00032360       ?InitBind@idEntity@@IAE_NPAV1@@Z 20033360 f   Entity.obj
 0001:000323e0       ?Bind@idEntity@@QAEXPAV1@_N@Z 200333e0 f   Entity.obj
 0001:00032460       ?BindToJoint@idEntity@@QAEXPAV1@PBD_N@Z 20033460 f   Entity.obj
 0001:00032540       ?BindToJoint@idEntity@@QAEXPAV1@W4jointHandle_t@@_N@Z 20033540 f   Entity.obj
 0001:000325d0       ?BindToBody@idEntity@@QAEXPAV1@H_N@Z 200335d0 f   Entity.obj
 0001:00032680       ?RunPhysics@idEntity@@QAE_NXZ 20033680 f   Entity.obj
 0001:00032990       ?RemoveNullTargets@idEntity@@UAEXXZ 20033990 f   Entity.obj
 0001:00032a50       ?AppendTarget@idEntity@@QAEHPAV1@@Z 20033a50 f   Entity.obj
 0001:00032d80       ?RemoveTarget@idEntity@@QAEXPAV1@@Z 20033d80 f   Entity.obj
 0001:00032eb0       ?Event_ClearSkin@idEntity@@IAEXXZ 20033eb0 f   Entity.obj
 0001:00032ec0       ?Event_PlayEffect@idEntity@@IAEXPBD0_N@Z 20033ec0 f   Entity.obj
 0001:00032f70       ?Event_AppendTarget@idEntity@@IAEXPAV1@@Z 20033f70 f   Entity.obj
 0001:00032fa0       ?Event_RemoveTarget@idEntity@@IAEXPAV1@@Z 20033fa0 f   Entity.obj
 0001:00032fb0       ?Event_BindToJoint@idEntity@@IAEXPAV1@PBDM@Z 20033fb0 f   Entity.obj
 0001:00032ff0       ?Event_Bind@idEntity@@IAEXPAV1@@Z 20033ff0 f   Entity.obj
 0001:00033010       ?Event_BindPosition@idEntity@@IAEXPAV1@@Z 20034010 f   Entity.obj
 0001:00033030       ?Event_SpawnBind@idEntity@@IAEXXZ 20034030 f   Entity.obj
 0001:000332b0       ?Event_SetShaderParm@idEntity@@IAEXHM@Z 200342b0 f   Entity.obj
 0001:000332d0       ?Event_StartSound@idEntity@@IAEXPBDHH@Z 200342d0 f   Entity.obj
 0001:00033310       ?ClientPredictionThink@idEntity@@UAEXXZ 20034310 f   Entity.obj
 0001:00033330       ?ReadBindFromSnapshot@idEntity@@QAEXABVidBitMsgDelta@@@Z 20034330 f   Entity.obj
 0001:000333e0       ?ClientPredictionThink@idAnimatedEntity@@UAEXXZ 200343e0 f   Entity.obj
 0001:00033400       ?Think@idAnimatedEntity@@UAEXXZ 20034400 f   Entity.obj
 0001:00033420       ?SetModel@idAnimatedEntity@@UAEXPBD@Z 20034420 f   Entity.obj
 0001:000334d0       ?Think@idEntity@@UAEXXZ    200344d0 f   Entity.obj
 0001:000334f0       ?SetSignal@idEntity@@QAEXW4signalNum_t@@PAVidThread@@PBVfunction_t@@@Z 200344f0 f   Entity.obj
 0001:000337b0       ?HandleGuiCommands@idEntity@@QAE_NPAV1@PBD@Z 200347b0 f   Entity.obj
 0001:00033fa0       ?RemoveTargets@idEntity@@QAEX_N@Z 20034fa0 f   Entity.obj
 0001:00034110       ?Event_ClearTargetList@idEntity@@IAEXM@Z 20035110 f   Entity.obj
 0001:00034140       ??1idEntity@@UAE@XZ        20035140 f   Entity.obj
 0001:00034380       ?Restore@idEntity@@QAEXPAVidRestoreGame@@@Z 20035380 f   Entity.obj
 0001:00034a70       ??0idAnimatedEntity@@QAE@XZ 20035a70 f   Entity.obj
 0001:00034ae0       ??1idAnimatedEntity@@UAE@XZ 20035ae0 f   Entity.obj
 0001:00034b90       ?RegisterClassA@idEntity@@SAXXZ 20035b90 f   Entity.obj
 0001:00034c20       ?Register_idEntity@@YAXXZ  20035c20 f   Entity.obj
 0001:00034c30       ?GetSpline@idEntity@@QBEPAV?$idCurve_Spline@VidVec3@@@@XZ 20035c30 f   Entity.obj
 0001:00034f90       ?CreateInstance@idAnimatedEntity@@SAPAVidClass@@XZ 20035f90 f   Entity.obj
 0001:00035030       ?RegisterClassA@idAnimatedEntity@@SAXXZ 20036030 f   Entity.obj
 0001:000350c0       ?Register_idAnimatedEntity@@YAXXZ 200360c0 f   Entity.obj
 0001:000350d0       ??_GidClass@@UAEPAXI@Z     200360d0 f i Entity.obj
 0001:000350d0       ??_EidClass@@UAEPAXI@Z     200360d0 f i Entity.obj
 0001:00035100       ?SetGravity@rvClientEffect@@QAEXABVidVec3@@@Z 20036100 f i Entity.obj
 0001:00035130       ?Right@idStr@@QBE?AV1@H@Z  20036130 f i Entity.obj
 0001:000351b0       ?Weld@?$idCurve@VidVec3@@@@UBE_NPAV1@@Z 200361b0 f i Entity.obj
 0001:000351c0       ?RemoveIndex@?$idCurve@VidVec3@@@@UAEXH@Z 200361c0 f i Entity.obj
 0001:00035250       ?Clear@?$idCurve@VidVec3@@@@UAEXXZ 20036250 f i Entity.obj
 0001:000352d0       ?GetCurrentValue@?$idCurve@VidVec3@@@@UBE?AVidVec3@@M@Z 200362d0 f i Entity.obj
 0001:000353e0       ?GetCurrentSecondDerivative@?$idCurve@VidVec3@@@@UBE?AVidVec3@@M@Z 200363e0 f i Entity.obj
 0001:000353e0       ?GetCurrentFirstDerivative@?$idCurve@VidVec3@@@@UBE?AVidVec3@@M@Z 200363e0 f i Entity.obj
 0001:00035410       ?IsDone@?$idCurve@VidVec3@@@@UBE_NM@Z 20036410 f i Entity.obj
 0001:00035440       ??_E?$idCurve@VidVec3@@@@UAEPAXI@Z 20036440 f i Entity.obj
 0001:00035440       ??_G?$idCurve@VidVec3@@@@UAEPAXI@Z 20036440 f i Entity.obj
 0001:00035520       ??1?$idLinkList@VrvAIHelper@@@@QAE@XZ 20036520 f i AI_Manager.obj
 0001:00035520       ??1?$idLinkList@VidEntity@@@@QAE@XZ 20036520 f i Entity.obj
 0001:00035520       ??1?$idLinkList@VidAI@@@@QAE@XZ 20036520 f i AI.obj
 0001:00035520       ??1?$idLinkList@UstateCall_t@@@@QAE@XZ 20036520 f i State.obj
 0001:00035520       ??1?$idLinkList@UannouncerSoundNode_s@idMultiplayerGame@@@@QAE@XZ 20036520 f i Game_local.obj
 0001:00035520       ??1?$idLinkList@VidEvent@@@@QAE@XZ 20036520 f i Event.obj
 0001:00035520       ??1?$idLinkList@VidActor@@@@QAE@XZ 20036520 f i Actor.obj
 0001:00035520       ??1?$idLinkList@VrvClientEntity@@@@QAE@XZ 20036520 f i Entity.obj
 0001:00035520       ??1?$idLinkList@VrvSplineMover@@@@QAE@XZ 20036520 f i SplineMover.obj
 0001:00035530       ??1?$idCurve_Spline@VidVec3@@@@UAE@XZ 20036530 f i Entity.obj
 0001:000355e0       ??1?$idCurve_NonUniformBSpline@VidVec3@@@@UAE@XZ 200365e0 f i Entity.obj
 0001:000355f0       ?AddValue@?$idCurve@VidVec3@@@@UAEHMABVidVec3@@@Z 200365f0 f i Entity.obj
 0001:00035c00       ??1rvAIAction@@QAE@XZ      20036c00 f i AI.obj
 0001:00035c00       ??1rvScriptFuncUtility@@QAE@XZ 20036c00 f i Entity.obj
 0001:00035c90       ?SetBoundaryType@?$idCurve_Spline@VidVec3@@@@UAEXW4boundary_t@1@@Z 20036c90 f i Entity.obj
 0001:00035cb0       ?GetBoundaryType@?$idCurve_Spline@VidVec3@@@@UBE?AW4boundary_t@1@XZ 20036cb0 f i Entity.obj
 0001:00035cc0       ?SetCloseTime@?$idCurve_Spline@VidVec3@@@@UAEXM@Z 20036cc0 f i Entity.obj
 0001:00035ce0       ?GetCloseTime@?$idCurve_Spline@VidVec3@@@@UBEMXZ 20036ce0 f i Entity.obj
 0001:00035d10       ?IsDone@?$idCurve_Spline@VidVec3@@@@UBE_NM@Z 20036d10 f i Entity.obj
 0001:00035d40       ?GetCurrentValue@?$idCurve_CatmullRomSpline@VidVec3@@@@UBE?AVidVec3@@M@Z 20036d40 f i Entity.obj
 0001:00036260       ?GetCurrentFirstDerivative@?$idCurve_CatmullRomSpline@VidVec3@@@@UBE?AVidVec3@@M@Z 20037260 f i Entity.obj
 0001:000368a0       ?GetCurrentSecondDerivative@?$idCurve_CatmullRomSpline@VidVec3@@@@UBE?AVidVec3@@M@Z 200378a0 f i Entity.obj
 0001:00036ed0       ?GetOrder@?$idCurve_BSpline@VidVec3@@@@UBEHXZ 20037ed0 f i Entity.obj
 0001:00036ee0       ?SetOrder@?$idCurve_BSpline@VidVec3@@@@UAEXH@Z 20037ee0 f i Entity.obj
 0001:00036ef0       ?Basis@?$idCurve_BSpline@VidVec3@@@@IBEMHHM@Z 20037ef0 f i Entity.obj
 0001:00037450       ?GetCurrentValue@?$idCurve_BSpline@VidVec3@@@@UBE?AVidVec3@@M@Z 20038450 f i Entity.obj
 0001:00037c60       ?GetCurrentFirstDerivative@?$idCurve_BSpline@VidVec3@@@@UBE?AVidVec3@@M@Z 20038c60 f i Entity.obj
 0001:00038a10       ?GetCurrentSecondDerivative@?$idCurve_BSpline@VidVec3@@@@UBE?AVidVec3@@M@Z 20039a10 f i Entity.obj
 0001:0003a2d0       ??_G?$idCurve_NonUniformBSpline@VidVec3@@@@UAEPAXI@Z 2003b2d0 f i Entity.obj
 0001:0003a2d0       ??_E?$idCurve_CatmullRomSpline@VidVec3@@@@UAEPAXI@Z 2003b2d0 f i Entity.obj
 0001:0003a2d0       ??_G?$idCurve_CatmullRomSpline@VidVec3@@@@UAEPAXI@Z 2003b2d0 f i Entity.obj
 0001:0003a2d0       ??_E?$idCurve_NonUniformBSpline@VidVec3@@@@UAEPAXI@Z 2003b2d0 f i Entity.obj
 0001:0003a2d0       ??_G?$idCurve_BSpline@VidVec3@@@@UAEPAXI@Z 2003b2d0 f i Entity.obj
 0001:0003a2d0       ??_E?$idCurve_BSpline@VidVec3@@@@UAEPAXI@Z 2003b2d0 f i Entity.obj
 0001:0003a320       ?Weld@?$idCurve_NonUniformBSpline@VidVec3@@@@UBE_NPAV?$idCurve@VidVec3@@@@@Z 2003b320 f i Entity.obj
 0001:0003a530       ?GetCurrentValue@?$idCurve_NonUniformBSpline@VidVec3@@@@UBE?AVidVec3@@M@Z 2003b530 f i Entity.obj
 0001:0003aae0       ?GetCurrentFirstDerivative@?$idCurve_NonUniformBSpline@VidVec3@@@@UBE?AVidVec3@@M@Z 2003bae0 f i Entity.obj
 0001:0003b2f0       ?GetCurrentSecondDerivative@?$idCurve_NonUniformBSpline@VidVec3@@@@UBE?AVidVec3@@M@Z 2003c2f0 f i Entity.obj
 0001:0003bda0       ?RemoveIndex@?$idCurve_NURBS@VidVec3@@@@UAEXH@Z 2003cda0 f i Entity.obj
 0001:0003be60       ?Clear@?$idCurve_NURBS@VidVec3@@@@UAEXXZ 2003ce60 f i Entity.obj
 0001:0003bf20       ?AddValue@?$idCurve_NURBS@VidVec3@@@@UAEHMABVidVec3@@M@Z 2003cf20 f i Entity.obj
 0001:0003c770       ?AddValue@?$idCurve_NURBS@VidVec3@@@@UAEHMABVidVec3@@@Z 2003d770 f i Entity.obj
 0001:0003cfc0       ?GetCurrentValue@?$idCurve_NURBS@VidVec3@@@@UBE?AVidVec3@@M@Z 2003dfc0 f i Entity.obj
 0001:0003d610       ?GetCurrentFirstDerivative@?$idCurve_NURBS@VidVec3@@@@UBE?AVidVec3@@M@Z 2003e610 f i Entity.obj
 0001:0003e200       ?GetCurrentSecondDerivative@?$idCurve_NURBS@VidVec3@@@@UBE?AVidVec3@@M@Z 2003f200 f i Entity.obj
 0001:0003f6d0       ??_E?$idCurve_NURBS@VidVec3@@@@UAEPAXI@Z 200406d0 f i Entity.obj
 0001:0003f6d0       ??_G?$idCurve_NURBS@VidVec3@@@@UAEPAXI@Z 200406d0 f i Entity.obj
 0001:0003f780       ??_GidAnimatedEntity@@UAEPAXI@Z 20040780 f i Entity.obj
 0001:0003f780       ??_EidAnimatedEntity@@UAEPAXI@Z 20040780 f i Entity.obj
 0001:0003f7b0       ??1idFreeView@@QAE@XZ      200407b0 f   FreeView.obj
 0001:0003f7e0       ?Shutdown@idFreeView@@QAEXXZ 200407e0 f   FreeView.obj
 0001:0003f810       ?GetOrigin@idFreeView@@QAEABVidVec3@@XZ 20040810 f   FreeView.obj
 0001:0003f820       ?Fly@idFreeView@@QAEXABVusercmd_t@@@Z 20040820 f   FreeView.obj
 0001:0003f910       ?Draw@idFreeView@@QAEXXZ   20040910 f   FreeView.obj
 0001:0003faa0       ?Setup@idFreeView@@AAEXXZ  20040aa0 f   FreeView.obj
 0001:0003fcb0       ?PickRandomSpawn@idFreeView@@QAEXXZ 20040cb0 f   FreeView.obj
 0001:0003fd80       ?SetFreeView@idFreeView@@QAEXH@Z 20040d80 f   FreeView.obj
 0001:0003fea0       ?EndFrame@rvGameDebug@@QAEXXZ 20040ea0 f   Game_Debug.obj
 0001:0003feb0       ?SetString@rvGameDebug@@QAEXPBD0@Z 20040eb0 f   Game_Debug.obj
 0001:0003fef0       ?SetStatString@rvGameDebug@@QAEXPBD0@Z 20040ef0 f   Game_Debug.obj
 0001:0003ff00       ?Shutdown@rvGameDebug@@QAEXXZ 20040f00 f   Game_Debug.obj
 0001:0003ff40       ?SetInt@rvGameDebug@@QAEXPBDH@Z 20040f40 f   Game_Debug.obj
 0001:0003ff90       ?SetFloat@rvGameDebug@@QAEXPBDM@Z 20040f90 f   Game_Debug.obj
 0001:0003fff0       ?GetInt@rvGameDebug@@QAEHPBD@Z 20040ff0 f   Game_Debug.obj
 0001:00040050       ?GetFloat@rvGameDebug@@QAEMPBD@Z 20041050 f   Game_Debug.obj
 0001:000400c0       ?GetString@rvGameDebug@@QAEPBDPBD@Z 200410c0 f   Game_Debug.obj
 0001:00040100       ?SetStatInt@rvGameDebug@@QAEXPBDH@Z 20041100 f   Game_Debug.obj
 0001:00040130       ?SetStatFloat@rvGameDebug@@QAEXPBDM@Z 20041130 f   Game_Debug.obj
 0001:00040170       ?GetStatInt@rvGameDebug@@QAEHPBD@Z 20041170 f   Game_Debug.obj
 0001:000401b0       ?GetStatFloat@rvGameDebug@@QAEMPBD@Z 200411b0 f   Game_Debug.obj
 0001:00040200       ?GetStatString@rvGameDebug@@QAEPBDPBD@Z 20041200 f   Game_Debug.obj
 0001:00040230       ?JumpTo@rvGameDebug@@QAEXH@Z 20041230 f   Game_Debug.obj
 0001:00040280       ?JumpNext@rvGameDebug@@QAEXXZ 20041280 f   Game_Debug.obj
 0001:000402a0       ?JumpPrev@rvGameDebug@@QAEXXZ 200412a0 f   Game_Debug.obj
 0001:000402c0       ?AppendList@rvGameDebug@@QAEXPBD0@Z 200412c0 f   Game_Debug.obj
 0001:00040360       ?JumpTo@rvGameDebug@@QAEXPBD@Z 20041360 f   Game_Debug.obj
 0001:000403b0       ?Init@rvGameDebug@@QAEXXZ  200413b0 f   Game_Debug.obj
 0001:00040440       ?BeginFrame@rvGameDebug@@QAEXXZ 20041440 f   Game_Debug.obj
 0001:00040780       ?DrawHud@rvGameDebug@@QAEXXZ 20041780 f   Game_Debug.obj
 0001:00040a90       ??0rvGameDebug@@QAE@XZ     20041a90 f   Game_Debug.obj
 0001:00040d80       ?JumpAdd@rvGameDebug@@QAEXPBDABVidVec3@@ABVidAngles@@@Z 20041d80 f   Game_Debug.obj
 0001:00041180       ??0idStr@@QAE@XZ           20042180 f i Actor.obj
 0001:00041180       ??0mpBanInfo_s@@QAE@XZ     20042180 f i Game_network.obj
 0001:00041180       ??0debugJumpPoint_s@@QAE@XZ 20042180 f i Game_Debug.obj
 0001:000411a0       ??1debugJumpPoint_s@@QAE@XZ 200421a0 f i Game_Debug.obj
 0001:000411a0       ??1idStr@@QAE@XZ           200421a0 f i Actor.obj
 0001:000411a0       ??1mpBanInfo_s@@QAE@XZ     200421a0 f i Game_local.obj
 0001:000411a0       ??1idToken@@QAE@XZ         200421a0 f i AF.obj
 0001:000411b0       ??1?$idList@UdebugJumpPoint_s@@@@QAE@XZ 200421b0 f i Game_Debug.obj
 0001:00041210       ??1rvGameDebug@@QAE@XZ     20042210 f i Game_Debug.obj
 0001:00041350       _GetGameAPI                20042350 f   Game_local.obj
 0001:00041440       ?TestGameAPI@@YAXXZ        20042440 f   Game_local.obj
 0001:000414d0       ?SetPersistentPlayerInfo@idGameLocal@@UAEXHABVidDict@@@Z 200424d0 f   Game_local.obj
 0001:000414f0       ?Printf@idGameLocal@@QBAXPBDZZ 200424f0 f   Game_local.obj
 0001:00041540       ?Warning@idGameLocal@@QBAXPBDZZ 20042540 f   Game_local.obj
 0001:00041590       ?Error@idGameLocal@@QBAXPBDZZ 20042590 f   Game_local.obj
 0001:00041620       ?gameError@@YAXPBDZZ       20042620 f   Game_local.obj
 0001:00041660       ?SetLocalClient@idGameLocal@@UAEXH@Z 20042660 f   Game_local.obj
 0001:00041670       ?InitScriptForMap@idGameLocal@@AAEXXZ 20042670 f   Game_local.obj
 0001:00041750       ?GetClientByNum@idGameLocal@@QBEPAVidPlayer@@H@Z 20042750 f   Game_local.obj
 0001:00041780       ?GetSpawnCount@idGameLocal@@QBEHXZ 20042780 f   Game_local.obj
 0001:00041790       ?FreePlayerPVS@idGameLocal@@AAEXXZ 20042790 f   Game_local.obj
 0001:00041840       ?InPlayerPVS@idGameLocal@@QBE_NPAVidEntity@@@Z 20042840 f   Game_local.obj
 0001:00041890       ?InPlayerConnectedArea@idGameLocal@@QBE_NPAVidEntity@@@Z 20042890 f   Game_local.obj
 0001:000418e0       ?GetGravity@idGameLocal@@QBEABVidVec3@@XZ 200428e0 f   Game_local.obj
 0001:000418f0       ?MenuFrame@idGameLocal@@UAEXXZ 200428f0 f   Game_local.obj
 0001:00041900       ?Draw@idGameLocal@@UAE_NH@Z 20042900 f   Game_local.obj
 0001:00041950       ?StartMenu@idGameLocal@@UAEPAVidUserInterface@@XZ 20042950 f   Game_local.obj
 0001:00041970       ?GetClientStats@idGameLocal@@UAEXHPADH@Z 20042970 f   Game_local.obj
 0001:00041980       ?SwitchTeam@idGameLocal@@UAEXHH@Z 20042980 f   Game_local.obj
 0001:000419d0       ?HandleGuiCommands@idGameLocal@@UAEPBDPBD@Z 200429d0 f   Game_local.obj
 0001:000419f0       ?CallFrameCommand@idGameLocal@@QAEXPAVidEntity@@PBVfunction_t@@@Z 200429f0 f   Game_local.obj
 0001:00041a20       ?SkipEntityIndex@idGameLocal@@QAEXXZ 20042a20 f   Game_local.obj
 0001:00041a50       ?FindEntityDef@idGameLocal@@QBEPBVidDeclEntityDef@@PBD_N@Z 20042a50 f   Game_local.obj
 0001:00041ab0       ?FindEntityDefDict@idGameLocal@@QBEPBVidDict@@PBD_N@Z 20042ab0 f   Game_local.obj
 0001:00041ae0       ?GameState@idGameLocal@@QBE?AW4gameState_t@@XZ 20042ae0 f   Game_local.obj
 0001:00041af0       ?GetTraceEntity@idGameLocal@@QBEPAVidEntity@@ABUtrace_t@@@Z 20042af0 f   Game_local.obj
 0001:00041b40       ?GetPortalSky@idGameLocal@@QBEPAVidCamera@@XZ 20042b40 f   Game_local.obj
 0001:00041b60       ?SetPortalSky@idGameLocal@@QAEXPAVidCamera@@@Z 20042b60 f   Game_local.obj
 0001:00041b70       ?GetCamera@idGameLocal@@QBEPAVidCamera@@XZ 20042b70 f   Game_local.obj
 0001:00041b80       ?DebugSetString@idGameLocal@@UAEXPBD0@Z 20042b80 f   Game_local.obj
 0001:00041b90       ?DebugSetFloat@idGameLocal@@UAEXPBDM@Z 20042b90 f   Game_local.obj
 0001:00041bb0       ?DebugSetInt@idGameLocal@@UAEXPBDH@Z 20042bb0 f   Game_local.obj
 0001:00041bc0       ?DebugGetStatString@idGameLocal@@UAEPBDPBD@Z 20042bc0 f   Game_local.obj
 0001:00041bd0       ?DebugGetStatInt@idGameLocal@@UAEHPBD@Z 20042bd0 f   Game_local.obj
 0001:00041be0       ?DebugGetStatFloat@idGameLocal@@UAEMPBD@Z 20042be0 f   Game_local.obj
 0001:00041bf0       ?PlayerChatDisabled@idGameLocal@@UAE_NH@Z 20042bf0 f   Game_local.obj
 0001:00041c30       ?GetCurrentGravityInfoIndex@idGameLocal@@UBEHABVidVec3@@@Z 20042c30 f   Game_local.obj
 0001:00041cd0       ?InGravityArea@idGameLocal@@UBE_NPAVidEntity@@@Z 20042cd0 f   Game_local.obj
 0001:00041cf0       ?InGravityArea@idGameLocal@@UBE_NPAVrvClientEntity@@@Z 20042cf0 f   Game_local.obj
 0001:00041d10       ?GetCurrentGravityInfoIndex@idGameLocal@@UBEHPAVrvClientEntity@@@Z 20042d10 f   Game_local.obj
 0001:00041d50       ?LocationForPoint@idGameLocal@@QAEPAVidLocationEntity@@ABVidVec3@@@Z 20042d50 f   Game_local.obj
 0001:00041dc0       ?sortSpawnPoints@idGameLocal@@CAHPBX0@Z 20042dc0 f   Game_local.obj
 0001:00041e10       ?SetGlobalMaterial@idGameLocal@@QAEXPBVidMaterial@@@Z 20042e10 f   Game_local.obj
 0001:00041e20       ?GetGlobalMaterial@idGameLocal@@QAEPBVidMaterial@@XZ 20042e20 f   Game_local.obj
 0001:00041e30       ?GetSpawnId@idGameLocal@@QBEHPBVidEntity@@@Z 20042e30 f   Game_local.obj
 0001:00041e50       ?ThrottleUserInfo@idGameLocal@@UAEXXZ 20042e50 f   Game_local.obj
 0001:00041e60       ?GetLongGametypeName@idGameLocal@@UAEPBDPBD@Z 20042e60 f   Game_local.obj
 0001:00041e70       ?Cmd_PrintSpawnIds_f@idGameLocal@@SAXABVidCmdArgs@@@Z 20042e70 f   Game_local.obj
 0001:00041eb0       ?GetDemoHud@idGameLocal@@QAEPAVidUserInterface@@XZ 20042eb0 f   Game_local.obj
 0001:00041ef0       ?GetDemoMphud@idGameLocal@@QAEPAVidUserInterface@@XZ 20042ef0 f   Game_local.obj
 0001:00041f30       ?GetDemoCursor@idGameLocal@@QAEPAVidUserInterface@@XZ 20042f30 f   Game_local.obj
 0001:00041fe0       ?GetPersistentPlayerInfo@idGameLocal@@UAEABVidDict@@H@Z 20042fe0 f   Game_local.obj
 0001:00042040       ?DPrintf@idGameLocal@@QBAXPBDZZ 20043040 f   Game_local.obj
 0001:00042090       ?DWarning@idGameLocal@@QBAXPBDZZ 20043090 f   Game_local.obj
 0001:00042100       ?SetUserInfo@idGameLocal@@UAEPBVidDict@@HABV2@_N@Z 20043100 f   Game_local.obj
 0001:00042320       ?GetUserInfo@idGameLocal@@UAEPBVidDict@@H@Z 20043320 f   Game_local.obj
 0001:00042370       ?IsClientActive@idGameLocal@@UAE_NH@Z 20043370 f   Game_local.obj
 0001:000423c0       ?SetServerInfo@idGameLocal@@UAEXABVidDict@@@Z 200433c0 f   Game_local.obj
 0001:000424f0       ?VerifyServerSettings_f@idGameLocal@@SAXABVidCmdArgs@@@Z 200434f0 f   Game_local.obj
 0001:00042570       ?GetStartingIndexForInstance@idGameLocal@@QAEHH@Z 20043570 f   Game_local.obj
 0001:000425b0       ?GetClientByName@idGameLocal@@QBEPAVidPlayer@@PBD@Z 200435b0 f   Game_local.obj
 0001:00042650       ?GetClientByCmdArgs@idGameLocal@@QBEPAVidPlayer@@ABVidCmdArgs@@@Z 20043650 f   Game_local.obj
 0001:00042780       ?GetClientNumByName@idGameLocal@@QBEHPBD@Z 20043780 f   Game_local.obj
 0001:00042820       ?GetNextClientNum@idGameLocal@@QBEHH@Z 20043820 f   Game_local.obj
 0001:00042890       ?GetLocalPlayer@idGameLocal@@QBEPAVidPlayer@@XZ 20043890 f   Game_local.obj
 0001:000428f0       ?GetClientPVS@idGameLocal@@QAE?AUpvsHandle_s@@PAVidPlayer@@W4pvsType_t@@@Z 200438f0 f   Game_local.obj
 0001:00042980       ?SetupPortalSkyPVS@idGameLocal@@AAE_NPAVidPlayer@@@Z 20043980 f   Game_local.obj
 0001:00042a80       ?UpdateClientsPVS@idGameLocal@@AAEXXZ 20043a80 f   Game_local.obj
 0001:00042ae0       ?SetupPlayerPVS@idGameLocal@@AAEXXZ 20043ae0 f   Game_local.obj
 0001:00042d50       ?UpdateGravity@idGameLocal@@AAEXXZ 20043d50 f   Game_local.obj
 0001:00042e70       ?CalcFov@idGameLocal@@QBEXMAAM0@Z 20043e70 f   Game_local.obj
 0001:00043120       ?HandleESC@idGameLocal@@UAE?AW4escReply_t@@PAPAVidUserInterface@@@Z 20044120 f   Game_local.obj
 0001:00043170       ?UpdatePlayerPostMainMenu@idGameLocal@@UAEXXZ 20044170 f   Game_local.obj
 0001:00043190       ?GetMapName@idGameLocal@@QBEPBDXZ 20044190 f   Game_local.obj
 0001:000431a0       ?CallFrameCommand@idGameLocal@@QAEXPAVidEntity@@PBD@Z 200441a0 f   Game_local.obj
 0001:000431f0       ?CallObjectFrameCommand@idGameLocal@@QAEXPAVidEntity@@PBD@Z 200441f0 f   Game_local.obj
 0001:00043270       ?ShowTargets@idGameLocal@@AAEXXZ 20044270 f   Game_local.obj
 0001:00043b60       ?NumAAS@idGameLocal@@QBEHXZ 20044b60 f   Game_local.obj
 0001:00043b70       ?GetAAS@idGameLocal@@QBEPAVidAAS@@H@Z 20044b70 f   Game_local.obj
 0001:00043bc0       ?GetAAS@idGameLocal@@QBEPAVidAAS@@PBD@Z 20044bc0 f   Game_local.obj
 0001:00043c40       ?SetAASAreaState@idGameLocal@@QAEXABVidBounds@@H_N@Z 20044c40 f   Game_local.obj
 0001:00043c90       ?AddAASObstacle@idGameLocal@@QAEHABVidBounds@@@Z 20044c90 f   Game_local.obj
 0001:00043d00       ?RemoveAASObstacle@idGameLocal@@QAEXH@Z 20044d00 f   Game_local.obj
 0001:00043d40       ?RemoveAllAASObstacles@idGameLocal@@QAEXXZ 20044d40 f   Game_local.obj
 0001:00043d70       ?GetEntityMemoryUsage@idGameLocal@@QBEIXZ 20044d70 f   Game_local.obj
 0001:00043df0       ?CheatsOk@idGameLocal@@QAE_N_N@Z 20044df0 f   Game_local.obj
 0001:00043e70       ?UnregisterEntity@idGameLocal@@QAEXPAVidEntity@@@Z 20044e70 f   Game_local.obj
 0001:00043f20       ?SpawnEntityType@idGameLocal@@QAEPAVidEntity@@ABVidTypeInfo@@PBVidDict@@_N@Z 20044f20 f   Game_local.obj
 0001:00043fe0       ?SpawnClientEntityDef@idGameLocal@@QAE_NABVidDict@@PAPAVrvClientEntity@@_NPBD@Z 20044fe0 f   Game_local.obj
 0001:000441d0       ?InhibitEntitySpawn@idGameLocal@@AAE_NAAVidDict@@@Z 200451d0 f   Game_local.obj
 0001:000444e0       ?SetSkill@idGameLocal@@QAEXH@Z 200454e0 f   Game_local.obj
 0001:00044520       ?ArgCompletion_EntityName@idGameLocal@@SAXABVidCmdArgs@@P6AXPBD@Z@Z 20045520 f   Game_local.obj
 0001:00044580       ?ArgCompletion_AIName@idGameLocal@@SAXABVidCmdArgs@@P6AXPBD@Z@Z 20045580 f   Game_local.obj
 0001:00044600       ?FindEntityUsingDef@idGameLocal@@QBEPAVidEntity@@PAV2@PBD@Z 20045600 f   Game_local.obj
 0001:00044670       ?FindTraceEntity@idGameLocal@@QBEPAVidEntity@@VidVec3@@0ABVidTypeInfo@@PBV2@@Z 20045670 f   Game_local.obj
 0001:000447d0       ?EntitiesWithinRadius@idGameLocal@@QBEHVidVec3@@MPAPAVidEntity@@H@Z 200457d0 f   Game_local.obj
 0001:000448f0       ?RequirementMet@idGameLocal@@QAE_NPAVidEntity@@ABVidStr@@H@Z 200458f0 f   Game_local.obj
 0001:00044950       ?IsWeaponsStayOn@idGameLocal@@QAE_NXZ 20045950 f   Game_local.obj
 0001:000449b0       ?AlertAI@idGameLocal@@QAEXPAVidEntity@@@Z 200459b0 f   Game_local.obj
 0001:00044a60       ?GetAlertEntity@idGameLocal@@QAEPAVidEntity@@XZ 20045a60 f   Game_local.obj
 0001:00044aa0       ?GetAlertActor@idGameLocal@@QAEPAVidActor@@XZ 20045aa0 f   Game_local.obj
 0001:00044b20       ?SkipCinematic@idGameLocal@@QAE_NXZ 20045b20 f   Game_local.obj
 0001:00044c60       ?StartViewEffect@idGameLocal@@UAEXHMM@Z 20045c60 f   Game_local.obj
 0001:00044d30       ?GetPlayerView@idGameLocal@@UAEXAAVidVec3@@AAVidMat3@@@Z 20045d30 f   Game_local.obj
 0001:00044e10       ?Translation@idGameLocal@@UAEXAAUtrace_t@@AAVidVec3@@1PAVidTraceModel@@H@Z 20045e10 f   Game_local.obj
 0001:00044ef0       ?SpawnClientMoveable@idGameLocal@@UAEXPBDHABVidVec3@@ABVidMat3@@11@Z 20045ef0 f   Game_local.obj
 0001:00045060       ?GetPlayerInfo@idGameLocal@@UAE_NAAVidVec3@@AAVidMat3@@HPAVidAngles@@H@Z 20046060 f   Game_local.obj
 0001:00045120       ?SetPlayerInfo@idGameLocal@@UAEXAAVidVec3@@AAVidMat3@@H@Z 20046120 f   Game_local.obj
 0001:00045190       ?SetViewComments@idGameLocal@@UAEXPBD@Z 20046190 f   Game_local.obj
 0001:00045200       ?GetNumGravityAreas@idGameLocal@@UBEHXZ 20046200 f   Game_local.obj
 0001:00045210       ?GetGravityInfo@idGameLocal@@UBEPBVrvGravityArea@@H@Z 20046210 f   Game_local.obj
 0001:00045230       ?SetGravityInfo@idGameLocal@@UAEXHPAVrvGravityArea@@@Z 20046230 f   Game_local.obj
 0001:00045250       ?GetCurrentGravityInfoIndex@idGameLocal@@UBEHPAVidEntity@@@Z 20046250 f   Game_local.obj
 0001:00045280       ?GetCurrentGravity@idGameLocal@@UBE?BVidVec3@@PAVidEntity@@@Z 20046280 f   Game_local.obj
 0001:000452e0       ?GetCurrentGravity@idGameLocal@@UBE?BVidVec3@@ABV2@ABVidMat3@@@Z 200462e0 f   Game_local.obj
 0001:00045350       ?GetCurrentGravity@idGameLocal@@UBE?BVidVec3@@PAVrvClientEntity@@@Z 20046350 f   Game_local.obj
 0001:000453b0       ?ReleaseScriptObjectProxy@idGameLocal@@UAEXPBD@Z 200463b0 f   Game_local.obj
 0001:00045450       ?SpreadLocations@idGameLocal@@QAEXXZ 20046450 f   Game_local.obj
 0001:00045670       ?SetPortalState@idGameLocal@@QAEXHH@Z 20046670 f   Game_local.obj
 0001:00045700       ?SetGameType@idGameLocal@@AAEXXZ 20046700 f   Game_local.obj
 0001:00045750       ?ValidateServerSettings@idGameLocal@@EAE_NPBD0@Z 20046750 f   Game_local.obj
 0001:00045800       ?PlayEffect@idGameLocal@@UAEPAVrvClientEffect@@PBVidDecl@@ABVidVec3@@ABVidMat3@@_N133W4effectCategory_t@@ABVidVec4@@@Z 20046800 f   Game_local.obj
 0001:00045c00       ?UnregisterClientEntity@idGameLocal@@QAEXPAVrvClientEntity@@@Z 20046c00 f   Game_local.obj
 0001:00045c70       ?GetEntityClipWorld@idGameLocal@@QAEPAVidClip@@PBVidEntity@@@Z 20046c70 f   Game_local.obj
 0001:00045d10       ?GetEntityClipWorld@idGameLocal@@QBEPBVidClip@@PBVidEntity@@@Z 20046d10 f   Game_local.obj
 0001:00045db0       ?GetPlayerName@idGameLocal@@UAEXHPAD@Z 20046db0 f   Game_local.obj
 0001:00045e10       ?GetPlayerClan@idGameLocal@@UAEXHPAD@Z 20046e10 f   Game_local.obj
 0001:00045e70       ?SetFriend@idGameLocal@@UAEXH_N@Z 20046e70 f   Game_local.obj
 0001:00045ed0       ?Cmd_PrintMapEntityNumbers_f@idGameLocal@@SAXABVidCmdArgs@@@Z 20046ed0 f   Game_local.obj
 0001:00045f10       ?IsTeamPowerups@idGameLocal@@QAE_NXZ 20046f10 f   Game_local.obj
 0001:00045f70       ?ServerSetEntityIndexWatermark@idGameLocal@@QAEXH@Z 20046f70 f   Game_local.obj
 0001:00046110       ?ServerSetMinSpawnIndex@idGameLocal@@QAEXXZ 20047110 f   Game_local.obj
 0001:00046180       ?SortActiveEntityList@idGameLocal@@AAEXXZ 20047180 f   Game_local.obj
 0001:00046450       ?RegisterEntity@idGameLocal@@QAEXPAVidEntity@@@Z 20047450 f   Game_local.obj
 0001:00046590       ?RemoveEntityFromHash@idGameLocal@@QAE_NPBDPAVidEntity@@@Z 20047590 f   Game_local.obj
 0001:000466b0       ?FindEntity@idGameLocal@@QBEPAVidEntity@@PBD@Z 200476b0 f   Game_local.obj
 0001:00046760       ?RadiusPushClipModel@idGameLocal@@QAEXPAVidEntity@@ABVidVec3@@MPBVidClipModel@@@Z 20047760 f   Game_local.obj
 0001:00046940       ?SetCamera@idGameLocal@@QAEXPAVidCamera@@@Z 20047940 f   Game_local.obj
 0001:00046c30       ?IsDebugHudActive@idGameLocal@@UBE_NXZ 20047c30 f   Game_local.obj
 0001:00046c60       ?ClearForwardSpawns@idGameLocal@@QAEXXZ 20047c60 f   Game_local.obj
 0001:00046cc0       ?UpdateEndLevel@idGameLocal@@QAEXXZ 20047cc0 f   Game_local.obj
 0001:00046d50       ?GetEffect@idGameLocal@@QAEPBVidDecl@@ABVidDict@@PBDPBVrvDeclMatType@@@Z 20047d50 f   Game_local.obj
 0001:00047170       ?RegisterClientEntity@idGameLocal@@QAEXPAVrvClientEntity@@@Z 20048170 f   Game_local.obj
 0001:00047250       ?Translation@idGameLocal@@QAE_NPBVidEntity@@AAUtrace_t@@ABVidVec3@@2PBVidClipModel@@ABVidMat3@@H00@Z 20048250 f   Game_local.obj
 0001:000472a0       ?Rotation@idGameLocal@@QAE_NPBVidEntity@@AAUtrace_t@@ABVidVec3@@ABVidRotation@@PBVidClipModel@@ABVidMat3@@H0@Z 200482a0 f   Game_local.obj
 0001:000472e0       ?Motion@idGameLocal@@QAE_NPBVidEntity@@AAUtrace_t@@ABVidVec3@@2ABVidRotation@@PBVidClipModel@@ABVidMat3@@H0@Z 200482e0 f   Game_local.obj
 0001:00047330       ?Contacts@idGameLocal@@QAEHPBVidEntity@@PAUcontactInfo_t@@HABVidVec3@@ABVidVec6@@MPBVidClipModel@@ABVidMat3@@H0@Z 20048330 f   Game_local.obj
 0001:00047380       ?Contents@idGameLocal@@QAEHPBVidEntity@@ABVidVec3@@PBVidClipModel@@ABVidMat3@@H0PAPAV2@@Z 20048380 f   Game_local.obj
 0001:000473c0       ?TracePoint@idGameLocal@@QAE_NPBVidEntity@@AAUtrace_t@@ABVidVec3@@2H0@Z 200483c0 f   Game_local.obj
 0001:00047420       ?TraceBounds@idGameLocal@@QAE_NPBVidEntity@@AAUtrace_t@@ABVidVec3@@2ABVidBounds@@H0@Z 20048420 f   Game_local.obj
 0001:000474c0       ?TranslationModel@idGameLocal@@QAEXPBVidEntity@@AAUtrace_t@@ABVidVec3@@2PBVidClipModel@@ABVidMat3@@HPAVidCollisionModel@@24@Z 200484c0 f   Game_local.obj
 0001:00047500       ?RotationModel@idGameLocal@@QAEXPBVidEntity@@AAUtrace_t@@ABVidVec3@@ABVidRotation@@PBVidClipModel@@ABVidMat3@@HPAVidCollisionModel@@25@Z 20048500 f   Game_local.obj
 0001:00047540       ?ContactsModel@idGameLocal@@QAEHPBVidEntity@@PAUcontactInfo_t@@HABVidVec3@@ABVidVec6@@MPBVidClipModel@@ABVidMat3@@HPAVidCollisionModel@@25@Z 20048540 f   Game_local.obj
 0001:00047590       ?ContentsModel@idGameLocal@@QAEHPBVidEntity@@ABVidVec3@@PBVidClipModel@@ABVidMat3@@HPAVidCollisionModel@@13@Z 20048590 f   Game_local.obj
 0001:000475d0       ?TranslationEntities@idGameLocal@@QAEXPBVidEntity@@AAUtrace_t@@ABVidVec3@@2PBVidClipModel@@ABVidMat3@@H00@Z 200485d0 f   Game_local.obj
 0001:00047610       ?GetModelContactFeature@idGameLocal@@QBE_NPBVidEntity@@ABUcontactInfo_t@@PBVidClipModel@@AAVidFixedWinding@@@Z 20048610 f   Game_local.obj
 0001:00047640       ?EntitiesTouchingBounds@idGameLocal@@QBEHPBVidEntity@@ABVidBounds@@HPAPAV2@H@Z 20048640 f   Game_local.obj
 0001:00047680       ?ClipModelsTouchingBounds@idGameLocal@@QBEHPBVidEntity@@ABVidBounds@@HPAPAVidClipModel@@H@Z 20048680 f   Game_local.obj
 0001:000476c0       ?PlayersTouchingBounds@idGameLocal@@QBEHPBVidEntity@@ABVidBounds@@HPAPAVidPlayer@@H@Z 200486c0 f   Game_local.obj
 0001:00047700       ?GetWorldBounds@idGameLocal@@QBEABVidBounds@@PBVidEntity@@@Z 20048700 f   Game_local.obj
 0001:00047730       ?RemoveClipWorld@idGameLocal@@QAEXH@Z 20048730 f   Game_local.obj
 0001:000477c0       ?RemoveInstance@idGameLocal@@QAEXH@Z 200487c0 f   Game_local.obj
 0001:00047840       ?SaveGame@idGameLocal@@UAEXPAVidFile@@W4saveType_t@@@Z 20048840 f   Game_local.obj
 0001:00048100       ?NextMap@idGameLocal@@QAE_NXZ 20049100 f   Game_local.obj
 0001:000488b0       ?DumpOggSounds@idGameLocal@@AAEXXZ 200498b0 f   Game_local.obj
 0001:000499c0       ?GetShakeSounds@idGameLocal@@AAEXPBVidDict@@@Z 2004a9c0 f   Game_local.obj
 0001:00049e90       ?CacheDictionaryMedia@idGameLocal@@UAEXPBVidDict@@@Z 2004ae90 f   Game_local.obj
 0001:0004a810       ?GetLevelMap@idGameLocal@@QAEPAVidMapFile@@XZ 2004b810 f   Game_local.obj
 0001:0004aa40       ?AddEntityToHash@idGameLocal@@QAEXPBDPAVidEntity@@@Z 2004ba40 f   Game_local.obj
 0001:0004ab10       ?KillBox@idGameLocal@@QAEXPAVidEntity@@_N@Z 2004bb10 f   Game_local.obj
 0001:0004ac70       ?RadiusDamage@idGameLocal@@QAEXABVidVec3@@PAVidEntity@@111PBDMPAH@Z 2004bc70 f   Game_local.obj
 0001:0004b220       ?RadiusPush@idGameLocal@@QAEXABVidVec3@@MMPBVidEntity@@1M_N@Z 2004c220 f   Game_local.obj
 0001:0004b470       ?ProjectDecal@idGameLocal@@QAEXABVidVec3@@0M_NMPBDM@Z 2004c470 f   Game_local.obj
 0001:0004be10       ?BloodSplat@idGameLocal@@QAEXPBVidEntity@@ABVidVec3@@1MPBD@Z 2004ce10 f   Game_local.obj
 0001:0004c090       ?AddLocation@idGameLocal@@QAEPAVidLocationEntity@@ABVidVec3@@PBD@Z 2004d090 f   Game_local.obj
 0001:0004c3b0       ?InitializeSpawns@idGameLocal@@AAEXXZ 2004d3b0 f   Game_local.obj
 0001:0004cdd0       ?UpdateForwardSpawns@idGameLocal@@QAEXPAVrvCTFAssaultPlayerStart@@H@Z 2004ddd0 f   Game_local.obj
 0001:0004cfa0       ?SpotWouldTelefrag@idGameLocal@@QAE_NPAVidPlayer@@PAVidPlayerStart@@@Z 2004dfa0 f   Game_local.obj
 0001:0004d060       ?SelectSpawnPoint@idGameLocal@@QAEPAVidEntity@@PAVidPlayer@@@Z 2004e060 f   Game_local.obj
 0001:0004d640       ?NeedRestart@idGameLocal@@QAE_NXZ 2004e640 f   Game_local.obj
 0001:0004d9a0       ?CheckPlayerWhizzBy@idGameLocal@@QAEXVidVec3@@0PAVidEntity@@1@Z 2004e9a0 f   Game_local.obj
 0001:0004dc40       ?HitScan@idGameLocal@@QAEPAVidEntity@@ABVidDict@@ABVidVec3@@11PAV2@_NM2PAH@Z 2004ec40 f   Game_local.obj
 0001:0004efa0       ?AddClipWorld@idGameLocal@@QAEHH@Z 2004ffa0 f   Game_local.obj
 0001:0004f260       ?ShutdownInstances@idGameLocal@@AAEXXZ 20050260 f   Game_local.obj
 0001:0004f320       ?AddInstance@idGameLocal@@QAEHH_N@Z 20050320 f   Game_local.obj
 0001:0004f660       ?BuildModList@idGameLocal@@AAEXXZ 20050660 f   Game_local.obj
 0001:000500f0       ?Clear@idGameLocal@@AAEXXZ 200510f0 f   Game_local.obj
 0001:00050740       ?Init@idGameLocal@@UAEXP6APAXI@ZP6AXPAX@ZP6AI1@Z@Z 20051740 f   Game_local.obj
 0001:00051240       ?LoadMap@idGameLocal@@QAEXPBDH@Z 20052240 f   Game_local.obj
 0001:00051b50       ?MapPopulate@idGameLocal@@AAEXH@Z 20052b50 f   Game_local.obj
 0001:00051c10       ?InitFromNewMap@idGameLocal@@UAEXPBDPAVidRenderWorld@@_N2H@Z 20052c10 f   Game_local.obj
 0001:00051d60       ?InitFromSaveGame@idGameLocal@@UAE_NPBDPAVidRenderWorld@@PAVidFile@@@Z 20052d60 f   Game_local.obj
 0001:00052800       ?HandleMainMenuCommands@idGameLocal@@UAEXPBDPAVidUserInterface@@@Z 20053800 f   Game_local.obj
 0001:00052a90       ?RunDebugInfo@idGameLocal@@AAEXXZ 20053a90 f   Game_local.obj
 0001:00053250       ?GetTargets@idGameLocal@@QBEHABVidDict@@AAV?$idList@V?$idEntityPtr@VidEntity@@@@@@PBD@Z 20054250 f   Game_local.obj
 0001:00053580       ?AddUniqueGravityInfo@idGameLocal@@UAEXPAVrvGravityArea@@@Z 20054580 f   Game_local.obj
 0001:000537b0       ?Shutdown@idGameLocal@@UAEXXZ 200547b0 f   Game_local.obj
 0001:00053c60       ?RunFrame@idGameLocal@@UAE?AUgameReturn_t@@PBVusercmd_t@@H_NH@Z 20054c60 f   Game_local.obj
 0001:00054700       ?ListEntityStats@idGameLocal@@UAEXABVidCmdArgs@@@Z 20055700 f   Game_local.obj
 0001:00055660       ?InstanceClear@idGameLocal@@QAEXXZ 20056660 f   Game_local.obj
 0001:000559a0       ?SpawnEntityDef@idGameLocal@@QAE_NABVidDict@@PAPAVidEntity@@_N@Z 200569a0 f   Game_local.obj
 0001:00056340       ?SpawnEntityDef@idGameLocal@@QAEPAVidEntity@@PBDPBVidDict@@@Z 20057340 f   Game_local.obj
 0001:00056620       ?SpawnMapEntities@idGameLocal@@QAEXHPAG0PAH@Z 20057620 f   Game_local.obj
 0001:00057320       ?ReferenceScriptObjectProxy@idGameLocal@@UAEPAVidEntity@@PBD@Z 20058320 f   Game_local.obj
 0001:000579d0       ??0idGameLocal@@QAE@XZ     200589d0 f   Game_local.obj
 0001:000582a0       ?MapClear@idGameLocal@@AAEX_NH@Z 200592a0 f   Game_local.obj
 0001:00058700       ?MapShutdown@idGameLocal@@UAEXXZ 20059700 f   Game_local.obj
 0001:000588a0       ?SpawnPlayer@idGameLocal@@UAEXH@Z 200598a0 f   Game_local.obj
 0001:00058bb0       ?LocalMapRestart@idGameLocal@@QAEXH@Z 20059bb0 f   Game_local.obj
 0001:00058db0       ?MapRestart@idGameLocal@@QAEXH@Z 20059db0 f   Game_local.obj
 0001:000591e0       ?MapRestart_f@idGameLocal@@SAXABVidCmdArgs@@@Z 2005a1e0 f   Game_local.obj
 0001:00059280       ?NextMap_f@idGameLocal@@SAXABVidCmdArgs@@@Z 2005a280 f   Game_local.obj
 0001:000592c0       ??$idListDecls_f@$04@@YAXABVidCmdArgs@@@Z 2005a2c0 f i Game_local.obj
 0001:000592e0       ??$idPrintDecls_f@$04@@YAXABVidCmdArgs@@@Z 2005a2e0 f i Game_local.obj
 0001:00059300       ??$ArgCompletion_Decl@$04@idCmdSystem@@SAXABVidCmdArgs@@P6AXPBD@Z@Z 2005a300 f i Game_local.obj
 0001:00059320       ?InsertAfter@?$idLinkList@UstateCall_t@@@@QAEXAAV1@@Z 2005a320 f i State.obj
 0001:00059320       ?InsertAfter@?$idLinkList@VidEntity@@@@QAEXAAV1@@Z 2005a320 f i Game_local.obj
 0001:00059350       ?Argv@idCmdArgs@@QBEPBDH@Z 2005a350 f i Game_local.obj
 0001:00059370       ?ArgCompletion_Boolean@idCmdSystem@@SAXABVidCmdArgs@@P6AXPBD@Z@Z 2005a370 f i Game_local.obj
 0001:000593c0       ??1idGame@@UAE@XZ          2005a3c0 f i Game_local.obj
 0001:000593d0       ?IsFlagGameType@idGameLocal@@QAE_NXZ 2005a3d0 f i Game_local.obj
 0001:00059400       ?SetShakeParms@idPlayerView@@QAEXMM@Z 2005a400 f i Game_local.obj
 0001:00059430       ?Shutdown@?$idBlockAlloc@UentityNetEvent_s@@$0CA@$0BE@@@QAEXXZ 2005a430 f i Game_local.obj
 0001:000594a0       ??1voteStruct_t@@QAE@XZ    2005a4a0 f i Game_local.obj
 0001:000594b0       ?ToNormal@idVec3@@QBE?AV1@XZ 2005a4b0 f i Game_local.obj
 0001:00059530       ?ProjectToLineSeg@idVec3@@QAE_NABV1@0@Z 2005a530 f i Game_local.obj
 0001:000596b0       ??$idDeclAllocator@VidDeclModelDef@@@@YAPAVidDecl@@XZ 2005a6b0 f i Game_local.obj
 0001:00059730       ??$idDeclAllocator@VidDecl@@@@YAPAVidDecl@@XZ 2005a730 f i Game_local.obj
 0001:00059770       ??$idDeclAllocator@VidDeclCameraDef@@@@YAPAVidDecl@@XZ 2005a770 f i Game_local.obj
 0001:000597f0       ?Shutdown@?$idBlockAlloc@Usnapshot_s@@$0EA@$0BL@@@QAEXXZ 2005a7f0 f i Game_local.obj
 0001:00059860       ??1ammodata_s@@QAE@XZ      2005a860 f i Target.obj
 0001:00059860       ??1selectedTypeInfo_s@@QAE@XZ 2005a860 f i Game_local.obj
 0001:00059860       ??1spawnerCallback_t@@QAE@XZ 2005a860 f i spawner.obj
 0001:00059860       ??1serverAdminData_t@idMultiplayerGame@@QAE@XZ 2005a860 f i MultiplayerGame.obj
 0001:00059870       ??H@YA?AVidStr@@ABV0@PBD@Z 2005a870 f i Game_local.obj
 0001:00059950       ??4idToken@@QAEAAV0@ABV0@@Z 2005a950 f i Game_local.obj
 0001:000599d0       ??_EidCVar@@UAEPAXI@Z      2005a9d0 f i Game_local.obj
 0001:000599d0       ??_GidCVar@@UAEPAXI@Z      2005a9d0 f i Game_local.obj
 0001:00059a20       ??_GidGame@@UAEPAXI@Z      2005aa20 f i Game_local.obj
 0001:00059a20       ??_EidGame@@UAEPAXI@Z      2005aa20 f i Game_local.obj
 0001:00059a70       ?GetHead@idActor@@QAEPAVidEntity@@XZ 2005aa70 f i Game_local.obj
 0001:00059aa0       ??1?$idBlockAlloc@UentityNetEvent_s@@$0CA@$0BE@@@QAE@XZ 2005aaa0 f i Game_local.obj
 0001:00059ab0       ??1idEventQueue@@QAE@XZ    2005aab0 f i Game_local.obj
 0001:00059ac0       ??1?$idBlockAlloc@Usnapshot_s@@$0EA@$0BL@@@QAE@XZ 2005aac0 f i Game_local.obj
 0001:00059ad0       ??_EselectedTypeInfo_s@@QAEPAXI@Z 2005aad0 f i Game_local.obj
 0001:00059b70       ??1idMultiplayerGame@@QAE@XZ 2005ab70 f i Game_local.obj
 0001:00059d50       ??1obstaclePath_s@@QAE@XZ  2005ad50 f i Game_local.obj
 0001:00059da0       ??_EidDict@@QAEPAXI@Z      2005ada0 f i Game_local.obj
 0001:00059ed0       ??1?$idList@UmpBanInfo_s@@@@QAE@XZ 2005aed0 f i Game_local.obj
 0001:00059f30       ??1?$idList@UselectedTypeInfo_s@@@@QAE@XZ 2005af30 f i Game_local.obj
 0001:00059f90       ??1idEditEntities@@QAE@XZ  2005af90 f i Game_local.obj
 0001:0005a050       ??1?$idList@VidDict@@@@QAE@XZ 2005b050 f i Game_local.obj
 0001:0005a080       ?Shutdown@?$idBlockAlloc@UentityState_s@@$0BAA@$0BL@@@QAEXXZ 2005b080 f i Game_local.obj
 0001:0005a100       ??1?$idBlockAlloc@UentityState_s@@$0BAA@$0BL@@@QAE@XZ 2005b100 f i Game_local.obj
 0001:0005a110       ??1idGameLocal@@UAE@XZ     2005b110 f i Game_local.obj
 0001:0005a7a0       ?RepeaterSetUserInfo@idGameLocal@@UAEPBVidDict@@HABV2@@Z 2005b7a0 f i Game_local.obj
 0001:0005a7b0       ?RepeaterFrame@idGameLocal@@UAEXPBUuserOrigin_s@@_NH@Z 2005b7b0 f i Game_local.obj
 0001:0005a7c0       ?RepeaterAllowClient@idGameLocal@@UAE?AW4allowReply_t@@HHPBD0_N00QAD@Z 2005b7c0 f i Game_local.obj
 0001:0005a7e0       ?RepeaterApplySnapshot@idGameLocal@@UAE_NHH@Z 2005b7e0 f i Game_local.obj
 0001:0005a7e0       ?GetPhysicsToVisualTransform@rvVehicle@@UAE_NAAVidVec3@@AAVidMat3@@@Z 2005b7e0 f i Monster_ConvoyHover.obj
 0001:0005a7e0       ?CanPlayImpactEffect@rvMonsterFatty@@UAE_NPAVidEntity@@0@Z 2005b7e0 f i Monster_Fatty.obj
 0001:0005a7f0       ?SetRepeaterState@idGameLocal@@UAEX_N0@Z 2005b7f0 f i Game_local.obj
 0001:0005a820       ?RepeaterWriteSnapshot@idGameLocal@@UAEXHHAAVidBitMsg@@PAIHABUuserOrigin_s@@H@Z 2005b820 f i Game_local.obj
 0001:0005a830       ?ClientReadRepeaterSnapshot@idGameLocal@@UAEXHHHHABVidBitMsg@@@Z 2005b830 f i Game_local.obj
 0001:0005a840       ?GetDemoFollowClient@idGameLocal@@UAEHXZ 2005b840 f i Game_local.obj
 0001:0005a860       ?GetBotInput@idGameLocal@@UAEXHAAVusercmd_t@@@Z 2005b860 f i Game_local.obj
 0001:0005a880       ?GetLoadingGui@idGameLocal@@UAEPBDPBD@Z 2005b880 f i Game_local.obj
 0001:0005a890       ?IsMultiplayer@idGameLocal@@UAE_NXZ 2005b890 f i Game_local.obj
 0001:0005a8a0       ?InCinematic@idGameLocal@@UAE_NXZ 2005b8a0 f i Game_local.obj
 0001:0005a8b0       ?ReceiveRemoteConsoleOutput@idGameLocal@@UAEXPBD@Z 2005b8b0 f i Game_local.obj
 0001:0005a8d0       ??_GidGameLocal@@UAEPAXI@Z 2005b8d0 f i Game_local.obj
 0001:0005a8d0       ??_EidGameLocal@@UAEPAXI@Z 2005b8d0 f i Game_local.obj
 0001:0005a920       ?Set@rvGameLogLocal@@UAEXPBDH@Z 2005b920 f   Game_Log.obj
 0001:0005a950       ?Set@rvGameLogLocal@@UAEXPBDM@Z 2005b950 f   Game_Log.obj
 0001:0005a990       ?Set@rvGameLogLocal@@UAEXPBD_N@Z 2005b990 f   Game_Log.obj
 0001:0005a9c0       ?BeginFrame@rvGameLogLocal@@UAEXH@Z 2005b9c0 f   Game_Log.obj
 0001:0005a9f0       ?Init@rvGameLogLocal@@UAEXXZ 2005b9f0 f   Game_Log.obj
 0001:0005aaf0       ?Shutdown@rvGameLogLocal@@UAEXXZ 2005baf0 f   Game_Log.obj
 0001:0005ac40       ?EndFrame@rvGameLogLocal@@UAEXXZ 2005bc40 f   Game_Log.obj
 0001:0005b390       ??0rvGameLogLocal@@QAE@XZ  2005c390 f   Game_Log.obj
 0001:0005b400       ?Set@rvGameLogLocal@@UAEXPBD0@Z 2005c400 f   Game_Log.obj
 0001:0005bb70       ?Add@rvGameLogLocal@@UAEXPBDH@Z 2005cb70 f   Game_Log.obj
 0001:0005c300       ?Add@rvGameLogLocal@@UAEXPBDM@Z 2005d300 f   Game_Log.obj
 0001:0005ca90       ??1rvGameLog@@UAE@XZ       2005da90 f i Game_Log.obj
 0001:0005caa0       ??_ErvGameLog@@UAEPAXI@Z   2005daa0 f i Game_Log.obj
 0001:0005caa0       ??_GrvGameLog@@UAEPAXI@Z   2005daa0 f i Game_Log.obj
 0001:0005caf0       ??1rvGameLogLocal@@UAE@XZ  2005daf0 f i Game_Log.obj
 0001:0005cc10       ??_GrvGameLogLocal@@UAEPAXI@Z 2005dc10 f i Game_Log.obj
 0001:0005cc10       ??_ErvGameLogLocal@@UAEPAXI@Z 2005dc10 f i Game_Log.obj
 0001:0005cc60       ?InitLocalClient@idGameLocal@@AAEXH@Z 2005dc60 f   Game_network.obj
 0001:0005cc80       ?ServerClientConnect@idGameLocal@@UAEXHPBD@Z 2005dc80 f   Game_network.obj
 0001:0005cd10       ?NetworkEventWarning@idGameLocal@@AAAXPBUentityNetEvent_s@@PBDZZ 2005dd10 f   Game_network.obj
 0001:0005cda0       ?ClientRun@idGameLocal@@UAEXXZ 2005dda0 f   Game_network.obj
 0001:0005cdc0       ?ClientEndFrame@idGameLocal@@UAEXXZ 2005ddc0 f   Game_network.obj
 0001:0005cde0       ?ProcessRconReturn@idGameLocal@@UAEX_N@Z 2005dde0 f   Game_network.obj
 0001:0005ce00       ?HTTPRequest@idGameLocal@@UAE_NPBD0_N@Z 2005de00 f   Game_network.obj
 0001:0005ce10       ?Init@idEventQueue@@QAEXXZ 2005de10 f   Game_network.obj
 0001:0005ce20       ?Dequeue@idEventQueue@@QAEPAUentityNetEvent_s@@XZ 2005de20 f   Game_network.obj
 0001:0005ce60       ?RemoveLast@idEventQueue@@QAEPAUentityNetEvent_s@@XZ 2005de60 f   Game_network.obj
 0001:0005cea0       ?RegisterClientGuid@idGameLocal@@UAEXHPBD@Z 2005dea0 f   Game_network.obj
 0001:0005ced0       ?GetGuidByClientNum@idGameLocal@@UAEPBDH@Z 2005ded0 f   Game_network.obj
 0001:0005cef0       ?GetClientNumByGuid@idGameLocal@@QAEHPBD@Z 2005def0 f   Game_network.obj
 0001:0005cf40       ?ServerSendInstanceReliableMessageExcluding@idGameLocal@@QAEXPBVidEntity@@HABVidBitMsg@@@Z 2005df40 f   Game_network.obj
 0001:0005cfe0       ?ServerSendInstanceReliableMessage@idGameLocal@@QAEXPBVidEntity@@HABVidBitMsg@@@Z 2005dfe0 f   Game_network.obj
 0001:0005d0d0       ?SetDemoState@idGameLocal@@UAEXW4demoState_t@@_N1@Z 2005e0d0 f   Game_network.obj
 0001:0005d130       ?ValidateDemoProtocol@idGameLocal@@UAE_NHH@Z 2005e130 f   Game_network.obj
 0001:0005d160       ?InitAsyncNetwork@idGameLocal@@AAEXXZ 2005e160 f   Game_network.obj
 0001:0005d200       ?ServerClientBegin@idGameLocal@@UAEXH@Z 2005e200 f   Game_network.obj
 0001:0005d2f0       ?ServerWriteInitialReliableMessages@idGameLocal@@UAEXH@Z 2005e2f0 f   Game_network.obj
 0001:0005d430       ?FreeSnapshotsOlderThanSequence@idGameLocal@@AAEXHH@Z 2005e430 f   Game_network.obj
 0001:0005d4f0       ?ApplySnapshot@idGameLocal@@AAE_NHH@Z 2005e4f0 f   Game_network.obj
 0001:0005d600       ?WriteGameStateToSnapshot@idGameLocal@@ABEXAAVidBitMsgDelta@@@Z 2005e600 f   Game_network.obj
 0001:0005d650       ?ReadGameStateFromSnapshot@idGameLocal@@AAEXABVidBitMsgDelta@@@Z 2005e650 f   Game_network.obj
 0001:0005d6a0       ?ServerApplySnapshot@idGameLocal@@UAE_NHH@Z 2005e6a0 f   Game_network.obj
 0001:0005d6b0       ?ServerSendChatMessage@idGameLocal@@QAEXHPBD00@Z 2005e6b0 f   Game_network.obj
 0001:0005d820       ?ClientShowSnapshot@idGameLocal@@ABEXH@Z 2005e820 f   Game_network.obj
 0001:0005dab0       ?UpdateLagometer@idGameLocal@@AAEXHH@Z 2005eab0 f   Game_network.obj
 0001:0005dc00       ?ClientApplySnapshot@idGameLocal@@UAE_NHH@Z 2005ec00 f   Game_network.obj
 0001:0005dc10       ?ClientHitScan@idGameLocal@@UAEXABVidBitMsg@@@Z 2005ec10 f   Game_network.obj
 0001:0005dd70       ?ResetRconGuiStatus@idGameLocal@@UAEXXZ 2005ed70 f   Game_network.obj
 0001:0005dda0       ?ClientPrediction@idGameLocal@@UAE?AUgameReturn_t@@HPBVusercmd_t@@_NPAUClientStats_t@@@Z 2005eda0 f   Game_network.obj
 0001:0005e1e0       ?Free@idEventQueue@@QAEXPAUentityNetEvent_s@@@Z 2005f1e0 f   Game_network.obj
 0001:0005e1f0       ?Shutdown@idEventQueue@@QAEXXZ 2005f1f0 f   Game_network.obj
 0001:0005e210       ?Enqueue@idEventQueue@@QAEXPAUentityNetEvent_s@@W4outOfOrderBehaviour_t@1@@Z 2005f210 f   Game_network.obj
 0001:0005e320       ?SaveBanList@idGameLocal@@QAEXXZ 2005f320 f   Game_network.obj
 0001:0005e430       ?SendUnreliableMessage@idGameLocal@@QAEXABVidBitMsg@@H@Z 2005f430 f   Game_network.obj
 0001:0005e510       ?SendUnreliableMessagePVS@idGameLocal@@QAEXABVidBitMsg@@PBVidEntity@@HH@Z 2005f510 f   Game_network.obj
 0001:0005e690       ?IsDemoReplayInAreas@idGameLocal@@AAE_NHH@Z 2005f690 f   Game_network.obj
 0001:0005e750       ?ProcessUnreliableMessage@idGameLocal@@AAEXABVidBitMsg@@@Z 2005f750 f   Game_network.obj
 0001:0005ead0       ?WriteNetworkInfo@idGameLocal@@UAEXPAVidFile@@H@Z 2005fad0 f   Game_network.obj
 0001:0005ece0       ?RandomSpawn@idGameLocal@@QAEPAVidPlayerStart@@XZ 2005fce0 f   Game_network.obj
 0001:0005ed20       ?ServerClientDisconnect@idGameLocal@@UAEXH@Z 2005fd20 f   Game_network.obj
 0001:0005ee50       ?ServerProcessEntityNetworkEventQueue@idGameLocal@@AAEXXZ 2005fe50 f   Game_network.obj
 0001:0005ef30       ?ClientProcessEntityNetworkEventQueue@idGameLocal@@AAEXXZ 2005ff30 f   Game_network.obj
 0001:0005f020       ?Alloc@idEventQueue@@QAEPAUentityNetEvent_s@@XZ 20060020 f   Game_network.obj
 0001:0005f040       ?ClientReadUnreliableMessages@idGameLocal@@AAEXABVidBitMsg@@@Z 20060040 f   Game_network.obj
 0001:0005f100       ?Tokenize@idGameLocal@@AAEXAAV?$idList@VidStr@@@@PBD@Z 20060100 f   Game_network.obj
 0001:0005f500       ?DownloadRequest@idGameLocal@@UAE_NPBD00QAD@Z 20060500 f   Game_network.obj
 0001:0005fa60       ?FlushBanList@idGameLocal@@QAEXXZ 20060a60 f   Game_network.obj
 0001:0005fad0       ?ClientProcessReliableMessage@idGameLocal@@UAEXHABVidBitMsg@@@Z 20060ad0 f   Game_network.obj
 0001:00060bc0       ?LoadBanList@idGameLocal@@QAEXXZ 20061bc0 f   Game_network.obj
 0001:000610f0       ?IsPlayerBanned@idGameLocal@@QAE_NPBD@Z 200620f0 f   Game_network.obj
 0001:00061150       ?IsGuidBanned@idGameLocal@@QAE_NPBD@Z 20062150 f   Game_network.obj
 0001:000611b0       ?AddGuidToBanList@idGameLocal@@UAEXPBD@Z 200621b0 f   Game_network.obj
 0001:00061610       ?RemoveGuidFromBanList@idGameLocal@@UAEXPBD@Z 20062610 f   Game_network.obj
 0001:00061720       ?GetBanListCount@idGameLocal@@QAEHXZ 20062720 f   Game_network.obj
 0001:00061740       ?GetBanListEntry@idGameLocal@@QAEPBUmpBanInfo_s@@H@Z 20062740 f   Game_network.obj
 0001:00061780       ?ServerSendBanList@idGameLocal@@QAEXH@Z 20062780 f   Game_network.obj
 0001:00061830       ?PopulateBanList@idGameLocal@@UAEXPAVidUserInterface@@@Z 20062830 f   Game_network.obj
 0001:00061900       ?ServerAllowClient@idGameLocal@@UAE?AW4allowReply_t@@HHPBD000QAD@Z 20062900 f   Game_network.obj
 0001:00061c20       ?ServerWriteSnapshot@idGameLocal@@UAEXHHAAVidBitMsg@@PAIHH@Z 20062c20 f   Game_network.obj
 0001:000620b0       ?ServerWriteServerDemoSnapshot@idGameLocal@@UAEXHAAVidBitMsg@@H@Z 200630b0 f   Game_network.obj
 0001:00062330       ?ServerProcessReliableMessage@idGameLocal@@UAEXHABVidBitMsg@@@Z 20063330 f   Game_network.obj
 0001:000626d0       ?ClientReadSnapshot@idGameLocal@@UAEXHHHHHHABVidBitMsg@@@Z 200636d0 f   Game_network.obj
 0001:00063210       ?ClientReadServerDemoSnapshot@idGameLocal@@UAEXHHHABVidBitMsg@@@Z 20064210 f   Game_network.obj
 0001:00063a80       ?ReadNetworkInfo@idGameLocal@@UAEXHPAVidFile@@H@Z 20064a80 f   Game_network.obj
 0001:00064380       ?ShutdownAsyncNetwork@idGameLocal@@AAEXXZ 20065380 f   Game_network.obj
 0001:000643f0       ??$ArgCompletion_Integer@$0A@$02@idCmdSystem@@SAXABVidCmdArgs@@P6AXPBD@Z@Z 200653f0 f i Game_network.obj
 0001:00064430       ?Alloc@?$idBlockAlloc@Usnapshot_s@@$0EA@$0BL@@@QAEPAUsnapshot_s@@XZ 20065430 f i Game_network.obj
 0001:000644d0       ?Alloc@?$idBlockAlloc@UentityNetEvent_s@@$0CA@$0BE@@@QAEPAUentityNetEvent_s@@XZ 200654d0 f i Game_network.obj
 0001:00064570       ??0element_s@?$idBlockAlloc@UentityState_s@@$0BAA@$0BL@@@QAE@XZ 20065570 f i Game_network.obj
 0001:00064580       ?Alloc@?$idBlockAlloc@UentityState_s@@$0BAA@$0BL@@@QAEPAUentityState_s@@XZ 20065580 f i Game_network.obj
 0001:00064680       ?GetClassType@idCursor3D@@SAAAVidTypeInfo@@XZ 20065680 f   GameEdit.obj
 0001:00064690       ?GetType@idCursor3D@@UBEPAVidTypeInfo@@XZ 20065690 f   GameEdit.obj
 0001:000646a0       ??1idCursor3D@@UAE@XZ      200656a0 f   GameEdit.obj
 0001:00064700       ?Spawn@idCursor3D@@QAEXXZ  20065700 f   GameEdit.obj
 0001:00064710       ?Think@idCursor3D@@UAEXXZ  20065710 f   GameEdit.obj
 0001:00064740       ?FindEntityDefDict@idGameEdit@@UBEPBVidDict@@PBD_N@Z 20065740 f   GameEdit.obj
 0001:00064750       ?SpawnEntityDef@idGameEdit@@UAEXABVidDict@@PAPAVidEntity@@@Z 20065750 f   GameEdit.obj
 0001:00064770       ?FindEntity@idGameEdit@@UBEPAVidEntity@@PBD@Z 20065770 f   GameEdit.obj
 0001:00064780       ?GetUniqueEntityName@idGameEdit@@UBEPBDPBD@Z 20065780 f   GameEdit.obj
 0001:000647f0       ?EntitySetOrigin@idGameEdit@@UAEXPAVidEntity@@ABVidVec3@@@Z 200657f0 f   GameEdit.obj
 0001:00064810       ?EntitySetAxis@idGameEdit@@UAEXPAVidEntity@@ABVidMat3@@@Z 20065810 f   GameEdit.obj
 0001:00064830       ?EntitySetColor@idGameEdit@@UAEXPAVidEntity@@VidVec3@@@Z 20065830 f   GameEdit.obj
 0001:00064850       ?EntityGetSpawnArgs@idGameEdit@@UBEPBVidDict@@PBVidEntity@@@Z 20065850 f   GameEdit.obj
 0001:00064870       ?EntityUpdateChangeableSpawnArgs@idGameEdit@@UAEXPAVidEntity@@PBVidDict@@@Z 20065870 f   GameEdit.obj
 0001:00064890       ?EntityUpdateVisuals@idGameEdit@@UAEXPAVidEntity@@@Z 20065890 f   GameEdit.obj
 0001:000648b0       ?EntitySetModel@idGameEdit@@UAEXPAVidEntity@@PBD@Z 200658b0 f   GameEdit.obj
 0001:000648e0       ?EntityStopSound@idGameEdit@@UAEXPAVidEntity@@@Z 200658e0 f   GameEdit.obj
 0001:00064900       ?EntityDelete@idGameEdit@@UAEXPAVidEntity@@@Z 20065900 f   GameEdit.obj
 0001:00064920       ?EntityGetName@idGameEdit@@UBEPBDPAVidEntity@@@Z 20065920 f   GameEdit.obj
 0001:00064940       ?EntityGetClassname@idGameEdit@@UBEPBDPAVidEntity@@@Z 20065940 f   GameEdit.obj
 0001:00064960       ?EntityToSafeId@idGameEdit@@UBEHPAVidEntity@@@Z 20065960 f   GameEdit.obj
 0001:00064990       ?EntityFromSafeId@idGameEdit@@UBEPAVidEntity@@H@Z 20065990 f   GameEdit.obj
 0001:000649c0       ?EntitySetSkin@idGameEdit@@UBEXPAVidEntity@@PBD@Z 200659c0 f   GameEdit.obj
 0001:000649f0       ?EntityClearSkin@idGameEdit@@UBEXPAVidEntity@@@Z 200659f0 f   GameEdit.obj
 0001:00064a00       ?EntityShow@idGameEdit@@UBEXPAVidEntity@@@Z 20065a00 f   GameEdit.obj
 0001:00064a20       ?EntityHide@idGameEdit@@UBEXPAVidEntity@@@Z 20065a20 f   GameEdit.obj
 0001:00064a40       ?EntityPlayAnim@idGameEdit@@UAEHPAVidEntity@@HHH@Z 20065a40 f   GameEdit.obj
 0001:00064ab0       ?EntitySetFrame@idGameEdit@@UAEXPAVidEntity@@HHHH@Z 20065ab0 f   GameEdit.obj
 0001:00064b10       ?EntityGetDelta@idGameEdit@@UAEXPAVidEntity@@HHAAVidVec3@@@Z 20065b10 f   GameEdit.obj
 0001:00064b40       ?EntityRemoveOriginOffset@idGameEdit@@UAEXPAVidEntity@@_N@Z 20065b40 f   GameEdit.obj
 0001:00064b60       ?EntityStopAllEffects@idGameEdit@@UAEXPAVidEntity@@@Z 20065b60 f   GameEdit.obj
 0001:00064b80       ?EntityGetNextTeamEntity@idGameEdit@@UBEPAVidEntity@@PAV2@@Z 20065b80 f   GameEdit.obj
 0001:00064b90       ?GetPlayerInfo@idGameEdit@@UBEXAAVidVec3@@AAVidMat3@@HPAVidAngles@@@Z 20065b90 f   GameEdit.obj
 0001:00064bc0       ?SetPlayerInfo@idGameEdit@@UBEXAAVidVec3@@AAVidMat3@@H@Z 20065bc0 f   GameEdit.obj
 0001:00064be0       ?EntitySetName@idGameEdit@@UAEXPAVidEntity@@PBD@Z 20065be0 f   GameEdit.obj
 0001:00064c00       ?PlayerIsValid@idGameEdit@@UBE_NXZ 20065c00 f   GameEdit.obj
 0001:00064c20       ?MapGetEntityDict@idGameEdit@@UBEPBVidDict@@PBD@Z 20065c20 f   GameEdit.obj
 0001:00064c50       ?MapLoaded@idGameEdit@@UBEPBDXZ 20065c50 f   GameEdit.obj
 0001:00064c70       ?GetAASFile@idGameEdit@@UAEPAVidAASFile@@H@Z 20065c70 f   GameEdit.obj
 0001:00064cb0       ?MapSetEntityKeyVal@idGameEdit@@UBEXPBD00@Z 20065cb0 f   GameEdit.obj
 0001:00064cf0       ?MapRemoveEntity@idGameEdit@@UBEXPBD@Z 20065cf0 f   GameEdit.obj
 0001:00064d20       ?GetGameTime@idGameEdit@@UBEHPAH@Z 20065d20 f   GameEdit.obj
 0001:00064d40       ?SetGameTime@idGameEdit@@UBEXH@Z 20065d40 f   GameEdit.obj
 0001:00064d60       ?TracePoint@idGameEdit@@UBE_NAAUtrace_t@@ABVidVec3@@1H@Z 20065d60 f   GameEdit.obj
 0001:00064d90       ?CacheDictionaryMedia@idGameEdit@@UBEXPBVidDict@@@Z 20065d90 f   GameEdit.obj
 0001:00064da0       ?SetCamera@idGameEdit@@UBEXPAVidEntity@@@Z 20065da0 f   GameEdit.obj
 0001:00064dd0       ?ScriptGetCurrentFunction@idGameEdit@@UBEPAXPAVidInterpreter@@@Z 20065dd0 f   GameEdit.obj
 0001:00064de0       ?ScriptGetCurrentFunctionName@idGameEdit@@UBEPBDPAVidInterpreter@@@Z 20065de0 f   GameEdit.obj
 0001:00064e10       ?ScriptGetCallstackDepth@idGameEdit@@UBEHPAVidInterpreter@@@Z 20065e10 f   GameEdit.obj
 0001:00064e20       ?ScriptGetCallstackFunction@idGameEdit@@UBEPAXPAVidInterpreter@@H@Z 20065e20 f   GameEdit.obj
 0001:00064e40       ?ScriptGetCallstackFunctionName@idGameEdit@@UBEPBDPAVidInterpreter@@H@Z 20065e40 f   GameEdit.obj
 0001:00064e60       ?ScriptGetCallstackStatement@idGameEdit@@UBEHPAVidInterpreter@@H@Z 20065e60 f   GameEdit.obj
 0001:00064e80       ?ScriptIsReturnOperator@idGameEdit@@UBE_NH@Z 20065e80 f   GameEdit.obj
 0001:00064e90       ?ScriptGetThread@idGameEdit@@UBEPAVidThread@@PAVidInterpreter@@@Z 20065e90 f   GameEdit.obj
 0001:00064ea0       ?GetClassDebugInfo@idGameEdit@@UAEXPBVidEntity@@P6AXPBD11PAX@Z2@Z 20065ea0 f   GameEdit.obj
 0001:00064ec0       ?GetGameEntityRegisterTime@idGameEdit@@UBEHXZ 20065ec0 f   GameEdit.obj
 0001:00064ed0       ?FlushUnusedAnims@idGameEdit@@UAEXXZ 20065ed0 f   GameEdit.obj
 0001:00064ee0       ?GetClassType@rvModviewModel@@SAAAVidTypeInfo@@XZ 20065ee0 f   GameEdit.obj
 0001:00064ef0       ?GetType@rvModviewModel@@UBEPAVidTypeInfo@@XZ 20065ef0 f   GameEdit.obj
 0001:00064f00       ??0rvModviewModel@@QAE@XZ  20065f00 f   GameEdit.obj
 0001:00064f20       ??0idCursor3D@@QAE@XZ      20065f20 f   GameEdit.obj
 0001:00064f90       ?Present@idCursor3D@@UAEXXZ 20065f90 f   GameEdit.obj
 0001:00065090       ?Clear@idDragEntity@@QAEXXZ 20066090 f   GameEdit.obj
 0001:000650f0       ?StopDrag@idDragEntity@@AAEXXZ 200660f0 f   GameEdit.obj
 0001:00065110       ?SetSelected@idDragEntity@@QAEXPAVidEntity@@@Z 20066110 f   GameEdit.obj
 0001:00065150       ?DeleteSelected@idDragEntity@@QAEXXZ 20066150 f   GameEdit.obj
 0001:00065190       ?UnbindSelected@idDragEntity@@QAEXXZ 20066190 f   GameEdit.obj
 0001:000652c0       ?GetSelectedEntities@idGameEdit@@UAEHQAPAVidEntity@@H@Z 200662c0 f   GameEdit.obj
 0001:00065310       ?TriggerSelected@idGameEdit@@UAEXXZ 20066310 f   GameEdit.obj
 0001:00065380       ?EntityGetOrigin@idGameEdit@@UBEXPAVidEntity@@AAVidVec3@@@Z 20066380 f   GameEdit.obj
 0001:000653c0       ?EntityGetAxis@idGameEdit@@UBEXPAVidEntity@@AAVidMat3@@@Z 200663c0 f   GameEdit.obj
 0001:00065420       ?EntityTranslate@idGameEdit@@UAEXPAVidEntity@@ABVidVec3@@@Z 20066420 f   GameEdit.obj
 0001:00065450       ?EntityGetRenderEntity@idGameEdit@@UAEPAUrenderEntity_s@@PAVidEntity@@@Z 20066450 f   GameEdit.obj
 0001:00065460       ?EntityIsDerivedFrom@idGameEdit@@UBE_NPAVidEntity@@PBD@Z 20066460 f   GameEdit.obj
 0001:000654b0       ?EntityGetBounds@idGameEdit@@UBEXPAVidEntity@@AAVidBounds@@@Z 200664b0 f   GameEdit.obj
 0001:00065500       ?LightSetParms@idGameEdit@@UAEXPAVidEntity@@HHM@Z 20066500 f   GameEdit.obj
 0001:00065580       ?PlayerGetOrigin@idGameEdit@@UBEXAAVidVec3@@@Z 20066580 f   GameEdit.obj
 0001:000655c0       ?PlayerGetAxis@idGameEdit@@UBEXAAVidMat3@@@Z 200665c0 f   GameEdit.obj
 0001:00065620       ?PlayerGetViewAngles@idGameEdit@@UBEXAAVidAngles@@@Z 20066620 f   GameEdit.obj
 0001:00065650       ?PlayerGetEyePosition@idGameEdit@@UBEXAAVidVec3@@@Z 20066650 f   GameEdit.obj
 0001:00065690       ?MapSave@idGameEdit@@UBEXPBD@Z 20066690 f   GameEdit.obj
 0001:000657e0       ?MapHasExportEntities@idGameEdit@@UBE_NXZ 200667e0 f   GameEdit.obj
 0001:00065800       ?MapEntityTranslate@idGameEdit@@UBEXPBDABVidVec3@@@Z 20066800 f   GameEdit.obj
 0001:00065880       ?PlayerTraceFromEye@idGameEdit@@UAE_NAAUtrace_t@@MH@Z 20066880 f   GameEdit.obj
 0001:00065940       ?EffectRefreshTemplate@idGameEdit@@UBEXPBVidDecl@@@Z 20066940 f   GameEdit.obj
 0001:000659c0       ?ScriptGetRegisterValue@idGameEdit@@UBEPBDPAVidInterpreter@@PBDH@Z 200669c0 f   GameEdit.obj
 0001:00065a50       ?ThreadGetCount@idGameEdit@@UAEHXZ 20066a50 f   GameEdit.obj
 0001:00065a60       ?ThreadGetThread@idGameEdit@@UAEPAVidThread@@H@Z 20066a60 f   GameEdit.obj
 0001:00065a80       ?ThreadGetName@idGameEdit@@UAEPBDPAVidThread@@@Z 20066a80 f   GameEdit.obj
 0001:00065a90       ?ThreadGetNumber@idGameEdit@@UAEHPAVidThread@@@Z 20066a90 f   GameEdit.obj
 0001:00065aa0       ?ThreadGetState@idGameEdit@@UAEPBDPAVidThread@@@Z 20066aa0 f   GameEdit.obj
 0001:00065af0       ?GetFirstSpawnedEntity@idGameEdit@@UBEPAVidEntity@@XZ 20066af0 f   GameEdit.obj
 0001:00065b10       ?GetNextSpawnedEntity@idGameEdit@@UBEPAVidEntity@@PAV2@@Z 20066b10 f   GameEdit.obj
 0001:00065b40       ?CreateInstance@rvModviewModel@@SAPAVidClass@@XZ 20066b40 f   GameEdit.obj
 0001:00065be0       ?CreateInstance@idCursor3D@@SAPAVidClass@@XZ 20066be0 f   GameEdit.obj
 0001:00065c80       ??0idDragEntity@@QAE@XZ    20066c80 f   GameEdit.obj
 0001:00065ce0       ??1idDragEntity@@QAE@XZ    20066ce0 f   GameEdit.obj
 0001:00065d50       ?BindSelected@idDragEntity@@QAEXXZ 20066d50 f   GameEdit.obj
 0001:000660a0       ?RemoveSelectedEntity@idEditEntities@@QAEXPAVidEntity@@@Z 200670a0 f   GameEdit.obj
 0001:00066120       ?ClearSelectedEntities@idEditEntities@@QAEXXZ 20067120 f   GameEdit.obj
 0001:00066190       ?ClearEntitySelection@idGameEdit@@UAEXXZ 20067190 f   GameEdit.obj
 0001:000661e0       ?EntityChangeSpawnArgs@idGameEdit@@UAEXPAVidEntity@@PBVidDict@@@Z 200671e0 f   GameEdit.obj
 0001:00066250       ?MapCopyDictToEntity@idGameEdit@@UBEXPBDPBVidDict@@@Z 20067250 f   GameEdit.obj
 0001:000662d0       ?MapGetUniqueMatchingKeyVals@idGameEdit@@UBEHPBDQAPBDH@Z 200672d0 f   GameEdit.obj
 0001:00066340       ?MapGetEntitiesMatchingClassWithString@idGameEdit@@UBEHPBD0QAPBDH@Z 20067340 f   GameEdit.obj
 0001:00066510       ?ScriptGetStatementLineNumber@idGameEdit@@UBEHPAVidProgram@@H@Z 20067510 f   GameEdit.obj
 0001:00066530       ?ScriptGetStatementFileName@idGameEdit@@UBEPBDPAVidProgram@@H@Z 20067530 f   GameEdit.obj
 0001:00066560       ?ScriptGetStatementOperator@idGameEdit@@UBEHPAVidProgram@@H@Z 20067560 f   GameEdit.obj
 0001:00066580       ?RegisterClassA@rvModviewModel@@SAXXZ 20067580 f   GameEdit.obj
 0001:00066610       ?Register_rvModviewModel@@YAXXZ 20067610 f   GameEdit.obj
 0001:00066620       ?Event_Speak@rvModviewModel@@AAEXPBD@Z 20067620 f   GameEdit.obj
 0001:000666c0       ?RegisterClassA@idCursor3D@@SAXXZ 200676c0 f   GameEdit.obj
 0001:00066750       ?Register_idCursor3D@@YAXXZ 20067750 f   GameEdit.obj
 0001:00066760       ?Update@idDragEntity@@QAEXPAVidPlayer@@@Z 20067760 f   GameEdit.obj
 0001:00067130       ?EntityIsSelectable@idEditEntities@@QAE_NPAVidEntity@@PAVidVec4@@PAVidStr@@@Z 20068130 f   GameEdit.obj
 0001:00067320       ?MapAddEntity@idGameEdit@@UBEXPBVidDict@@@Z 20068320 f   GameEdit.obj
 0001:000673c0       ??0idEditEntities@@QAE@XZ  200683c0 f   GameEdit.obj
 0001:00067470       ?FindTraceEntity@idEditEntities@@QAEPAVidEntity@@VidVec3@@0PBV2@@Z 20068470 f   GameEdit.obj
 0001:000675b0       ?AddSelectedEntity@idEditEntities@@QAEXPAVidEntity@@@Z 200685b0 f   GameEdit.obj
 0001:00067780       ?DisplayEntities@idEditEntities@@QAEXXZ 20068780 f   GameEdit.obj
 0001:00069a00       ?AddSelectedEntity@idGameEdit@@UAEXPAVidEntity@@@Z 2006aa00 f   GameEdit.obj
 0001:00069a20       ?SelectEntity@idEditEntities@@QAE_NABVidVec3@@0PBVidEntity@@@Z 2006aa20 f   GameEdit.obj
 0001:00069b80       ?Left@idStr@@QBE?AV1@H@Z   2006ab80 f i GameEdit.obj
 0001:00069bb0       ??_EidCursor3D@@UAEPAXI@Z  2006abb0 f i GameEdit.obj
 0001:00069bb0       ??_GidCursor3D@@UAEPAXI@Z  2006abb0 f i GameEdit.obj
 0001:00069be0       ??_GidGameEdit@@UAEPAXI@Z  2006abe0 f i GameEdit.obj
 0001:00069be0       ??_EidGameEdit@@UAEPAXI@Z  2006abe0 f i GameEdit.obj
 0001:00069c30       ??4selectedTypeInfo_s@@QAEAAU0@ABU0@@Z 2006ac30 f i GameEdit.obj
 0001:00069c80       ??0idMapEntity@@QAE@XZ     2006ac80 f i GameEdit.obj
 0001:00069e30       ?GetClassType@rvHealingStation@@SAAAVidTypeInfo@@XZ 2006ae30 f   Healing_Station.obj
 0001:00069e40       ?GetType@rvHealingStation@@UBEPAVidTypeInfo@@XZ 2006ae40 f   Healing_Station.obj
 0001:00069e50       ?CreateFrame@rvHealingStation@@IAEXM@Z 2006ae50 f   Healing_Station.obj
 0001:00069f20       ?IsPlaying@rvHealingStation@@AAE_NXZ 2006af20 f   Healing_Station.obj
 0001:00069f50       ?Think@rvHealingStation@@UAEXXZ 2006af50 f   Healing_Station.obj
 0001:00069fb0       ?Spawn@rvHealingStation@@QAEXXZ 2006afb0 f   Healing_Station.obj
 0001:0006a110       ?Save@rvHealingStation@@QBEXPAVidSaveGame@@@Z 2006b110 f   Healing_Station.obj
 0001:0006a1b0       ?Restore@rvHealingStation@@QAEXPAVidRestoreGame@@@Z 2006b1b0 f   Healing_Station.obj
 0001:0006a250       ?BeginHealing@rvHealingStation@@QAEXPAVidEntity@@@Z 2006b250 f   Healing_Station.obj
 0001:0006a2a0       ?EndHealing@rvHealingStation@@QAEXXZ 2006b2a0 f   Healing_Station.obj
 0001:0006a2b0       ?CreateInstance@rvHealingStation@@SAPAVidClass@@XZ 2006b2b0 f   Healing_Station.obj
 0001:0006a370       ?State_Healing@rvHealingStation@@IAE?AW4stateResult_t@@ABUstateParms_t@@@Z 2006b370 f   Healing_Station.obj
 0001:0006a540       ?RegisterClassA@rvHealingStation@@SAXXZ 2006b540 f   Healing_Station.obj
 0001:0006a5d0       ?Register_rvHealingStation@@YAXXZ 2006b5d0 f   Healing_Station.obj
 0001:0006a5e0       ??_ErvHealingStation@@UAEPAXI@Z 2006b5e0 f i Healing_Station.obj
 0001:0006a5e0       ??_GrvHealingStation@@UAEPAXI@Z 2006b5e0 f i Healing_Station.obj
 0001:0006a650       ?FreeIcon@rvIcon@@QAEXXZ   2006b650 f   Icon.obj
 0001:0006a680       ?GetWidth@rvIcon@@QBEHXZ   2006b680 f   Icon.obj
 0001:0006a690       ?GetHeight@rvIcon@@QBEHXZ  2006b690 f   Icon.obj
 0001:0006a6a0       ??1rvIcon@@QAE@XZ          2006b6a0 f   Icon.obj
 0001:0006a6b0       ?CreateIcon@rvIcon@@QAEHPBDH@Z 2006b6b0 f   Icon.obj
 0001:0006a810       ?UpdateIcon@rvIcon@@QAEXABVidVec3@@ABVidMat3@@@Z 2006b810 f   Icon.obj
 0001:0006a880       ??0rvIcon@@QAE@XZ          2006b880 f   Icon.obj
 0001:0006a890       ?UpdateTeamIcons@rvIconManager@@QAEXXZ 2006b890 f   IconManager.obj
 0001:0006aab0       ?UpdateChatIcons@rvIconManager@@QAEXXZ 2006bab0 f   IconManager.obj
 0001:0006ad20       ?UpdateIcons@rvIconManager@@QAEXXZ 2006bd20 f   IconManager.obj
 0001:0006b0c0       ?Shutdown@rvIconManager@@QAEXXZ 2006c0c0 f   IconManager.obj
 0001:0006b150       ?AddIcon@rvIconManager@@QAEXHPBD@Z 2006c150 f   IconManager.obj
 0001:0006b3d0       ??_F?$idList@Usignal_t@@@@QAEXXZ 2006c3d0 f i Entity.obj
 0001:0006b3d0       ??_F?$idList@PAVidPlayerStart@@@@QAEXXZ 2006c3d0 f i Game_local.obj
 0001:0006b3d0       ??_F?$idList@H@@QAEXXZ     2006c3d0 f i Anim_Blend.obj
 0001:0006b3d0       ??_F?$idList@V?$rvPair@PAVrvIcon@@H@@@@QAEXXZ 2006c3d0 f i IconManager.obj
 0001:0006b3f0       ??1idIK@@UAE@XZ            2006c3f0 f   IK.obj
 0001:0006b400       ?Save@idIK@@QBEXPAVidSaveGame@@@Z 2006c400 f   IK.obj
 0001:0006b480       ?Evaluate@idIK@@UAEXXZ     2006c480 f   IK.obj
 0001:0006b490       ?ClearJointMods@idIK@@UAEXXZ 2006c490 f   IK.obj
 0001:0006b4a0       ?Save@idIK_Walk@@QBEXPAVidSaveGame@@@Z 2006c4a0 f   IK.obj
 0001:0006b6b0       ?ClearJointMods@idIK_Walk@@UAEXXZ 2006c6b0 f   IK.obj
 0001:0006b750       ?EnableAll@idIK_Walk@@QAEXXZ 2006c750 f   IK.obj
 0001:0006b770       ?DisableAll@idIK_Walk@@QAEXXZ 2006c770 f   IK.obj
 0001:0006b780       ?EnableLeg@idIK_Walk@@QAEXH@Z 2006c780 f   IK.obj
 0001:0006b7a0       ?DisableLeg@idIK_Walk@@QAEXH@Z 2006c7a0 f   IK.obj
 0001:0006b7c0       ??1idIK_Reach@@UAE@XZ      2006c7c0 f   IK.obj
 0001:0006b7d0       ?Save@idIK_Reach@@QBEXPAVidSaveGame@@@Z 2006c7d0 f   IK.obj
 0001:0006b890       ?ClearJointMods@idIK_Reach@@UAEXXZ 2006c890 f   IK.obj
 0001:0006b900       ??0idIK@@QAE@XZ            2006c900 f   IK.obj
 0001:0006b930       ?Restore@idIK@@QAEXPAVidRestoreGame@@@Z 2006c930 f   IK.obj
 0001:0006ba70       ?IsInitialized@idIK@@QBE_NXZ 2006ca70 f   IK.obj
 0001:0006ba90       ?Init@idIK@@UAE_NPAVidEntity@@PBDABVidVec3@@@Z 2006ca90 f   IK.obj
 0001:0006bbc0       ?SolveTwoBones@idIK@@QAE_NABVidVec3@@00MMAAV2@@Z 2006cbc0 f   IK.obj
 0001:0006be80       ?GetBoneAxis@idIK@@QAEMABVidVec3@@00AAVidMat3@@@Z 2006ce80 f   IK.obj
 0001:0006c040       ?Restore@idIK_Walk@@QAEXPAVidRestoreGame@@@Z 2006d040 f   IK.obj
 0001:0006c230       ?Restore@idIK_Reach@@QAEXPAVidRestoreGame@@@Z 2006d230 f   IK.obj
 0001:0006c2f0       ??0idIK_Walk@@QAE@XZ       2006d2f0 f   IK.obj
 0001:0006c530       ??1idIK_Walk@@UAE@XZ       2006d530 f   IK.obj
 0001:0006c5b0       ?Init@idIK_Walk@@UAE_NPAVidEntity@@PBDABVidVec3@@@Z 2006d5b0 f   IK.obj
 0001:0006d2e0       ??0idIK_Reach@@QAE@XZ      2006e2e0 f   IK.obj
 0001:0006d580       ?Init@idIK_Reach@@UAE_NPAVidEntity@@PBDABVidVec3@@@Z 2006e580 f   IK.obj
 0001:0006de10       ?Evaluate@idIK_Reach@@UAEXXZ 2006ee10 f   IK.obj
 0001:0006ea00       ?Evaluate@idIK_Walk@@UAEXXZ 2006fa00 f   IK.obj
 0001:00070540       ??_EidIK@@UAEPAXI@Z        20071540 f i IK.obj
 0001:00070540       ??_GidIK@@UAEPAXI@Z        20071540 f i IK.obj
 0001:00070590       ??_GidIK_Reach@@UAEPAXI@Z  20071590 f i IK.obj
 0001:00070590       ??_EidIK_Reach@@UAEPAXI@Z  20071590 f i IK.obj
 0001:000705e0       ??_GidIK_Walk@@UAEPAXI@Z   200715e0 f i IK.obj
 0001:000705e0       ??_EidIK_Walk@@UAEPAXI@Z   200715e0 f i IK.obj
 0001:00070630       ?JoinInstance@rvInstance@@QAEXPAVidPlayer@@@Z 20071630 f   Instance.obj
 0001:00070690       ?PrintMapNumbers@rvInstance@@QAEXXZ 20071690 f   Instance.obj
 0001:000706f0       ?SetSpawnInstanceID@rvInstance@@QAEXH@Z 200716f0 f   Instance.obj
 0001:00070700       ??1rvInstance@@QAE@XZ      20071700 f   Instance.obj
 0001:00070750       ?BuildInstanceMessage@rvInstance@@AAEXXZ 20071750 f   Instance.obj
 0001:000707e0       ?Populate@rvInstance@@QAEXH@Z 200717e0 f   Instance.obj
 0001:00070ae0       ?PopulateFromMessage@rvInstance@@QAEXABVidBitMsg@@@Z 20071ae0 f   Instance.obj
 0001:00070c00       ?Restart@rvInstance@@QAEXXZ 20071c00 f   Instance.obj
 0001:00070c30       ??0rvInstance@@QAE@H_N@Z   20071c30 f   Instance.obj
 0001:00070c80       ?GetClassType@idItem@@SAAAVidTypeInfo@@XZ 20071c80 f   Item.obj
 0001:00070c90       ?GetType@idItem@@UBEPAVidTypeInfo@@XZ 20071c90 f   Item.obj
 0001:00070ca0       ?Save@idItem@@QBEXPAVidSaveGame@@@Z 20071ca0 f   Item.obj
 0001:00070d70       ?Restore@idItem@@QAEXPAVidRestoreGame@@@Z 20071d70 f   Item.obj
 0001:00070e60       ?InstanceLeave@idItem@@UAEXXZ 20071e60 f   Item.obj
 0001:00070e80       ?ClientStale@idItem@@UAE_NXZ 20071e80 f   Item.obj
 0001:00070ea0       ?ClientPredictionThink@idItem@@UAEXXZ 20071ea0 f   Item.obj
 0001:00070ec0       ?WriteToSnapshot@idItem@@UBEXAAVidBitMsgDelta@@@Z 20071ec0 f   Item.obj
 0001:00070f10       ?Event_DropToFloor@idItem@@QAEXXZ 20071f10 f   Item.obj
 0001:00070f40       ?GetClassType@idItemPowerup@@SAAAVidTypeInfo@@XZ 20071f40 f   Item.obj
 0001:00070f50       ?GetType@idItemPowerup@@UBEPAVidTypeInfo@@XZ 20071f50 f   Item.obj
 0001:00070f60       ?Save@idItemPowerup@@QBEXPAVidSaveGame@@@Z 20071f60 f   Item.obj
 0001:00070fa0       ?Restore@idItemPowerup@@QAEXPAVidRestoreGame@@@Z 20071fa0 f   Item.obj
 0001:00070fe0       ?GetClassType@idObjective@@SAAAVidTypeInfo@@XZ 20071fe0 f   Item.obj
 0001:00070ff0       ?GetType@idObjective@@UBEPAVidTypeInfo@@XZ 20071ff0 f   Item.obj
 0001:00071000       ?Save@idObjective@@QBEXPAVidSaveGame@@@Z 20072000 f   Item.obj
 0001:00071020       ?Restore@idObjective@@QAEXPAVidRestoreGame@@@Z 20072020 f   Item.obj
 0001:00071050       ?GetClassType@idMoveableItem@@SAAAVidTypeInfo@@XZ 20072050 f   Item.obj
 0001:00071060       ?GetType@idMoveableItem@@UBEPAVidTypeInfo@@XZ 20072060 f   Item.obj
 0001:00071070       ?Save@idMoveableItem@@QBEXPAVidSaveGame@@@Z 20072070 f   Item.obj
 0001:00071090       ?Restore@idMoveableItem@@QAEXPAVidRestoreGame@@@Z 20072090 f   Item.obj
 0001:000710c0       ?WriteToSnapshot@idMoveableItem@@UBEXAAVidBitMsgDelta@@@Z 200720c0 f   Item.obj
 0001:000710e0       ?Gib@idMoveableItem@@AAEXABVidVec3@@PBD@Z 200720e0 f   Item.obj
 0001:000710f0       ?GetClassType@idItemRemover@@SAAAVidTypeInfo@@XZ 200720f0 f   Item.obj
 0001:00071100       ?GetType@idItemRemover@@UBEPAVidTypeInfo@@XZ 20072100 f   Item.obj
 0001:00071110       ?Spawn@idItemRemover@@QAEXXZ 20072110 f   Item.obj
 0001:00071120       ?GetClassType@idObjectiveComplete@@SAAAVidTypeInfo@@XZ 20072120 f   Item.obj
 0001:00071130       ?GetType@idObjectiveComplete@@UBEPAVidTypeInfo@@XZ 20072130 f   Item.obj
 0001:00071140       ?Save@idObjectiveComplete@@QBEXPAVidSaveGame@@@Z 20072140 f   Item.obj
 0001:00071160       ?Restore@idObjectiveComplete@@QAEXPAVidRestoreGame@@@Z 20072160 f   Item.obj
 0001:00071180       ?GetClassType@rvObjectiveFailed@@SAAAVidTypeInfo@@XZ 20072180 f   Item.obj
 0001:00071190       ?GetType@rvObjectiveFailed@@UBEPAVidTypeInfo@@XZ 20072190 f   Item.obj
 0001:000711a0       ??0rvObjectiveFailed@@QAE@XZ 200721a0 f   Item.obj
 0001:000711c0       ?GetClassType@rvItemCTFFlag@@SAAAVidTypeInfo@@XZ 200721c0 f   Item.obj
 0001:000711d0       ?GetType@rvItemCTFFlag@@UBEPAVidTypeInfo@@XZ 200721d0 f   Item.obj
 0001:000711e0       ?GetClassType@riDeadZonePowerup@@SAAAVidTypeInfo@@XZ 200721e0 f   Item.obj
 0001:000711f0       ?GetType@riDeadZonePowerup@@UBEPAVidTypeInfo@@XZ 200721f0 f   Item.obj
 0001:00071200       ?Save@riDeadZonePowerup@@QBEXPAVidSaveGame@@@Z 20072200 f   Item.obj
 0001:00071210       ?Restore@riDeadZonePowerup@@QAEXPAVidRestoreGame@@@Z 20072210 f   Item.obj
 0001:00071220       ??0idItem@@QAE@XZ          20072220 f   Item.obj
 0001:00071300       ?UpdateRenderEntity@idItem@@ABE_NPAUrenderEntity_s@@PBUrenderView_s@@@Z 20072300 f   Item.obj
 0001:00071540       ?UpdateTrigger@idItem@@IAEXXZ 20072540 f   Item.obj
 0001:00071570       ?ModelCallback@idItem@@CA_NPAUrenderEntity_s@@PBUrenderView_s@@@Z 20072570 f   Item.obj
 0001:000715c0       ?GetPhysicsToVisualTransform@idItem@@UAE_NAAVidVec3@@AAVidMat3@@@Z 200725c0 f   Item.obj
 0001:00071900       ?Collide@idItem@@UAE_NABUtrace_t@@ABVidVec3@@@Z 20072900 f   Item.obj
 0001:00071960       ?Think@idItem@@UAEXXZ      20072960 f   Item.obj
 0001:000719d0       ?InstanceJoin@idItem@@UAEXXZ 200729d0 f   Item.obj
 0001:00071a50       ?Spawn@idItem@@QAEXXZ      20072a50 f   Item.obj
 0001:000723f0       ?Event_SetGravity@idItem@@AAEXXZ 200733f0 f   Item.obj
 0001:00072470       ?GiveToPlayer@idItem@@UAE_NPAVidPlayer@@@Z 20073470 f   Item.obj
 0001:00072560       ?SendPickupMsg@idItem@@IAEXH@Z 20073560 f   Item.obj
 0001:000725f0       ?Hide@idItem@@UAEXXZ       200735f0 f   Item.obj
 0001:00072620       ?Show@idItem@@UAEXXZ       20073620 f   Item.obj
 0001:00072650       ?ClientUnstale@idItem@@UAEXXZ 20073650 f   Item.obj
 0001:000726d0       ?Event_Pickup@idItem@@AAEXH@Z 200736d0 f   Item.obj
 0001:00072740       ?Event_Touch@idItem@@AAEXPAVidEntity@@PAUtrace_t@@@Z 20073740 f   Item.obj
 0001:00072790       ?Event_Trigger@idItem@@AAEXPAVidEntity@@@Z 20073790 f   Item.obj
 0001:00072810       ?Event_Respawn@idItem@@AAEXXZ 20073810 f   Item.obj
 0001:00072940       ?Event_RespawnFx@idItem@@AAEXXZ 20073940 f   Item.obj
 0001:00072a60       ?Spawn@idItemPowerup@@QAEXXZ 20073a60 f   Item.obj
 0001:00072c30       ?GiveToPlayer@idItemPowerup@@UAE_NPAVidPlayer@@@Z 20073c30 f   Item.obj
 0001:00072cf0       ?Think@idItemPowerup@@UAEXXZ 20073cf0 f   Item.obj
 0001:00072da0       ?Spawn@idObjective@@QAEXXZ 20073da0 f   Item.obj
 0001:00072e10       ?Event_Trigger@idObjective@@AAEXPAVidEntity@@@Z 20073e10 f   Item.obj
 0001:00073100       ?Event_GetPlayerPos@idObjective@@AAEXXZ 20074100 f   Item.obj
 0001:00073160       ?Event_HideObjective@idObjective@@AAEXPAVidEntity@@@Z 20074160 f   Item.obj
 0001:00073240       ?Think@idMoveableItem@@UAEXXZ 20074240 f   Item.obj
 0001:00073260       ?ReadFromSnapshot@idMoveableItem@@UAEXABVidBitMsgDelta@@@Z 20074260 f   Item.obj
 0001:000732a0       ?Event_Gib@idMoveableItem@@AAEXPBD@Z 200742a0 f   Item.obj
 0001:000732c0       ?CreateInstance@idItemRemover@@SAPAVidClass@@XZ 200742c0 f   Item.obj
 0001:00073370       ?RemoveItem@idItemRemover@@QAEXPAVidPlayer@@@Z 20074370 f   Item.obj
 0001:000733b0       ?Event_Trigger@idItemRemover@@AAEXPAVidEntity@@@Z 200743b0 f   Item.obj
 0001:000733f0       ??0idObjectiveComplete@@QAE@XZ 200743f0 f   Item.obj
 0001:00073420       ?Spawn@idObjectiveComplete@@QAEXXZ 20074420 f   Item.obj
 0001:00073450       ?Event_Trigger@idObjectiveComplete@@AAEXPAVidEntity@@@Z 20074450 f   Item.obj
 0001:000735d0       ?Event_GetPlayerPos@idObjectiveComplete@@AAEXXZ 200745d0 f   Item.obj
 0001:00073630       ?Event_HideObjective@idObjectiveComplete@@AAEXPAVidEntity@@@Z 20074630 f   Item.obj
 0001:00073730       ?CreateInstance@rvObjectiveFailed@@SAPAVidClass@@XZ 20074730 f   Item.obj
 0001:000737d0       ?Event_Trigger@rvObjectiveFailed@@AAEXPAVidEntity@@@Z 200747d0 f   Item.obj
 0001:00073910       ?Spawn@rvItemCTFFlag@@QAEXXZ 20074910 f   Item.obj
 0001:00073a90       ?Event_LinkTrigger@rvItemCTFFlag@@AAEXXZ 20074a90 f   Item.obj
 0001:00073ab0       ?Pickup@rvItemCTFFlag@@UAE_NPAVidPlayer@@@Z 20074ab0 f   Item.obj
 0001:00073c50       ?Think@rvItemCTFFlag@@UAEXXZ 20074c50 f   Item.obj
 0001:00073c60       ?Show@riDeadZonePowerup@@UAEXXZ 20074c60 f   Item.obj
 0001:00073c70       ?Spawn@riDeadZonePowerup@@QAEXXZ 20074c70 f   Item.obj
 0001:00073dd0       ?Collide@riDeadZonePowerup@@UAE_NABUtrace_t@@ABVidVec3@@@Z 20074dd0 f   Item.obj
 0001:00073e30       ?CreateInstance@idItem@@SAPAVidClass@@XZ 20074e30 f   Item.obj
 0001:00073ed0       ??1idItem@@UAE@XZ          20074ed0 f   Item.obj
 0001:00073f90       ?Present@idItem@@UAEXXZ    20074f90 f   Item.obj
 0001:00074020       ?GetAttributes@idItem@@QAEXAAVidDict@@@Z 20075020 f   Item.obj
 0001:00074100       ?ReadFromSnapshot@idItem@@UAEXABVidBitMsgDelta@@@Z 20075100 f   Item.obj
 0001:00074330       ?ClientReceiveEvent@idItem@@UAE_NHHABVidBitMsg@@@Z 20075330 f   Item.obj
 0001:00074390       ??0idItemPowerup@@QAE@XZ   20075390 f   Item.obj
 0001:000743c0       ??0idObjective@@QAE@XZ     200753c0 f   Item.obj
 0001:000743f0       ?Event_CamShot@idObjective@@AAEXXZ 200753f0 f   Item.obj
 0001:000745c0       ??0idMoveableItem@@QAE@XZ  200755c0 f   Item.obj
 0001:00074610       ??1idMoveableItem@@UAE@XZ  20075610 f   Item.obj
 0001:00074670       ?Spawn@idMoveableItem@@QAEXXZ 20075670 f   Item.obj
 0001:00074ab0       ?RegisterClassA@idItemRemover@@SAXXZ 20075ab0 f   Item.obj
 0001:00074b40       ?Register_idItemRemover@@YAXXZ 20075b40 f   Item.obj
 0001:00074b50       ?CreateInstance@idObjectiveComplete@@SAPAVidClass@@XZ 20075b50 f   Item.obj
 0001:00074bf0       ?RegisterClassA@rvObjectiveFailed@@SAXXZ 20075bf0 f   Item.obj
 0001:00074c80       ?Register_rvObjectiveFailed@@YAXXZ 20075c80 f   Item.obj
 0001:00074c90       ??0rvItemCTFFlag@@QAE@XZ   20075c90 f   Item.obj
 0001:00074cb0       ?ResetFlag@rvItemCTFFlag@@SAXH@Z 20075cb0 f   Item.obj
 0001:00074dc0       ?Event_ResetFlag@rvItemCTFFlag@@AAEXXZ 20075dc0 f   Item.obj
 0001:00074dd0       ?Collide@rvItemCTFFlag@@UAE_NABUtrace_t@@ABVidVec3@@@Z 20075dd0 f   Item.obj
 0001:00074e30       ??0riDeadZonePowerup@@QAE@XZ 20075e30 f   Item.obj
 0001:00074e50       ?ResetSpawn@riDeadZonePowerup@@IAEXH@Z 20075e50 f   Item.obj
 0001:00074fb0       ?Event_ResetSpawn@riDeadZonePowerup@@AAEXXZ 20075fb0 f   Item.obj
 0001:00074fc0       ?RegisterClassA@idItem@@SAXXZ 20075fc0 f   Item.obj
 0001:00075050       ?Register_idItem@@YAXXZ    20076050 f   Item.obj
 0001:00075060       ?Pickup@idItem@@UAE_NPAVidPlayer@@@Z 20076060 f   Item.obj
 0001:000756b0       ?CreateInstance@idItemPowerup@@SAPAVidClass@@XZ 200766b0 f   Item.obj
 0001:00075750       ?Pickup@idItemPowerup@@UAE_NPAVidPlayer@@@Z 20076750 f   Item.obj
 0001:00075790       ?CreateInstance@idObjective@@SAPAVidClass@@XZ 20076790 f   Item.obj
 0001:00075830       ?CreateInstance@idMoveableItem@@SAPAVidClass@@XZ 20076830 f   Item.obj
 0001:000758d0       ?DropItem@idMoveableItem@@SAPAVidEntity@@PBDABVidVec3@@ABVidMat3@@1HH@Z 200768d0 f   Item.obj
 0001:00075bc0       ?RegisterClassA@idObjectiveComplete@@SAXXZ 20076bc0 f   Item.obj
 0001:00075c50       ?Register_idObjectiveComplete@@YAXXZ 20076c50 f   Item.obj
 0001:00075c60       ?CreateInstance@rvItemCTFFlag@@SAPAVidClass@@XZ 20076c60 f   Item.obj
 0001:00075d00       ?GiveToPlayer@rvItemCTFFlag@@UAE_NPAVidPlayer@@@Z 20076d00 f   Item.obj
 0001:00075eb0       ?CreateInstance@riDeadZonePowerup@@SAPAVidClass@@XZ 20076eb0 f   Item.obj
 0001:00075f50       ?Pickup@riDeadZonePowerup@@UAE_NPAVidPlayer@@@Z 20076f50 f   Item.obj
 0001:00075fd0       ?RegisterClassA@idItemPowerup@@SAXXZ 20076fd0 f   Item.obj
 0001:00076060       ?Register_idItemPowerup@@YAXXZ 20077060 f   Item.obj
 0001:00076070       ?RegisterClassA@idObjective@@SAXXZ 20077070 f   Item.obj
 0001:00076100       ?Register_idObjective@@YAXXZ 20077100 f   Item.obj
 0001:00076110       ?RegisterClassA@idMoveableItem@@SAXXZ 20077110 f   Item.obj
 0001:000761a0       ?Register_idMoveableItem@@YAXXZ 200771a0 f   Item.obj
 0001:000761b0       ?DropItems@idMoveableItem@@SAXPAVidAnimatedEntity@@PBDPAV?$idList@PAVidEntity@@@@@Z 200771b0 f   Item.obj
 0001:00076a00       ?RegisterClassA@rvItemCTFFlag@@SAXXZ 20077a00 f   Item.obj
 0001:00076a90       ?Register_rvItemCTFFlag@@YAXXZ 20077a90 f   Item.obj
 0001:00076aa0       ?RegisterClassA@riDeadZonePowerup@@SAXXZ 20077aa0 f   Item.obj
 0001:00076b30       ?Register_riDeadZonePowerup@@YAXXZ 20077b30 f   Item.obj
 0001:00076b40       ??_GidItemPowerup@@UAEPAXI@Z 20077b40 f i Item.obj
 0001:00076b40       ??_EidItemPowerup@@UAEPAXI@Z 20077b40 f i Item.obj
 0001:00076b40       ??_GidObjective@@UAEPAXI@Z 20077b40 f i Item.obj
 0001:00076b40       ??_GidItem@@UAEPAXI@Z      20077b40 f i Item.obj
 0001:00076b40       ??_GriDeadZonePowerup@@UAEPAXI@Z 20077b40 f i Item.obj
 0001:00076b40       ??_EriDeadZonePowerup@@UAEPAXI@Z 20077b40 f i Item.obj
 0001:00076b40       ??_GrvItemCTFFlag@@UAEPAXI@Z 20077b40 f i Item.obj
 0001:00076b40       ??_EidItem@@UAEPAXI@Z      20077b40 f i Item.obj
 0001:00076b40       ??_ErvItemCTFFlag@@UAEPAXI@Z 20077b40 f i Item.obj
 0001:00076b40       ??_EidObjective@@UAEPAXI@Z 20077b40 f i Item.obj
 0001:00076b70       ??_GidMoveableItem@@UAEPAXI@Z 20077b70 f i Item.obj
 0001:00076b70       ??_EidMoveableItem@@UAEPAXI@Z 20077b70 f i Item.obj
 0001:00076ba0       ?GetClassType@idLight@@SAAAVidTypeInfo@@XZ 20077ba0 f   Light.obj
 0001:00076bb0       ?GetType@idLight@@UBEPAVidTypeInfo@@XZ 20077bb0 f   Light.obj
 0001:00076bc0       ?UpdateChangeableSpawnArgs@idLight@@UAEXPBVidDict@@@Z 20077bc0 f   Light.obj
 0001:00076c50       ?PresentLightDefChange@idLight@@AAEXXZ 20077c50 f   Light.obj
 0001:00076c90       ?PresentModelDefChange@idLight@@AAEXXZ 20077c90 f   Light.obj
 0001:00076ce0       ?FreeLightDef@idLight@@UAEXXZ 20077ce0 f   Light.obj
 0001:00076d10       ?Event_GetLightParm@idLight@@AAEXH@Z 20077d10 f   Light.obj
 0001:00076d50       ?ClientPredictionThink@idLight@@UAEXXZ 20077d50 f   Light.obj
 0001:00076d60       ?Event_IsOn@idLight@@AAEXXZ 20077d60 f   Light.obj
 0001:00076d90       ?ParseSpawnArgsToRenderLight@idGameEdit@@UAE_NPBVidDict@@PAUrenderLight_s@@@Z 20077d90 f   Light.obj
 0001:00077880       ??1idLight@@UAE@XZ         20078880 f   Light.obj
 0001:00077900       ?Save@idLight@@QBEXPAVidSaveGame@@@Z 20078900 f   Light.obj
 0001:00077a20       ?SetLightLevel@idLight@@QAEXXZ 20078a20 f   Light.obj
 0001:00077aa0       ?GetColor@idLight@@UBEXAAVidVec3@@@Z 20078aa0 f   Light.obj
 0001:00077ad0       ?GetColor@idLight@@UBEXAAVidVec4@@@Z 20078ad0 f   Light.obj
 0001:00077b00       ?SetColor@idLight@@UAEXMMM@Z 20078b00 f   Light.obj
 0001:00077b30       ?SetColor@idLight@@UAEXABVidVec4@@@Z 20078b30 f   Light.obj
 0001:00077b70       ?SetShader@idLight@@QAEXPBD@Z 20078b70 f   Light.obj
 0001:00077ba0       ?SetLightParm@idLight@@QAEXHM@Z 20078ba0 f   Light.obj
 0001:00077be0       ?SetLightParms@idLight@@QAEXMMMM@Z 20078be0 f   Light.obj
 0001:00077c50       ?SetRadiusXYZ@idLight@@QAEXMMM@Z 20078c50 f   Light.obj
 0001:00077c80       ?SetRadius@idLight@@QAEXM@Z 20078c80 f   Light.obj
 0001:00077cb0       ?Fade@idLight@@QAEXABVidVec4@@M@Z 20078cb0 f   Light.obj
 0001:00077d30       ?FadeOut@idLight@@QAEXM@Z  20078d30 f   Light.obj
 0001:00077d50       ?FadeIn@idLight@@QAEXM@Z   20078d50 f   Light.obj
 0001:00077db0       ?BecomeBroken@idLight@@QAEXPAVidEntity@@@Z 20078db0 f   Light.obj
 0001:00078150       ?Present@idLight@@UAEXXZ   20079150 f   Light.obj
 0001:00078410       ?GetPhysicsToSoundTransform@idLight@@UAE_NAAVidVec3@@AAVidMat3@@@Z 20079410 f   Light.obj
 0001:000785e0       ?ShowEditingDialog@idLight@@UAEXXZ 200795e0 f   Light.obj
 0001:00078610       ?Event_SetShader@idLight@@AAEXPBD@Z 20079610 f   Light.obj
 0001:00078620       ?Event_SetLightParm@idLight@@AAEXHM@Z 20079620 f   Light.obj
 0001:00078640       ?Event_SetLightParms@idLight@@AAEXMMMM@Z 20079640 f   Light.obj
 0001:00078670       ?Event_SetRadiusXYZ@idLight@@AAEXMMM@Z 20079670 f   Light.obj
 0001:000786a0       ?Event_SetRadius@idLight@@AAEXM@Z 200796a0 f   Light.obj
 0001:000786c0       ?Event_FadeOut@idLight@@AAEXM@Z 200796c0 f   Light.obj
 0001:000786e0       ?Event_FadeIn@idLight@@AAEXM@Z 200796e0 f   Light.obj
 0001:00078700       ?WriteToSnapshot@idLight@@UBEXAAVidBitMsgDelta@@@Z 20079700 f   Light.obj
 0001:00078860       ?ClientReceiveEvent@idLight@@UAE_NHHABVidBitMsg@@@Z 20079860 f   Light.obj
 0001:00078890       ?Event_DoneBlinkingOff@idLight@@AAEXXZ 20079890 f   Light.obj
 0001:000788e0       ?Event_SetCurrentLightLevel@idLight@@AAEXH@Z 200798e0 f   Light.obj
 0001:00078900       ?Event_SetMaxLightLevel@idLight@@AAEXH@Z 20079900 f   Light.obj
 0001:00078920       ??0idLight@@QAE@XZ         20079920 f   Light.obj
 0001:00078ac0       ?Restore@idLight@@QAEXPAVidRestoreGame@@@Z 20079ac0 f   Light.obj
 0001:00078cb0       ?On@idLight@@QAEXXZ        20079cb0 f   Light.obj
 0001:00078ec0       ?Off@idLight@@QAEXXZ       20079ec0 f   Light.obj
 0001:000790c0       ?Killed@idLight@@UAEXPAVidEntity@@0HABVidVec3@@H@Z 2007a0c0 f   Light.obj
 0001:000790d0       ?Think@idLight@@UAEXXZ     2007a0d0 f   Light.obj
 0001:000792e0       ?SaveState@idLight@@QAEXPAVidDict@@@Z 2007a2e0 f   Light.obj
 0001:00079370       ?Event_Hide@idLight@@AAEXXZ 2007a370 f   Light.obj
 0001:00079390       ?Event_Show@idLight@@AAEXXZ 2007a390 f   Light.obj
 0001:000793b0       ?Event_On@idLight@@AAEXXZ  2007a3b0 f   Light.obj
 0001:000793c0       ?Event_Off@idLight@@AAEXXZ 2007a3c0 f   Light.obj
 0001:000793d0       ?Event_ToggleOnOff@idLight@@AAEXPAVidEntity@@@Z 2007a3d0 f   Light.obj
 0001:00079480       ?Event_Timer@idLight@@AAEXXZ 2007a480 f   Light.obj
 0001:00079510       ?Event_SetSoundHandles@idLight@@AAEXXZ 2007a510 f   Light.obj
 0001:00079610       ?ReadFromSnapshot@idLight@@UAEXABVidBitMsgDelta@@@Z 2007a610 f   Light.obj
 0001:000797e0       ?Event_Break@idLight@@AAEXPAVidEntity@@M@Z 2007a7e0 f   Light.obj
 0001:00079810       ?Event_DoneBlinking@idLight@@AAEXXZ 2007a810 f   Light.obj
 0001:00079a00       ?Event_EarthQuake@idLight@@AAEXM@Z 2007aa00 f   Light.obj
 0001:00079b30       ?Event_SetLightGUI@idLight@@AAEXPBD@Z 2007ab30 f   Light.obj
 0001:00079be0       ?CreateInstance@idLight@@SAPAVidClass@@XZ 2007abe0 f   Light.obj
 0001:00079c80       ?Spawn@idLight@@QAEXXZ     2007ac80 f   Light.obj
 0001:0007a6c0       ?RegisterClassA@idLight@@SAXXZ 2007b6c0 f   Light.obj
 0001:0007a750       ?Register_idLight@@YAXXZ   2007b750 f   Light.obj
 0001:0007a760       ??_EidLight@@UAEPAXI@Z     2007b760 f i Light.obj
 0001:0007a760       ??_GidLight@@UAEPAXI@Z     2007b760 f i Light.obj
 0001:0007a790       ?SetFrame@rvLipSyncData@@QAEXH@Z 2007b790 f   LipSync.obj
 0001:0007a7b0       ??0rvLipSyncData@@QAE@PBVrvDeclLipSync@@H@Z 2007b7b0 f   LipSync.obj
 0001:0007a8d0       ?GetFrontLerp@rvLipSyncData@@QAEMXZ 2007b8d0 f   LipSync.obj
 0001:0007a940       ?FAS_StartVisemeExtraction@@YAPAVrvLipSyncData@@PBVrvDeclLipSync@@H@Z 2007b940 f   LipSync.obj
 0001:0007a9c0       ?Init@rvViseme@@QAEXAAVidStr@@HH@Z 2007b9c0 f   LipSync.obj
 0001:0007aa10       ?FAS_EndVisemeExtraction@@YAXPAVrvLipSyncData@@@Z 2007ba10 f   LipSync.obj
 0001:0007aaa0       ?EndLipSyncing@idAFAttachment@@QAEXXZ 2007baa0 f   LipSync.obj
 0001:0007ab50       ?StartLipSyncing@idAFAttachment@@QAEHPBD@Z 2007bb50 f   LipSync.obj
 0001:0007ad80       ?FAS_ExtractViseme@@YAXPAVrvLipSyncData@@H@Z 2007bd80 f   LipSync.obj
 0001:0007b2d0       ?HandleLipSync@idAFAttachment@@QAEXXZ 2007c2d0 f   LipSync.obj
 0001:0007b540       ?FAS_LoadPhonemes@@YA_NPBD@Z 2007c540 f   LipSync.obj
 0001:0007bf40       ?FAS_Reload_f@@YAXABVidCmdArgs@@@Z 2007cf40 f   LipSync.obj
 0001:0007bf70       ?FAS_Init@@YA_NPBD@Z       2007cf70 f   LipSync.obj
 0001:0007bfa0       ?FAS_Shutdown@@YAXXZ       2007cfa0 f   LipSync.obj
 0001:0007c270       ??1rvViseme@@QAE@XZ        2007d270 f i LipSync.obj
 0001:0007c2d0       ??0rvViseme@@QAE@ABV0@@Z   2007d2d0 f i LipSync.obj
 0001:0007c340       ??0hashnode_s@?$idHashTable@VrvViseme@@@@QAE@PBDVrvViseme@@PAU01@@Z 2007d340 f i LipSync.obj
 0001:0007c420       ?GetClassType@idSpawnableEntity@@SAAAVidTypeInfo@@XZ 2007d420 f   Misc.obj
 0001:0007c430       ?GetType@idSpawnableEntity@@UBEPAVidTypeInfo@@XZ 2007d430 f   Misc.obj
 0001:0007c440       ?Spawn@idSpawnableEntity@@QAEXXZ 2007d440 f   Misc.obj
 0001:0007c450       ?GetClassType@idPlayerStart@@SAAAVidTypeInfo@@XZ 2007d450 f   Misc.obj
 0001:0007c460       ?GetType@idPlayerStart@@UBEPAVidTypeInfo@@XZ 2007d460 f   Misc.obj
 0001:0007c470       ??0idPlayerStart@@QAE@XZ   2007d470 f   Misc.obj
 0001:0007c490       ?Spawn@idPlayerStart@@QAEXXZ 2007d490 f   Misc.obj
 0001:0007c4a0       ?Save@idPlayerStart@@QBEXPAVidSaveGame@@@Z 2007d4a0 f   Misc.obj
 0001:0007c4c0       ?Restore@idPlayerStart@@QAEXPAVidRestoreGame@@@Z 2007d4c0 f   Misc.obj
 0001:0007c4e0       ?GetClassType@idActivator@@SAAAVidTypeInfo@@XZ 2007d4e0 f   Misc.obj
 0001:0007c4f0       ?GetType@idActivator@@UBEPAVidTypeInfo@@XZ 2007d4f0 f   Misc.obj
 0001:0007c500       ?Save@idActivator@@QBEXPAVidSaveGame@@@Z 2007d500 f   Misc.obj
 0001:0007c520       ?Restore@idActivator@@QAEXPAVidRestoreGame@@@Z 2007d520 f   Misc.obj
 0001:0007c550       ?Think@idActivator@@UAEXXZ 2007d550 f   Misc.obj
 0001:0007c590       ?Event_Activate@idActivator@@AAEXPAVidEntity@@@Z 2007d590 f   Misc.obj
 0001:0007c5b0       ?GetClassType@idPathCorner@@SAAAVidTypeInfo@@XZ 2007d5b0 f   Misc.obj
 0001:0007c5c0       ?GetType@idPathCorner@@UBEPAVidTypeInfo@@XZ 2007d5c0 f   Misc.obj
 0001:0007c5d0       ?Spawn@idPathCorner@@QAEXXZ 2007d5d0 f   Misc.obj
 0001:0007c5e0       ?GetClassType@idDamagable@@SAAAVidTypeInfo@@XZ 2007d5e0 f   Misc.obj
 0001:0007c5f0       ?GetType@idDamagable@@UBEPAVidTypeInfo@@XZ 2007d5f0 f   Misc.obj
 0001:0007c600       ??0idDamagable@@QAE@XZ     2007d600 f   Misc.obj
 0001:0007c630       ?Save@idDamagable@@QBEXPAVidSaveGame@@@Z 2007d630 f   Misc.obj
 0001:0007c6d0       ?GetClassType@idExplodable@@SAAAVidTypeInfo@@XZ 2007d6d0 f   Misc.obj
 0001:0007c6e0       ?GetType@idExplodable@@UBEPAVidTypeInfo@@XZ 2007d6e0 f   Misc.obj
 0001:0007c6f0       ?Spawn@idExplodable@@QAEXXZ 2007d6f0 f   Misc.obj
 0001:0007c700       ?GetClassType@idSpring@@SAAAVidTypeInfo@@XZ 2007d700 f   Misc.obj
 0001:0007c710       ?GetType@idSpring@@UBEPAVidTypeInfo@@XZ 2007d710 f   Misc.obj
 0001:0007c720       ?Save@idSpring@@QBEXPAVidSaveGame@@@Z 2007d720 f   Misc.obj
 0001:0007c780       ?GetClassType@idForceField@@SAAAVidTypeInfo@@XZ 2007d780 f   Misc.obj
 0001:0007c790       ?GetType@idForceField@@UBEPAVidTypeInfo@@XZ 2007d790 f   Misc.obj
 0001:0007c7a0       ?Toggle@idForceField@@AAEXXZ 2007d7a0 f   Misc.obj
 0001:0007c7c0       ?Think@idForceField@@UAEXXZ 2007d7c0 f   Misc.obj
 0001:0007c7f0       ?Save@idForceField@@QBEXPAVidSaveGame@@@Z 2007d7f0 f   Misc.obj
 0001:0007c810       ?Restore@idForceField@@QAEXPAVidRestoreGame@@@Z 2007d810 f   Misc.obj
 0001:0007c830       ?Event_Toggle@idForceField@@AAEXXZ 2007d830 f   Misc.obj
 0001:0007c840       ?Event_Activate@idForceField@@AAEXPAVidEntity@@@Z 2007d840 f   Misc.obj
 0001:0007c880       ?GetClassType@rvJumpPad@@SAAAVidTypeInfo@@XZ 2007d880 f   Misc.obj
 0001:0007c890       ?GetType@rvJumpPad@@UBEPAVidTypeInfo@@XZ 2007d890 f   Misc.obj
 0001:0007c8a0       ?GetClassType@idAnimated@@SAAAVidTypeInfo@@XZ 2007d8a0 f   Misc.obj
 0001:0007c8b0       ?GetType@idAnimated@@UBEPAVidTypeInfo@@XZ 2007d8b0 f   Misc.obj
 0001:0007c8c0       ?Event_Footstep@idAnimated@@AAEXXZ 2007d8c0 f   Misc.obj
 0001:0007c8e0       ?ShouldConstructScriptObjectAtSpawn@idAnimated@@UBE_NXZ 2007d8e0 f   Misc.obj
 0001:0007c8f0       ?CallHandler@idAnimated@@AAEXPBD@Z 2007d8f0 f   Misc.obj
 0001:0007c930       ?SetState@idAnimated@@AAEXPBDH@Z 2007d930 f   Misc.obj
 0001:0007c9b0       ?GetClassType@idStaticEntity@@SAAAVidTypeInfo@@XZ 2007d9b0 f   Misc.obj
 0001:0007c9c0       ?GetType@idStaticEntity@@UBEPAVidTypeInfo@@XZ 2007d9c0 f   Misc.obj
 0001:0007c9d0       ?Save@idStaticEntity@@QBEXPAVidSaveGame@@@Z 2007d9d0 f   Misc.obj
 0001:0007ca50       ?Restore@idStaticEntity@@QAEXPAVidRestoreGame@@@Z 2007da50 f   Misc.obj
 0001:0007cad0       ?ShowEditingDialog@idStaticEntity@@UAEXXZ 2007dad0 f   Misc.obj
 0001:0007cae0       ?Fade@idStaticEntity@@QAEXABVidVec4@@M@Z 2007dae0 f   Misc.obj
 0001:0007cb60       ?GetClassType@idFuncEmitter@@SAAAVidTypeInfo@@XZ 2007db60 f   Misc.obj
 0001:0007cb70       ?GetType@idFuncEmitter@@UBEPAVidTypeInfo@@XZ 2007db70 f   Misc.obj
 0001:0007cb80       ?Save@idFuncEmitter@@QBEXPAVidSaveGame@@@Z 2007db80 f   Misc.obj
 0001:0007cba0       ?Restore@idFuncEmitter@@QAEXPAVidRestoreGame@@@Z 2007dba0 f   Misc.obj
 0001:0007cbc0       ?GetClassType@idFuncSplat@@SAAAVidTypeInfo@@XZ 2007dbc0 f   Misc.obj
 0001:0007cbd0       ?GetType@idFuncSplat@@UBEPAVidTypeInfo@@XZ 2007dbd0 f   Misc.obj
 0001:0007cbe0       ?Spawn@idFuncSplat@@QAEXXZ 2007dbe0 f   Misc.obj
 0001:0007cbf0       ?GetClassType@idTextEntity@@SAAAVidTypeInfo@@XZ 2007dbf0 f   Misc.obj
 0001:0007cc00       ?GetType@idTextEntity@@UBEPAVidTypeInfo@@XZ 2007dc00 f   Misc.obj
 0001:0007cc10       ?Restore@idTextEntity@@QAEXPAVidRestoreGame@@@Z 2007dc10 f   Misc.obj
 0001:0007cc40       ?GetClassType@idVacuumSeparatorEntity@@SAAAVidTypeInfo@@XZ 2007dc40 f   Misc.obj
 0001:0007cc50       ?GetType@idVacuumSeparatorEntity@@UBEPAVidTypeInfo@@XZ 2007dc50 f   Misc.obj
 0001:0007cc60       ??0idVacuumSeparatorEntity@@QAE@XZ 2007dc60 f   Misc.obj
 0001:0007cc80       ?Save@idVacuumSeparatorEntity@@QBEXPAVidSaveGame@@@Z 2007dc80 f   Misc.obj
 0001:0007ccc0       ?Restore@idVacuumSeparatorEntity@@QAEXPAVidRestoreGame@@@Z 2007dcc0 f   Misc.obj
 0001:0007cd00       ?Event_Activate@idVacuumSeparatorEntity@@QAEXPAVidEntity@@@Z 2007dd00 f   Misc.obj
 0001:0007cd20       ?GetClassType@idLocationSeparatorEntity@@SAAAVidTypeInfo@@XZ 2007dd20 f   Misc.obj
 0001:0007cd30       ?GetType@idLocationSeparatorEntity@@UBEPAVidTypeInfo@@XZ 2007dd30 f   Misc.obj
 0001:0007cd40       ?GetClassType@idVacuumEntity@@SAAAVidTypeInfo@@XZ 2007dd40 f   Misc.obj
 0001:0007cd50       ?GetType@idVacuumEntity@@UBEPAVidTypeInfo@@XZ 2007dd50 f   Misc.obj
 0001:0007cd60       ?GetClassType@rvGravitySeparatorEntity@@SAAAVidTypeInfo@@XZ 2007dd60 f   Misc.obj
 0001:0007cd70       ?GetType@rvGravitySeparatorEntity@@UBEPAVidTypeInfo@@XZ 2007dd70 f   Misc.obj
 0001:0007cd80       ??0rvGravitySeparatorEntity@@QAE@XZ 2007dd80 f   Misc.obj
 0001:0007cda0       ?Save@rvGravitySeparatorEntity@@QBEXPAVidSaveGame@@@Z 2007dda0 f   Misc.obj
 0001:0007cde0       ?Restore@rvGravitySeparatorEntity@@QAEXPAVidRestoreGame@@@Z 2007dde0 f   Misc.obj
 0001:0007ce20       ?Event_Activate@rvGravitySeparatorEntity@@QAEXPAVidEntity@@@Z 2007de20 f   Misc.obj
 0001:0007ce60       ?CreateInstance@rvGravityArea@@SAPAVidClass@@XZ 2007de60 f   Misc.obj
 0001:0007ce80       ?GetClassType@rvGravityArea@@SAAAVidTypeInfo@@XZ 2007de80 f   Misc.obj
 0001:0007ce90       ?GetType@rvGravityArea@@UBEPAVidTypeInfo@@XZ 2007de90 f   Misc.obj
 0001:0007cea0       ?Save@rvGravityArea@@QBEXPAVidSaveGame@@@Z 2007dea0 f   Misc.obj
 0001:0007cec0       ?Restore@rvGravityArea@@QAEXPAVidRestoreGame@@@Z 2007dec0 f   Misc.obj
 0001:0007cee0       ?IsEqualTo@rvGravityArea@@QBE_NPBV1@@Z 2007dee0 f   Misc.obj
 0001:0007cf10       ??8rvGravityArea@@QBE_NPBV0@@Z 2007df10 f   Misc.obj
 0001:0007cf20       ??8rvGravityArea@@QBE_NABV0@@Z 2007df20 f   Misc.obj
 0001:0007cf30       ??9rvGravityArea@@QBE_NPBV0@@Z 2007df30 f   Misc.obj
 0001:0007cf50       ??9rvGravityArea@@QBE_NABV0@@Z 2007df50 f   Misc.obj
 0001:0007cf70       ?GetClassType@rvGravityArea_Static@@SAAAVidTypeInfo@@XZ 2007df70 f   Misc.obj
 0001:0007cf80       ?GetType@rvGravityArea_Static@@UBEPAVidTypeInfo@@XZ 2007df80 f   Misc.obj
 0001:0007cf90       ?Save@rvGravityArea_Static@@QBEXPAVidSaveGame@@@Z 2007df90 f   Misc.obj
 0001:0007cfb0       ?Restore@rvGravityArea_Static@@QAEXPAVidRestoreGame@@@Z 2007dfb0 f   Misc.obj
 0001:0007cfd0       ?GetClassType@rvGravityArea_SurfaceNormal@@SAAAVidTypeInfo@@XZ 2007dfd0 f   Misc.obj
 0001:0007cfe0       ?GetType@rvGravityArea_SurfaceNormal@@UBEPAVidTypeInfo@@XZ 2007dfe0 f   Misc.obj
 0001:0007cff0       ?GetGravity@rvGravityArea_SurfaceNormal@@UBE?BVidVec3@@PBVrvClientEntity@@@Z 2007dff0 f   Misc.obj
 0001:0007d020       ?GetGravity@rvGravityArea_SurfaceNormal@@MBE?BVidVec3@@PBVidPhysics@@@Z 2007e020 f   Misc.obj
 0001:0007d080       ?GetClassType@idLocationEntity@@SAAAVidTypeInfo@@XZ 2007e080 f   Misc.obj
 0001:0007d090       ?GetType@idLocationEntity@@UBEPAVidTypeInfo@@XZ 2007e090 f   Misc.obj
 0001:0007d0a0       ?GetClassType@idBeam@@SAAAVidTypeInfo@@XZ 2007e0a0 f   Misc.obj
 0001:0007d0b0       ?GetType@idBeam@@UBEPAVidTypeInfo@@XZ 2007e0b0 f   Misc.obj
 0001:0007d0c0       ?Spawn@idBeam@@QAEXXZ      2007e0c0 f   Misc.obj
 0001:0007d120       ?SetBeamTarget@idBeam@@QAEXABVidVec3@@@Z 2007e120 f   Misc.obj
 0001:0007d180       ?Event_Activate@idBeam@@AAEXPAVidEntity@@@Z 2007e180 f   Misc.obj
 0001:0007d1b0       ?GetClassType@idLiquid@@SAAAVidTypeInfo@@XZ 2007e1b0 f   Misc.obj
 0001:0007d1c0       ?GetType@idLiquid@@UBEPAVidTypeInfo@@XZ 2007e1c0 f   Misc.obj
 0001:0007d1d0       ?Save@idLiquid@@QBEXPAVidSaveGame@@@Z 2007e1d0 f   Misc.obj
 0001:0007d1e0       ?Spawn@idLiquid@@QAEXXZ    2007e1e0 f   Misc.obj
 0001:0007d1f0       ?Event_Touch@idLiquid@@AAEXPAVidEntity@@PAUtrace_t@@@Z 2007e1f0 f   Misc.obj
 0001:0007d200       ?GetClassType@idShaking@@SAAAVidTypeInfo@@XZ 2007e200 f   Misc.obj
 0001:0007d210       ?GetType@idShaking@@UBEPAVidTypeInfo@@XZ 2007e210 f   Misc.obj
 0001:0007d220       ??0idShaking@@QAE@XZ       2007e220 f   Misc.obj
 0001:0007d280       ??1idShaking@@UAE@XZ       2007e280 f   Misc.obj
 0001:0007d2e0       ?Save@idShaking@@QBEXPAVidSaveGame@@@Z 2007e2e0 f   Misc.obj
 0001:0007d310       ?Restore@idShaking@@QAEXPAVidRestoreGame@@@Z 2007e310 f   Misc.obj
 0001:0007d350       ?GetClassType@idEarthQuake@@SAAAVidTypeInfo@@XZ 2007e350 f   Misc.obj
 0001:0007d360       ?GetType@idEarthQuake@@UBEPAVidTypeInfo@@XZ 2007e360 f   Misc.obj
 0001:0007d370       ??0idEarthQuake@@QAE@XZ    2007e370 f   Misc.obj
 0001:0007d3c0       ?Save@idEarthQuake@@QBEXPAVidSaveGame@@@Z 2007e3c0 f   Misc.obj
 0001:0007d450       ?Restore@idEarthQuake@@QAEXPAVidRestoreGame@@@Z 2007e450 f   Misc.obj
 0001:0007d4f0       ?GetClassType@idFuncPortal@@SAAAVidTypeInfo@@XZ 2007e4f0 f   Misc.obj
 0001:0007d500       ?GetType@idFuncPortal@@UBEPAVidTypeInfo@@XZ 2007e500 f   Misc.obj
 0001:0007d510       ??0idFuncPortal@@QAE@XZ    2007e510 f   Misc.obj
 0001:0007d530       ?Save@idFuncPortal@@QBEXPAVidSaveGame@@@Z 2007e530 f   Misc.obj
 0001:0007d560       ?Restore@idFuncPortal@@QAEXPAVidRestoreGame@@@Z 2007e560 f   Misc.obj
 0001:0007d5b0       ?Event_Activate@idFuncPortal@@AAEXPAVidEntity@@@Z 2007e5b0 f   Misc.obj
 0001:0007d5f0       ?GetClassType@idFuncAASPortal@@SAAAVidTypeInfo@@XZ 2007e5f0 f   Misc.obj
 0001:0007d600       ?GetType@idFuncAASPortal@@UBEPAVidTypeInfo@@XZ 2007e600 f   Misc.obj
 0001:0007d610       ??0idFuncAASPortal@@QAE@XZ 2007e610 f   Misc.obj
 0001:0007d630       ?Save@idFuncAASPortal@@QBEXPAVidSaveGame@@@Z 2007e630 f   Misc.obj
 0001:0007d650       ?GetClassType@idFuncAASObstacle@@SAAAVidTypeInfo@@XZ 2007e650 f   Misc.obj
 0001:0007d660       ?GetType@idFuncAASObstacle@@UBEPAVidTypeInfo@@XZ 2007e660 f   Misc.obj
 0001:0007d670       ??0idFuncAASObstacle@@QAE@XZ 2007e670 f   Misc.obj
 0001:0007d690       ?Save@idFuncAASObstacle@@QBEXPAVidSaveGame@@@Z 2007e690 f   Misc.obj
 0001:0007d6b0       ?GetClassType@idFuncRadioChatter@@SAAAVidTypeInfo@@XZ 2007e6b0 f   Misc.obj
 0001:0007d6c0       ?GetType@idFuncRadioChatter@@UBEPAVidTypeInfo@@XZ 2007e6c0 f   Misc.obj
 0001:0007d6d0       ??0idFuncRadioChatter@@QAE@XZ 2007e6d0 f   Misc.obj
 0001:0007d700       ?Event_IsActive@idFuncRadioChatter@@AAEXXZ 2007e700 f   Misc.obj
 0001:0007d730       ?GetClassType@idPhantomObjects@@SAAAVidTypeInfo@@XZ 2007e730 f   Misc.obj
 0001:0007d740       ?GetType@idPhantomObjects@@UBEPAVidTypeInfo@@XZ 2007e740 f   Misc.obj
 0001:0007d750       ?GetClassType@rvDebugJumpPoint@@SAAAVidTypeInfo@@XZ 2007e750 f   Misc.obj
 0001:0007d760       ?GetType@rvDebugJumpPoint@@UBEPAVidTypeInfo@@XZ 2007e760 f   Misc.obj
 0001:0007d770       ?GetClassType@rvFuncSaveGame@@SAAAVidTypeInfo@@XZ 2007e770 f   Misc.obj
 0001:0007d780       ?GetType@rvFuncSaveGame@@UBEPAVidTypeInfo@@XZ 2007e780 f   Misc.obj
 0001:0007d790       ?Spawn@rvFuncSaveGame@@QAEXXZ 2007e790 f   Misc.obj
 0001:0007d7a0       ?Event_Activate@rvFuncSaveGame@@QAEXPAVidEntity@@@Z 2007e7a0 f   Misc.obj
 0001:0007d7c0       ?CreateInstance@idSpawnableEntity@@SAPAVidClass@@XZ 2007e7c0 f   Misc.obj
 0001:0007d870       ?CreateInstance@idPlayerStart@@SAPAVidClass@@XZ 2007e870 f   Misc.obj
 0001:0007d910       ?TeleportPlayer@idPlayerStart@@AAEXPAVidPlayer@@@Z 2007e910 f   Misc.obj
 0001:0007db30       ?Teleport@idPlayerStart@@AAEXPAVidEntity@@@Z 2007eb30 f   Misc.obj
 0001:0007dc10       ?CreateInstance@idActivator@@SAPAVidClass@@XZ 2007ec10 f   Misc.obj
 0001:0007dcc0       ?Spawn@idActivator@@QAEXXZ 2007ecc0 f   Misc.obj
 0001:0007de40       ?CreateInstance@idPathCorner@@SAPAVidClass@@XZ 2007ee40 f   Misc.obj
 0001:0007def0       ?CreateInstance@idDamagable@@SAPAVidClass@@XZ 2007eef0 f   Misc.obj
 0001:0007df90       ?Restore@idDamagable@@QAEXPAVidRestoreGame@@@Z 2007ef90 f   Misc.obj
 0001:0007e080       ?GetStageVector@idDamagable@@IBE?AVidVec3@@PBD0@Z 2007f080 f   Misc.obj
 0001:0007e190       ?GetStageFloat@idDamagable@@IBEMPBD0@Z 2007f190 f   Misc.obj
 0001:0007e280       ?GetStageInt@idDamagable@@IBEHPBD0@Z 2007f280 f   Misc.obj
 0001:0007e380       ?Event_RestoreDamagable@idDamagable@@IAEXXZ 2007f380 f   Misc.obj
 0001:0007e3c0       ?CreateInstance@idExplodable@@SAPAVidClass@@XZ 2007f3c0 f   Misc.obj
 0001:0007e470       ?Event_Explode@idExplodable@@AAEXPAVidEntity@@@Z 2007f470 f   Misc.obj
 0001:0007e540       ?CreateInstance@idForceField@@SAPAVidClass@@XZ 2007f540 f   Misc.obj
 0001:0007e600       ?Spawn@idForceField@@QAEXXZ 2007f600 f   Misc.obj
 0001:0007e870       ?Event_FindTargets@idForceField@@AAEXXZ 2007f870 f   Misc.obj
 0001:0007e930       ??0rvJumpPad@@QAE@XZ       2007f930 f   Misc.obj
 0001:0007e990       ?Think@rvJumpPad@@UAEXXZ   2007f990 f   Misc.obj
 0001:0007eae0       ?Spawn@rvJumpPad@@QAEXXZ   2007fae0 f   Misc.obj
 0001:0007eb00       ?ClientReceiveEvent@rvJumpPad@@EAE_NHHABVidBitMsg@@@Z 2007fb00 f   Misc.obj
 0001:0007eba0       ??0idAnimated@@QAE@XZ      2007fba0 f   Misc.obj
 0001:0007ec50       ?Save@idAnimated@@QBEXPAVidSaveGame@@@Z 2007fc50 f   Misc.obj
 0001:0007ed10       ?Restore@idAnimated@@QAEXPAVidRestoreGame@@@Z 2007fd10 f   Misc.obj
 0001:0007edd0       ?GetPhysicsToSoundTransform@idAnimated@@UAE_NAAVidVec3@@AAVidMat3@@@Z 2007fdd0 f   Misc.obj
 0001:0007ee50       ?StartRagdoll@idAnimated@@QAE_NXZ 2007fe50 f   Misc.obj
 0001:0007eec0       ?PlayNextAnim@idAnimated@@AAEXXZ 2007fec0 f   Misc.obj
 0001:0007f130       ?Event_StartRagdoll@idAnimated@@AAEXXZ 20080130 f   Misc.obj
 0001:0007f140       ?Event_AnimDone@idAnimated@@AAEXH@Z 20080140 f   Misc.obj
 0001:0007f270       ?Event_Activate@idAnimated@@AAEXPAVidEntity@@@Z 20080270 f   Misc.obj
 0001:0007f320       ?Event_Start@idAnimated@@AAEXXZ 20080320 f   Misc.obj
 0001:0007f480       ?Event_LaunchMissilesUpdate@idAnimated@@AAEXHHHH@Z 20080480 f   Misc.obj
 0001:0007f9d0       ?Event_LaunchMissiles@idAnimated@@AAEXPBD000HH@Z 200809d0 f   Misc.obj
 0001:0007fb40       ?Damage@idAnimated@@UAEXPAVidEntity@@0ABVidVec3@@PBDMH@Z 20080b40 f   Misc.obj
 0001:0007fb60       ?Event_PlayAnim@idAnimated@@AAEXHPBD@Z 20080b60 f   Misc.obj
 0001:0007fc80       ?Event_PlayCycle@idAnimated@@AAEXHPBD@Z 20080c80 f   Misc.obj
 0001:0007fd70       ?Event_AnimDone2@idAnimated@@AAEXHH@Z 20080d70 f   Misc.obj
 0001:0007fdc0       ?Event_SetAnimState@idAnimated@@AAEXPBDH@Z 20080dc0 f   Misc.obj
 0001:0007fe30       ?UpdateScript@idAnimated@@AAEXXZ 20080e30 f   Misc.obj
 0001:0007fed0       ??0idStaticEntity@@QAE@XZ  20080ed0 f   Misc.obj
 0001:0007ff40       ?Spawn@idStaticEntity@@QAEXXZ 20080f40 f   Misc.obj
 0001:00080230       ?Think@idStaticEntity@@UAEXXZ 20081230 f   Misc.obj
 0001:00080460       ?Hide@idStaticEntity@@UAEXXZ 20081460 f   Misc.obj
 0001:00080480       ?Show@idStaticEntity@@UAEXXZ 20081480 f   Misc.obj
 0001:000804d0       ?Event_Activate@idStaticEntity@@AAEXPAVidEntity@@@Z 200814d0 f   Misc.obj
 0001:000805d0       ?WriteToSnapshot@idStaticEntity@@UBEXAAVidBitMsgDelta@@@Z 200815d0 f   Misc.obj
 0001:00080630       ?ReadFromSnapshot@idStaticEntity@@UAEXABVidBitMsgDelta@@@Z 20081630 f   Misc.obj
 0001:000806b0       ??0idFuncEmitter@@QAE@XZ   200816b0 f   Misc.obj
 0001:000806d0       ?Spawn@idFuncEmitter@@QAEXXZ 200816d0 f   Misc.obj
 0001:00080730       ?Event_Activate@idFuncEmitter@@QAEXPAVidEntity@@@Z 20081730 f   Misc.obj
 0001:000807c0       ?WriteToSnapshot@idFuncEmitter@@UBEXAAVidBitMsgDelta@@@Z 200817c0 f   Misc.obj
 0001:00080820       ?ReadFromSnapshot@idFuncEmitter@@UAEXABVidBitMsgDelta@@@Z 20081820 f   Misc.obj
 0001:00080880       ??0idFuncSplat@@QAE@XZ     20081880 f   Misc.obj
 0001:000808a0       ?Event_Splat@idFuncSplat@@AAEXXZ 200818a0 f   Misc.obj
 0001:00080a10       ?Event_Activate@idFuncSplat@@AAEXPAVidEntity@@@Z 20081a10 f   Misc.obj
 0001:00080a80       ?Spawn@idTextEntity@@QAEXXZ 20081a80 f   Misc.obj
 0001:00080b30       ?Save@idTextEntity@@QBEXPAVidSaveGame@@@Z 20081b30 f   Misc.obj
 0001:00080b60       ?Think@idTextEntity@@UAEXXZ 20081b60 f   Misc.obj
 0001:00080d40       ?ClientPredictionThink@idTextEntity@@UAEXXZ 20081d40 f   Misc.obj
 0001:00080f20       ?CreateInstance@idVacuumSeparatorEntity@@SAPAVidClass@@XZ 20081f20 f   Misc.obj
 0001:00080fc0       ?Spawn@idVacuumSeparatorEntity@@QAEXXZ 20081fc0 f   Misc.obj
 0001:000810a0       ?CreateInstance@idLocationSeparatorEntity@@SAPAVidClass@@XZ 200820a0 f   Misc.obj
 0001:00081150       ?Spawn@idLocationSeparatorEntity@@QAEXXZ 20082150 f   Misc.obj
 0001:00081230       ?CreateInstance@idVacuumEntity@@SAPAVidClass@@XZ 20082230 f   Misc.obj
 0001:000812e0       ?Spawn@idVacuumEntity@@QAEXXZ 200822e0 f   Misc.obj
 0001:00081340       ?CreateInstance@rvGravitySeparatorEntity@@SAPAVidClass@@XZ 20082340 f   Misc.obj
 0001:000813e0       ?Spawn@rvGravitySeparatorEntity@@QAEXXZ 200823e0 f   Misc.obj
 0001:000814e0       ?Spawn@rvGravityArea@@QAEXXZ 200824e0 f   Misc.obj
 0001:00081530       ?Spawn@rvGravityArea_Static@@QAEXXZ 20082530 f   Misc.obj
 0001:00081570       ?CreateInstance@rvGravityArea_SurfaceNormal@@SAPAVidClass@@XZ 20082570 f   Misc.obj
 0001:00081620       ?GetGravity@rvGravityArea_SurfaceNormal@@UBE?BVidVec3@@PBVidEntity@@@Z 20082620 f   Misc.obj
 0001:00081650       ?CreateInstance@idLocationEntity@@SAPAVidClass@@XZ 20082650 f   Misc.obj
 0001:00081700       ?GetLocation@idLocationEntity@@QBEPBDXZ 20082700 f   Misc.obj
 0001:00081720       ??0idBeam@@QAE@XZ          20082720 f   Misc.obj
 0001:00081740       ?Save@idBeam@@QBEXPAVidSaveGame@@@Z 20082740 f   Misc.obj
 0001:00081770       ?Restore@idBeam@@QAEXPAVidRestoreGame@@@Z 20082770 f   Misc.obj
 0001:000817a0       ?Think@idBeam@@UAEXXZ      200827a0 f   Misc.obj
 0001:00081830       ?SetMaster@idBeam@@QAEXPAV1@@Z 20082830 f   Misc.obj
 0001:00081860       ?Show@idBeam@@UAEXXZ       20082860 f   Misc.obj
 0001:000818b0       ?WriteToSnapshot@idBeam@@UBEXAAVidBitMsgDelta@@@Z 200828b0 f   Misc.obj
 0001:00081930       ?ReadFromSnapshot@idBeam@@UAEXABVidBitMsgDelta@@@Z 20082930 f   Misc.obj
 0001:000819b0       ?CreateInstance@idLiquid@@SAPAVidClass@@XZ 200829b0 f   Misc.obj
 0001:00081a60       ?Restore@idLiquid@@QAEXPAVidRestoreGame@@@Z 20082a60 f   Misc.obj
 0001:00081a70       ?CreateInstance@idShaking@@SAPAVidClass@@XZ 20082a70 f   Misc.obj
 0001:00081b10       ?BeginShaking@idShaking@@AAEXXZ 20082b10 f   Misc.obj
 0001:00081bf0       ?Event_Activate@idShaking@@AAEXPAVidEntity@@@Z 20082bf0 f   Misc.obj
 0001:00081c60       ?CreateInstance@idEarthQuake@@SAPAVidClass@@XZ 20082c60 f   Misc.obj
 0001:00081d00       ?Spawn@idEarthQuake@@QAEXXZ 20082d00 f   Misc.obj
 0001:00081e70       ?AffectNearbyEntities@idEarthQuake@@IAEXM@Z 20082e70 f   Misc.obj
 0001:00081ff0       ?Think@idEarthQuake@@UAEXXZ 20082ff0 f   Misc.obj
 0001:000820d0       ?CreateInstance@idFuncPortal@@SAPAVidClass@@XZ 200830d0 f   Misc.obj
 0001:00082170       ?Spawn@idFuncPortal@@QAEXXZ 20083170 f   Misc.obj
 0001:00082260       ?CreateInstance@idFuncAASPortal@@SAPAVidClass@@XZ 20083260 f   Misc.obj
 0001:00082300       ?Restore@idFuncAASPortal@@QAEXPAVidRestoreGame@@@Z 20083300 f   Misc.obj
 0001:00082340       ?Spawn@idFuncAASPortal@@QAEXXZ 20083340 f   Misc.obj
 0001:000823a0       ?Event_Activate@idFuncAASPortal@@AAEXPAVidEntity@@@Z 200833a0 f   Misc.obj
 0001:000823d0       ?CreateInstance@idFuncAASObstacle@@SAPAVidClass@@XZ 200833d0 f   Misc.obj
 0001:00082470       ?Restore@idFuncAASObstacle@@QAEXPAVidRestoreGame@@@Z 20083470 f   Misc.obj
 0001:000824b0       ?Spawn@idFuncAASObstacle@@QAEXXZ 200834b0 f   Misc.obj
 0001:00082510       ?Event_Activate@idFuncAASObstacle@@AAEXPAVidEntity@@@Z 20083510 f   Misc.obj
 0001:00082540       ?SetState@idFuncAASObstacle@@QAEX_N@Z 20083540 f   Misc.obj
 0001:00082570       ?CreateInstance@idFuncRadioChatter@@SAPAVidClass@@XZ 20083570 f   Misc.obj
 0001:00082610       ?Save@idFuncRadioChatter@@QBEXPAVidSaveGame@@@Z 20083610 f   Misc.obj
 0001:00082650       ?Restore@idFuncRadioChatter@@QAEXPAVidRestoreGame@@@Z 20083650 f   Misc.obj
 0001:00082690       ?Spawn@idFuncRadioChatter@@QAEXXZ 20083690 f   Misc.obj
 0001:000826e0       ?Event_ResetRadioHud@idFuncRadioChatter@@AAEXPAVidEntity@@@Z 200836e0 f   Misc.obj
 0001:00082740       ?Save@idPhantomObjects@@QBEXPAVidSaveGame@@@Z 20083740 f   Misc.obj
 0001:00082840       ?Spawn@idPhantomObjects@@QAEXXZ 20083840 f   Misc.obj
 0001:000829e0       ?Think@idPhantomObjects@@UAEXXZ 200839e0 f   Misc.obj
 0001:00082e30       ?CreateInstance@rvDebugJumpPoint@@SAPAVidClass@@XZ 20083e30 f   Misc.obj
 0001:00082ee0       ?Spawn@rvDebugJumpPoint@@QAEXXZ 20083ee0 f   Misc.obj
 0001:00082f40       ?CreateInstance@rvFuncSaveGame@@SAPAVidClass@@XZ 20083f40 f   Misc.obj
 0001:00082ff0       ?RegisterClassA@idSpawnableEntity@@SAXXZ 20083ff0 f   Misc.obj
 0001:00083080       ?Register_idSpawnableEntity@@YAXXZ 20084080 f   Misc.obj
 0001:00083090       ?RegisterClassA@idPlayerStart@@SAXXZ 20084090 f   Misc.obj
 0001:00083120       ?Register_idPlayerStart@@YAXXZ 20084120 f   Misc.obj
 0001:00083130       ?Event_TeleportStage@idPlayerStart@@AAEXPAVidPlayer@@@Z 20084130 f   Misc.obj
 0001:000832d0       ?Event_TeleportEntity@idPlayerStart@@AAEXPAVidEntity@@_NAAVidVec3@@@Z 200842d0 f   Misc.obj
 0001:000836a0       ?Event_Teleport@idPlayerStart@@AAEXPAVidEntity@@@Z 200846a0 f   Misc.obj
 0001:000836c0       ?RegisterClassA@idActivator@@SAXXZ 200846c0 f   Misc.obj
 0001:00083750       ?Register_idActivator@@YAXXZ 20084750 f   Misc.obj
 0001:00083760       ?RegisterClassA@idPathCorner@@SAXXZ 20084760 f   Misc.obj
 0001:000837f0       ?Register_idPathCorner@@YAXXZ 200847f0 f   Misc.obj
 0001:00083800       ?DrawDebugInfo@idPathCorner@@SAXXZ 20084800 f   Misc.obj
 0001:000838d0       ?RandomPath@idPathCorner@@SAPAV1@PBVidEntity@@0@Z 200848d0 f   Misc.obj
 0001:00083990       ?Event_RandomPath@idPathCorner@@AAEXXZ 20084990 f   Misc.obj
 0001:000839b0       ?Spawn@idDamagable@@QAEXXZ 200849b0 f   Misc.obj
 0001:00083c20       ?BecomeBroken@idDamagable@@IAEXPAVidEntity@@@Z 20084c20 f   Misc.obj
 0001:00083ec0       ?Killed@idDamagable@@UAEXPAVidEntity@@0HABVidVec3@@H@Z 20084ec0 f   Misc.obj
 0001:00083ef0       ?UpdateStage@idDamagable@@IAEXXZ 20084ef0 f   Misc.obj
 0001:00084090       ?ExecuteStage@idDamagable@@MAEXXZ 20085090 f   Misc.obj
 0001:00084930       ?Event_BecomeBroken@idDamagable@@IAEXPAVidEntity@@@Z 20085930 f   Misc.obj
 0001:00084950       ?RegisterClassA@idExplodable@@SAXXZ 20085950 f   Misc.obj
 0001:000849e0       ?Register_idExplodable@@YAXXZ 200859e0 f   Misc.obj
 0001:000849f0       ?CreateInstance@idSpring@@SAPAVidClass@@XZ 200859f0 f   Misc.obj
 0001:00084ab0       ?Think@idSpring@@UAEXXZ    20085ab0 f   Misc.obj
 0001:00084e50       ?Event_LinkSpring@idSpring@@AAEXXZ 20085e50 f   Misc.obj
 0001:00085180       ?Spawn@idSpring@@QAEXXZ    20086180 f   Misc.obj
 0001:000852c0       ?Restore@idSpring@@QAEXPAVidRestoreGame@@@Z 200862c0 f   Misc.obj
 0001:00085320       ?RegisterClassA@idForceField@@SAXXZ 20086320 f   Misc.obj
 0001:000853b0       ?Register_idForceField@@YAXXZ 200863b0 f   Misc.obj
 0001:000853c0       ?CreateInstance@rvJumpPad@@SAPAVidClass@@XZ 200863c0 f   Misc.obj
 0001:00085460       ?Event_FindTargets@rvJumpPad@@AAEXXZ 20086460 f   Misc.obj
 0001:000857d0       ?CreateInstance@idAnimated@@SAPAVidClass@@XZ 200867d0 f   Misc.obj
 0001:00085870       ??1idAnimated@@UAE@XZ      20086870 f   Misc.obj
 0001:00085930       ?Spawn@idAnimated@@QAEXXZ  20086930 f   Misc.obj
 0001:00085df0       ?LoadAF@idAnimated@@UAE_NPBD@Z 20086df0 f   Misc.obj
 0001:00085f00       ?Think@idAnimated@@UAEXXZ  20086f00 f   Misc.obj
 0001:00085f10       ?CreateInstance@idStaticEntity@@SAPAVidClass@@XZ 20086f10 f   Misc.obj
 0001:00085fb0       ?CreateInstance@idFuncEmitter@@SAPAVidClass@@XZ 20086fb0 f   Misc.obj
 0001:00086050       ?CreateInstance@idFuncSplat@@SAPAVidClass@@XZ 20087050 f   Misc.obj
 0001:000860f0       ?CreateInstance@idTextEntity@@SAPAVidClass@@XZ 200870f0 f   Misc.obj
 0001:000861b0       ?RegisterClassA@idVacuumSeparatorEntity@@SAXXZ 200871b0 f   Misc.obj
 0001:00086240       ?Register_idVacuumSeparatorEntity@@YAXXZ 20087240 f   Misc.obj
 0001:00086250       ?RegisterClassA@idLocationSeparatorEntity@@SAXXZ 20087250 f   Misc.obj
 0001:000862e0       ?Register_idLocationSeparatorEntity@@YAXXZ 200872e0 f   Misc.obj
 0001:000862f0       ?RegisterClassA@idVacuumEntity@@SAXXZ 200872f0 f   Misc.obj
 0001:00086380       ?Register_idVacuumEntity@@YAXXZ 20087380 f   Misc.obj
 0001:00086390       ?RegisterClassA@rvGravitySeparatorEntity@@SAXXZ 20087390 f   Misc.obj
 0001:00086420       ?Register_rvGravitySeparatorEntity@@YAXXZ 20087420 f   Misc.obj
 0001:00086430       ?RegisterClassA@rvGravityArea@@SAXXZ 20087430 f   Misc.obj
 0001:000864c0       ?Register_rvGravityArea@@YAXXZ 200874c0 f   Misc.obj
 0001:000864d0       ?CreateInstance@rvGravityArea_Static@@SAPAVidClass@@XZ 200874d0 f   Misc.obj
 0001:00086580       ?RegisterClassA@rvGravityArea_SurfaceNormal@@SAXXZ 20087580 f   Misc.obj
 0001:00086610       ?Register_rvGravityArea_SurfaceNormal@@YAXXZ 20087610 f   Misc.obj
 0001:00086620       ?GetGravity@rvGravityArea_SurfaceNormal@@UBE?BVidVec3@@ABV2@ABVidMat3@@HPAVidEntity@@@Z 20087620 f   Misc.obj
 0001:00086740       ?Spawn@idLocationEntity@@QAEXXZ 20087740 f   Misc.obj
 0001:00086810       ?CreateInstance@idBeam@@SAPAVidClass@@XZ 20087810 f   Misc.obj
 0001:000868b0       ?Event_MatchTarget@idBeam@@AAEXXZ 200878b0 f   Misc.obj
 0001:000869b0       ?RegisterClassA@idLiquid@@SAXXZ 200879b0 f   Misc.obj
 0001:00086a40       ?Register_idLiquid@@YAXXZ  20087a40 f   Misc.obj
 0001:00086a50       ?Spawn@idShaking@@QAEXXZ   20087a50 f   Misc.obj
 0001:00086b90       ?RegisterClassA@idEarthQuake@@SAXXZ 20087b90 f   Misc.obj
 0001:00086c20       ?Register_idEarthQuake@@YAXXZ 20087c20 f   Misc.obj
 0001:00086c30       ?Event_Activate@idEarthQuake@@AAEXPAVidEntity@@@Z 20087c30 f   Misc.obj
 0001:00086ef0       ?RegisterClassA@idFuncPortal@@SAXXZ 20087ef0 f   Misc.obj
 0001:00086f80       ?Register_idFuncPortal@@YAXXZ 20087f80 f   Misc.obj
 0001:00086f90       ?RegisterClassA@idFuncAASPortal@@SAXXZ 20087f90 f   Misc.obj
 0001:00087020       ?Register_idFuncAASPortal@@YAXXZ 20088020 f   Misc.obj
 0001:00087030       ?RegisterClassA@idFuncAASObstacle@@SAXXZ 20088030 f   Misc.obj
 0001:000870c0       ?Register_idFuncAASObstacle@@YAXXZ 200880c0 f   Misc.obj
 0001:000870d0       ?RegisterClassA@idFuncRadioChatter@@SAXXZ 200880d0 f   Misc.obj
 0001:00087160       ?Register_idFuncRadioChatter@@YAXXZ 20088160 f   Misc.obj
 0001:00087170       ?Event_Activate@idFuncRadioChatter@@AAEXPAVidEntity@@@Z 20088170 f   Misc.obj
 0001:000872f0       ?RepeatLast@idFuncRadioChatter@@SAXXZ 200882f0 f   Misc.obj
 0001:00087350       ??0idPhantomObjects@@QAE@XZ 20088350 f   Misc.obj
 0001:00087410       ?Restore@idPhantomObjects@@QAEXPAVidRestoreGame@@@Z 20088410 f   Misc.obj
 0001:00087980       ?Event_Activate@idPhantomObjects@@AAEXPAVidEntity@@@Z 20088980 f   Misc.obj
 0001:00087e20       ?RegisterClassA@rvDebugJumpPoint@@SAXXZ 20088e20 f   Misc.obj
 0001:00087eb0       ?Register_rvDebugJumpPoint@@YAXXZ 20088eb0 f   Misc.obj
 0001:00087ec0       ?RegisterClassA@rvFuncSaveGame@@SAXXZ 20088ec0 f   Misc.obj
 0001:00087f50       ?Register_rvFuncSaveGame@@YAXXZ 20088f50 f   Misc.obj
 0001:00087f60       ?ClientReceiveEvent@idPlayerStart@@UAE_NHHABVidBitMsg@@@Z 20088f60 f   Misc.obj
 0001:00088050       ?RegisterClassA@idDamagable@@SAXXZ 20089050 f   Misc.obj
 0001:000880e0       ?Register_idDamagable@@YAXXZ 200890e0 f   Misc.obj
 0001:000880f0       ?Damage@idDamagable@@UAEXPAVidEntity@@0ABVidVec3@@PBDMH@Z 200890f0 f   Misc.obj
 0001:00088250       ?RegisterClassA@idSpring@@SAXXZ 20089250 f   Misc.obj
 0001:000882e0       ?Register_idSpring@@YAXXZ  200892e0 f   Misc.obj
 0001:000882f0       ?RegisterClassA@rvJumpPad@@SAXXZ 200892f0 f   Misc.obj
 0001:00088380       ?Register_rvJumpPad@@YAXXZ 20089380 f   Misc.obj
 0001:00088390       ?RegisterClassA@idAnimated@@SAXXZ 20089390 f   Misc.obj
 0001:00088420       ?Register_idAnimated@@YAXXZ 20089420 f   Misc.obj
 0001:00088430       ?RegisterClassA@idStaticEntity@@SAXXZ 20089430 f   Misc.obj
 0001:000884c0       ?Register_idStaticEntity@@YAXXZ 200894c0 f   Misc.obj
 0001:000884d0       ?RegisterClassA@idFuncEmitter@@SAXXZ 200894d0 f   Misc.obj
 0001:00088560       ?Register_idFuncEmitter@@YAXXZ 20089560 f   Misc.obj
 0001:00088570       ?RegisterClassA@idFuncSplat@@SAXXZ 20089570 f   Misc.obj
 0001:00088600       ?Register_idFuncSplat@@YAXXZ 20089600 f   Misc.obj
 0001:00088610       ?RegisterClassA@idTextEntity@@SAXXZ 20089610 f   Misc.obj
 0001:000886a0       ?Register_idTextEntity@@YAXXZ 200896a0 f   Misc.obj
 0001:000886b0       ?RegisterClassA@rvGravityArea_Static@@SAXXZ 200896b0 f   Misc.obj
 0001:00088740       ?Register_rvGravityArea_Static@@YAXXZ 20089740 f   Misc.obj
 0001:00088750       ?RegisterClassA@idLocationEntity@@SAXXZ 20089750 f   Misc.obj
 0001:000887e0       ?Register_idLocationEntity@@YAXXZ 200897e0 f   Misc.obj
 0001:000887f0       ?RegisterClassA@idBeam@@SAXXZ 200897f0 f   Misc.obj
 0001:00088880       ?Register_idBeam@@YAXXZ    20089880 f   Misc.obj
 0001:00088890       ?RegisterClassA@idShaking@@SAXXZ 20089890 f   Misc.obj
 0001:00088920       ?Register_idShaking@@YAXXZ 20089920 f   Misc.obj
 0001:00088930       ?CreateInstance@idPhantomObjects@@SAPAVidClass@@XZ 20089930 f   Misc.obj
 0001:000889d0       ?RegisterClassA@idPhantomObjects@@SAXXZ 200899d0 f   Misc.obj
 0001:00088a60       ?Register_idPhantomObjects@@YAXXZ 20089a60 f   Misc.obj
 0001:00088a70       ?GetArea@rvGravityArea@@UBEHXZ 20089a70 f i Misc.obj
 0001:00088a80       ??_EidSpring@@UAEPAXI@Z    20089a80 f i Misc.obj
 0001:00088a80       ??_GidSpring@@UAEPAXI@Z    20089a80 f i Misc.obj
 0001:00088af0       ??_GidForceField@@UAEPAXI@Z 20089af0 f i Misc.obj
 0001:00088af0       ??_GrvJumpPad@@UAEPAXI@Z   20089af0 f i Misc.obj
 0001:00088af0       ??_ErvJumpPad@@UAEPAXI@Z   20089af0 f i Misc.obj
 0001:00088af0       ??_EidForceField@@UAEPAXI@Z 20089af0 f i Misc.obj
 0001:00088b60       ?GetGravity@rvGravityArea_Static@@UBE?BVidVec3@@ABV2@ABVidMat3@@HPAVidEntity@@@Z 20089b60 f i Misc.obj
 0001:00088b90       ?GetGravity@rvGravityArea_Static@@UBE?BVidVec3@@PBVrvClientEntity@@@Z 20089b90 f i Misc.obj
 0001:00088b90       ?GetGravity@rvGravityArea_Static@@UBE?BVidVec3@@PBVidEntity@@@Z 20089b90 f i Misc.obj
 0001:00088bc0       ??_GidShaking@@UAEPAXI@Z   20089bc0 f i Misc.obj
 0001:00088bc0       ??_EidShaking@@UAEPAXI@Z   20089bc0 f i Misc.obj
 0001:00088bf0       ??_EidTextEntity@@UAEPAXI@Z 20089bf0 f i Misc.obj
 0001:00088bf0       ??_GidTextEntity@@UAEPAXI@Z 20089bf0 f i Misc.obj
 0001:00088c60       ??1idPhantomObjects@@UAE@XZ 20089c60 f i Misc.obj
 0001:00088d30       ??_GidAnimated@@UAEPAXI@Z  20089d30 f i Misc.obj
 0001:00088d30       ??_EidAnimated@@UAEPAXI@Z  20089d30 f i Misc.obj
 0001:00088d60       ??_EidPhantomObjects@@UAEPAXI@Z 20089d60 f i Misc.obj
 0001:00088d60       ??_GidPhantomObjects@@UAEPAXI@Z 20089d60 f i Misc.obj
 0001:00088d90       ?GetClassType@idMoveable@@SAAAVidTypeInfo@@XZ 20089d90 f   Moveable.obj
 0001:00088da0       ?GetType@idMoveable@@UBEPAVidTypeInfo@@XZ 20089da0 f   Moveable.obj
 0001:00088db0       ?Hide@idMoveable@@UAEXXZ   20089db0 f   Moveable.obj
 0001:00088dd0       ?Killed@idMoveable@@UAEXPAVidEntity@@0HABVidVec3@@H@Z 20089dd0 f   Moveable.obj
 0001:00088de0       ?AddDamageEffect@idMoveable@@UAEXABUtrace_t@@ABVidVec3@@PBDPAVidEntity@@@Z 20089de0 f   Moveable.obj
 0001:00088e40       ?AllowStep@idMoveable@@QBE_NXZ 20089e40 f   Moveable.obj
 0001:00088e50       ?BecomeNonSolid@idMoveable@@IAEXXZ 20089e50 f   Moveable.obj
 0001:00088e80       ?GetRenderModelMaterial@idMoveable@@IBEPBVidMaterial@@XZ 20089e80 f   Moveable.obj
 0001:00088ec0       ?WriteToSnapshot@idMoveable@@UBEXAAVidBitMsgDelta@@@Z 20089ec0 f   Moveable.obj
 0001:00088ee0       ?Event_BecomeNonSolid@idMoveable@@IAEXXZ 20089ee0 f   Moveable.obj
 0001:00088ef0       ?Event_IsAtRest@idMoveable@@IAEXXZ 20089ef0 f   Moveable.obj
 0001:00088f10       ?Event_CanDamage@idMoveable@@IAEXM@Z 20089f10 f   Moveable.obj
 0001:00088f40       ?Event_SetHealth@idMoveable@@IAEXM@Z 20089f40 f   Moveable.obj
 0001:00088f60       ?GetClassType@idBarrel@@SAAAVidTypeInfo@@XZ 20089f60 f   Moveable.obj
 0001:00088f70       ?GetType@idBarrel@@UBEPAVidTypeInfo@@XZ 20089f70 f   Moveable.obj
 0001:00088f80       ?Save@idBarrel@@QBEXPAVidSaveGame@@@Z 20089f80 f   Moveable.obj
 0001:00088ff0       ?Restore@idBarrel@@QAEXPAVidRestoreGame@@@Z 20089ff0 f   Moveable.obj
 0001:00089060       ?ClientPredictionThink@idBarrel@@UAEXXZ 2008a060 f   Moveable.obj
 0001:00089070       ?GetClassType@idExplodingBarrel@@SAAAVidTypeInfo@@XZ 2008a070 f   Moveable.obj
 0001:00089080       ?GetType@idExplodingBarrel@@UBEPAVidTypeInfo@@XZ 2008a080 f   Moveable.obj
 0001:00089090       ?Save@idExplodingBarrel@@QBEXPAVidSaveGame@@@Z 2008a090 f   Moveable.obj
 0001:00089140       ?Event_TriggerTargets@idExplodingBarrel@@AAEXXZ 2008a140 f   Moveable.obj
 0001:00089150       ?Event_Explode@idExplodingBarrel@@AAEXXZ 2008a150 f   Moveable.obj
 0001:00089190       ?Event_Activate@idExplodingBarrel@@AAEXPAVidEntity@@@Z 2008a190 f   Moveable.obj
 0001:000891b0       ?WriteToSnapshot@idExplodingBarrel@@UBEXAAVidBitMsgDelta@@@Z 2008a1b0 f   Moveable.obj
 0001:000891f0       ??0idMoveable@@QAE@XZ      2008a1f0 f   Moveable.obj
 0001:000892e0       ??1idMoveable@@UAE@XZ      2008a2e0 f   Moveable.obj
 0001:00089380       ?Show@idMoveable@@UAEXXZ   2008a380 f   Moveable.obj
 0001:000893d0       ?Collide@idMoveable@@UAE_NABUtrace_t@@ABVidVec3@@@Z 2008a3d0 f   Moveable.obj
 0001:00089650       ?Damage@idMoveable@@UAEXPAVidEntity@@0ABVidVec3@@PBDMH@Z 2008a650 f   Moveable.obj
 0001:000896b0       ?ExecuteStage@idMoveable@@MAEXXZ 2008a6b0 f   Moveable.obj
 0001:00089740       ?EnableDamage@idMoveable@@QAEX_NM@Z 2008a740 f   Moveable.obj
 0001:000897a0       ?ReadFromSnapshot@idMoveable@@UAEXABVidBitMsgDelta@@@Z 2008a7a0 f   Moveable.obj
 0001:000897e0       ?Event_RadiusDamage@idMoveable@@IAEXPAVidEntity@@PBD@Z 2008a7e0 f   Moveable.obj
 0001:00089820       ?BarrelThink@idBarrel@@QAEXXZ 2008a820 f   Moveable.obj
 0001:00089c80       ?GetPhysicsToVisualTransform@idBarrel@@UAE_NAAVidVec3@@AAVidMat3@@@Z 2008ac80 f   Moveable.obj
 0001:00089d00       ??1idExplodingBarrel@@UAE@XZ 2008ad00 f   Moveable.obj
 0001:00089d80       ?Restore@idExplodingBarrel@@QAEXPAVidRestoreGame@@@Z 2008ad80 f   Moveable.obj
 0001:00089eb0       ?Spawn@idExplodingBarrel@@QAEXXZ 2008aeb0 f   Moveable.obj
 0001:0008a030       ?Think@idExplodingBarrel@@UAEXXZ 2008b030 f   Moveable.obj
 0001:0008a2d0       ?AddIPS@idExplodingBarrel@@AAEXPBD_N@Z 2008b2d0 f   Moveable.obj
 0001:0008a4d0       ?AddLight@idExplodingBarrel@@AAEXPBD_N@Z 2008b4d0 f   Moveable.obj
 0001:0008a660       ?ExplodingEffects@idExplodingBarrel@@AAEXXZ 2008b660 f   Moveable.obj
 0001:0008a7a0       ?Killed@idExplodingBarrel@@UAEXPAVidEntity@@0HABVidVec3@@H@Z 2008b7a0 f   Moveable.obj
 0001:0008aa40       ?Damage@idExplodingBarrel@@UAEXPAVidEntity@@0ABVidVec3@@PBDMH@Z 2008ba40 f   Moveable.obj
 0001:0008aae0       ?Event_Respawn@idExplodingBarrel@@AAEXXZ 2008bae0 f   Moveable.obj
 0001:0008abd0       ?ReadFromSnapshot@idExplodingBarrel@@UAEXABVidBitMsgDelta@@@Z 2008bbd0 f   Moveable.obj
 0001:0008ac30       ?CreateInstance@idMoveable@@SAPAVidClass@@XZ 2008bc30 f   Moveable.obj
 0001:0008acd0       ?Spawn@idMoveable@@QAEXXZ  2008bcd0 f   Moveable.obj
 0001:0008b4e0       ?Save@idMoveable@@QBEXPAVidSaveGame@@@Z 2008c4e0 f   Moveable.obj
 0001:0008b5c0       ?InitInitialSpline@idMoveable@@IAEXH@Z 2008c5c0 f   Moveable.obj
 0001:0008b8d0       ?FollowInitialSplinePath@idMoveable@@IAE_NXZ 2008c8d0 f   Moveable.obj
 0001:0008bc70       ?Think@idMoveable@@UAEXXZ  2008cc70 f   Moveable.obj
 0001:0008bcb0       ?Event_Activate@idMoveable@@IAEXPAVidEntity@@@Z 2008ccb0 f   Moveable.obj
 0001:0008be50       ?Event_SetOwnerFromSpawnArgs@idMoveable@@IAEXXZ 2008ce50 f   Moveable.obj
 0001:0008bf30       ??0idBarrel@@QAE@XZ        2008cf30 f   Moveable.obj
 0001:0008c050       ?Think@idBarrel@@UAEXXZ    2008d050 f   Moveable.obj
 0001:0008c080       ?Spawn@idBarrel@@QAEXXZ    2008d080 f   Moveable.obj
 0001:0008c1c0       ??0idExplodingBarrel@@QAE@XZ 2008d1c0 f   Moveable.obj
 0001:0008c280       ?Restore@idMoveable@@QAEXPAVidRestoreGame@@@Z 2008d280 f   Moveable.obj
 0001:0008c360       ?CreateInstance@idBarrel@@SAPAVidClass@@XZ 2008d360 f   Moveable.obj
 0001:0008c400       ?CreateInstance@idExplodingBarrel@@SAPAVidClass@@XZ 2008d400 f   Moveable.obj
 0001:0008c4a0       ?RegisterClassA@idMoveable@@SAXXZ 2008d4a0 f   Moveable.obj
 0001:0008c530       ?Register_idMoveable@@YAXXZ 2008d530 f   Moveable.obj
 0001:0008c540       ?RegisterClassA@idBarrel@@SAXXZ 2008d540 f   Moveable.obj
 0001:0008c5d0       ?Register_idBarrel@@YAXXZ  2008d5d0 f   Moveable.obj
 0001:0008c5e0       ?RegisterClassA@idExplodingBarrel@@SAXXZ 2008d5e0 f   Moveable.obj
 0001:0008c670       ?Register_idExplodingBarrel@@YAXXZ 2008d670 f   Moveable.obj
 0001:0008c680       ??1idBarrel@@UAE@XZ        2008d680 f i Moveable.obj
 0001:0008c690       ??_EidBarrel@@UAEPAXI@Z    2008d690 f i Moveable.obj
 0001:0008c690       ??_GidBarrel@@UAEPAXI@Z    2008d690 f i Moveable.obj
 0001:0008c690       ??_EidMoveable@@UAEPAXI@Z  2008d690 f i Moveable.obj
 0001:0008c690       ??_GidMoveable@@UAEPAXI@Z  2008d690 f i Moveable.obj
 0001:0008c6c0       ??_EidExplodingBarrel@@UAEPAXI@Z 2008d6c0 f i Moveable.obj
 0001:0008c6c0       ??_GidExplodingBarrel@@UAEPAXI@Z 2008d6c0 f i Moveable.obj
 0001:0008c6f0       ?GetClassType@idMover@@SAAAVidTypeInfo@@XZ 2008d6f0 f   Mover.obj
 0001:0008c700       ?GetType@idMover@@UBEPAVidTypeInfo@@XZ 2008d700 f   Mover.obj
 0001:0008c710       ?Hide@idMover@@UAEXXZ      2008d710 f   Mover.obj
 0001:0008c730       ?Killed@idMover@@UAEXPAVidEntity@@0HABVidVec3@@H@Z 2008d730 f   Mover.obj
 0001:0008c750       ?Event_SetCallback@idMover@@AAEXXZ 2008d750 f   Mover.obj
 0001:0008c7c0       ?FindGuiTargets@idMover@@IAEXXZ 2008d7c0 f   Mover.obj
 0001:0008c7e0       ?Event_FindGuiTargets@idMover@@AAEXXZ 2008d7e0 f   Mover.obj
 0001:0008c7f0       ?Event_StopMoving@idMover@@AAEXXZ 2008d7f0 f   Mover.obj
 0001:0008c820       ?DoneMoving@idMover@@MAEXXZ 2008d820 f   Mover.obj
 0001:0008c8a0       ?UpdateMoveSound@idMover@@IAEXW4moveStage_t@1@@Z 2008d8a0 f   Mover.obj
 0001:0008c980       ?Event_StopRotating@idMover@@AAEXXZ 2008d980 f   Mover.obj
 0001:0008c9d0       ?DoneRotating@idMover@@MAEXXZ 2008d9d0 f   Mover.obj
 0001:0008ca10       ?UpdateRotationSound@idMover@@IAEXW4moveStage_t@1@@Z 2008da10 f   Mover.obj
 0001:0008cac0       ?Event_SetMoveSpeed@idMover@@AAEXM@Z 2008dac0 f   Mover.obj
 0001:0008cb00       ?Event_SetAccelSound@idMover@@AAEXPBD@Z 2008db00 f   Mover.obj
 0001:0008cb10       ?Event_SetDecelSound@idMover@@AAEXPBD@Z 2008db10 f   Mover.obj
 0001:0008cb20       ?Event_SetStoppedSound@idMover@@AAEXPBD@Z 2008db20 f   Mover.obj
 0001:0008cb30       ?Event_SetMoveSound@idMover@@AAEXPBD@Z 2008db30 f   Mover.obj
 0001:0008cb40       ?Event_EnableSplineAngles@idMover@@AAEXXZ 2008db40 f   Mover.obj
 0001:0008cb50       ?Event_DisableSplineAngles@idMover@@AAEXXZ 2008db50 f   Mover.obj
 0001:0008cb60       ?Event_IsMoving@idMover@@AAEXXZ 2008db60 f   Mover.obj
 0001:0008cb90       ?Event_IsRotating@idMover@@AAEXXZ 2008db90 f   Mover.obj
 0001:0008cbc0       ?WriteToSnapshot@idMover@@UBEXAAVidBitMsgDelta@@@Z 2008dbc0 f   Mover.obj
 0001:0008cc30       ?SetPortalState@idMover@@QAEX_N@Z 2008dc30 f   Mover.obj
 0001:0008cc60       ?State_Accel@idMover@@IAE?AW4stateResult_t@@ABUstateParms_t@@@Z 2008dc60 f   Mover.obj
 0001:0008cd00       ?State_Linear@idMover@@IAE?AW4stateResult_t@@ABUstateParms_t@@@Z 2008dd00 f   Mover.obj
 0001:0008cd90       ?State_Decel@idMover@@IAE?AW4stateResult_t@@ABUstateParms_t@@@Z 2008dd90 f   Mover.obj
 0001:0008ce00       ?GetClassType@idSplinePath@@SAAAVidTypeInfo@@XZ 2008de00 f   Mover.obj
 0001:0008ce10       ?GetType@idSplinePath@@UBEPAVidTypeInfo@@XZ 2008de10 f   Mover.obj
 0001:0008ce20       ?Save@idSplinePath@@QBEXPAVidSaveGame@@@Z 2008de20 f   Mover.obj
 0001:0008ce40       ?Restore@idSplinePath@@QAEXPAVidRestoreGame@@@Z 2008de40 f   Mover.obj
 0001:0008ce60       ?GetSampledTime@idSplinePath@@QBEMM@Z 2008de60 f   Mover.obj
 0001:0008cf30       ?GetClassType@idElevator@@SAAAVidTypeInfo@@XZ 2008df30 f   Mover.obj
 0001:0008cf40       ?GetType@idElevator@@UBEPAVidTypeInfo@@XZ 2008df40 f   Mover.obj
 0001:0008cf50       ?SetAASAreaState@idElevator@@IAEX_N@Z 2008df50 f   Mover.obj
 0001:0008cfd0       ?GetClassType@idMover_Binary@@SAAAVidTypeInfo@@XZ 2008dfd0 f   Mover.obj
 0001:0008cfe0       ?GetType@idMover_Binary@@UBEPAVidTypeInfo@@XZ 2008dfe0 f   Mover.obj
 0001:0008cff0       ?Event_SetCallback@idMover_Binary@@IAEXXZ 2008dff0 f   Mover.obj
 0001:0008d030       ?UpdateMoverSound@idMover_Binary@@IAEXW4moverState_t@@@Z 2008e030 f   Mover.obj
 0001:0008d070       ?SetMoverState@idMover_Binary@@IAEXW4moverState_t@@H@Z 2008e070 f   Mover.obj
 0001:0008d2d0       ?MatchActivateTeam@idMover_Binary@@IAEXW4moverState_t@@H@Z 2008e2d0 f   Mover.obj
 0001:0008d300       ?Enable@idMover_Binary@@QAEX_N@Z 2008e300 f   Mover.obj
 0001:0008d310       ?Event_MatchActivateTeam@idMover_Binary@@IAEXW4moverState_t@@H@Z 2008e310 f   Mover.obj
 0001:0008d320       ?BindTeam@idMover_Binary@@QAEXPAVidEntity@@@Z 2008e320 f   Mover.obj
 0001:0008d350       ?JoinActivateTeam@idMover_Binary@@IAEXPAV1@@Z 2008e350 f   Mover.obj
 0001:0008d370       ?Event_Enable@idMover_Binary@@IAEXXZ 2008e370 f   Mover.obj
 0001:0008d3a0       ?Event_Disable@idMover_Binary@@IAEXXZ 2008e3a0 f   Mover.obj
 0001:0008d3d0       ?Event_ReturnToPos1@idMover_Binary@@IAEXXZ 2008e3d0 f   Mover.obj
 0001:0008d3e0       ?PreBind@idMover_Binary@@UAEXXZ 2008e3e0 f   Mover.obj
 0001:0008d440       ?PostBind@idMover_Binary@@UAEXXZ 2008e440 f   Mover.obj
 0001:0008d4a0       ?FindGuiTargets@idMover_Binary@@IAEXXZ 2008e4a0 f   Mover.obj
 0001:0008d4c0       ?Event_FindGuiTargets@idMover_Binary@@IAEXXZ 2008e4c0 f   Mover.obj
 0001:0008d4d0       ?InitSpeed@idMover_Binary@@QAEXAAVidVec3@@0MMM@Z 2008e4d0 f   Mover.obj
 0001:0008d660       ?InitTime@idMover_Binary@@QAEXAAVidVec3@@0MMM@Z 2008e660 f   Mover.obj
 0001:0008d780       ?IsBlocked@idMover_Binary@@QAE_NXZ 2008e780 f   Mover.obj
 0001:0008d790       ?WriteToSnapshot@idMover_Binary@@UBEXAAVidBitMsgDelta@@@Z 2008e790 f   Mover.obj
 0001:0008d7d0       ?SetPortalState@idMover_Binary@@QAEX_N@Z 2008e7d0 f   Mover.obj
 0001:0008d800       ?GetClassType@idDoor@@SAAAVidTypeInfo@@XZ 2008e800 f   Mover.obj
 0001:0008d810       ?GetType@idDoor@@UBEPAVidTypeInfo@@XZ 2008e810 f   Mover.obj
 0001:0008d820       ?PreBind@idDoor@@UAEXXZ    2008e820 f   Mover.obj
 0001:0008d830       ?SetAASAreaState@idDoor@@AAEX_N@Z 2008e830 f   Mover.obj
 0001:0008d870       ?IsOpen@idDoor@@QAE_NXZ    2008e870 f   Mover.obj
 0001:0008d880       ?IsNoTouch@idDoor@@QAE_NXZ 2008e880 f   Mover.obj
 0001:0008d890       ?SetCompanion@idDoor@@QAEXPAV1@@Z 2008e890 f   Mover.obj
 0001:0008d8a0       ?Event_PartBlocked@idDoor@@AAEXPAVidEntity@@@Z 2008e8a0 f   Mover.obj
 0001:0008d8e0       ?Event_IsOpen@idDoor@@AAEXXZ 2008e8e0 f   Mover.obj
 0001:0008d910       ?GetClassType@idPlat@@SAAAVidTypeInfo@@XZ 2008e910 f   Mover.obj
 0001:0008d920       ?GetType@idPlat@@UBEPAVidTypeInfo@@XZ 2008e920 f   Mover.obj
 0001:0008d930       ?Save@idPlat@@QBEXPAVidSaveGame@@@Z 2008e930 f   Mover.obj
 0001:0008d970       ?Restore@idPlat@@QAEXPAVidRestoreGame@@@Z 2008e970 f   Mover.obj
 0001:0008d9b0       ?Think@idPlat@@UAEXXZ      2008e9b0 f   Mover.obj
 0001:0008dbd0       ?PreBind@idPlat@@UAEXXZ    2008ebd0 f   Mover.obj
 0001:0008dbe0       ?Event_PartBlocked@idPlat@@AAEXPAVidEntity@@@Z 2008ebe0 f   Mover.obj
 0001:0008dc20       ?GetClassType@idMover_Periodic@@SAAAVidTypeInfo@@XZ 2008ec20 f   Mover.obj
 0001:0008dc30       ?GetType@idMover_Periodic@@UBEPAVidTypeInfo@@XZ 2008ec30 f   Mover.obj
 0001:0008dc40       ??0idMover_Periodic@@QAE@XZ 2008ec40 f   Mover.obj
 0001:0008dca0       ??1idMover_Periodic@@UAE@XZ 2008eca0 f   Mover.obj
 0001:0008dd00       ?Save@idMover_Periodic@@QBEXPAVidSaveGame@@@Z 2008ed00 f   Mover.obj
 0001:0008dd30       ?Restore@idMover_Periodic@@QAEXPAVidRestoreGame@@@Z 2008ed30 f   Mover.obj
 0001:0008dd70       ?Think@idMover_Periodic@@UAEXXZ 2008ed70 f   Mover.obj
 0001:0008dd90       ?Event_PartBlocked@idMover_Periodic@@IAEXPAVidEntity@@@Z 2008ed90 f   Mover.obj
 0001:0008ddd0       ?WriteToSnapshot@idMover_Periodic@@UBEXAAVidBitMsgDelta@@@Z 2008edd0 f   Mover.obj
 0001:0008de00       ?GetClassType@idRotater@@SAAAVidTypeInfo@@XZ 2008ee00 f   Mover.obj
 0001:0008de10       ?GetType@idRotater@@UBEPAVidTypeInfo@@XZ 2008ee10 f   Mover.obj
 0001:0008de20       ?GetClassType@idBobber@@SAAAVidTypeInfo@@XZ 2008ee20 f   Mover.obj
 0001:0008de30       ?GetType@idBobber@@UBEPAVidTypeInfo@@XZ 2008ee30 f   Mover.obj
 0001:0008de40       ??0idBobber@@QAE@XZ        2008ee40 f   Mover.obj
 0001:0008de60       ?GetClassType@idPendulum@@SAAAVidTypeInfo@@XZ 2008ee60 f   Mover.obj
 0001:0008de70       ?GetType@idPendulum@@UBEPAVidTypeInfo@@XZ 2008ee70 f   Mover.obj
 0001:0008de80       ??0idPendulum@@QAE@XZ      2008ee80 f   Mover.obj
 0001:0008dea0       ?GetClassType@idRiser@@SAAAVidTypeInfo@@XZ 2008eea0 f   Mover.obj
 0001:0008deb0       ?GetType@idRiser@@UBEPAVidTypeInfo@@XZ 2008eeb0 f   Mover.obj
 0001:0008dec0       ??0idRiser@@QAE@XZ         2008eec0 f   Mover.obj
 0001:0008dee0       ?GetClassType@rvConveyor@@SAAAVidTypeInfo@@XZ 2008eee0 f   Mover.obj
 0001:0008def0       ?GetType@rvConveyor@@UBEPAVidTypeInfo@@XZ 2008eef0 f   Mover.obj
 0001:0008df00       ??0rvConveyor@@QAE@XZ      2008ef00 f   Mover.obj
 0001:0008df20       ?Save@rvConveyor@@QBEXPAVidSaveGame@@@Z 2008ef20 f   Mover.obj
 0001:0008df50       ?Restore@rvConveyor@@QAEXPAVidRestoreGame@@@Z 2008ef50 f   Mover.obj
 0001:0008df80       ?GetClassType@rvPusher@@SAAAVidTypeInfo@@XZ 2008ef80 f   Mover.obj
 0001:0008df90       ?GetType@rvPusher@@UBEPAVidTypeInfo@@XZ 2008ef90 f   Mover.obj
 0001:0008dfa0       ?Spawn@rvPusher@@UAEXXZ    2008efa0 f   Mover.obj
 0001:0008dfb0       ?Spawn@idMover@@QAEXXZ     2008efb0 f   Mover.obj
 0001:0008e580       ?Think@idMover@@UAEXXZ     2008f580 f   Mover.obj
 0001:0008e730       ?GetPhysicsToVisualTransform@idMover@@EAE_NAAVidVec3@@AAVidMat3@@@Z 2008f730 f   Mover.obj
 0001:0008e7a0       ?MoveAlongVector@idMover@@AAEXABVidVec3@@@Z 2008f7a0 f   Mover.obj
 0001:0008e870       ?Event_MoveAlongVector@idMover@@AAEXABVidVec3@@@Z 2008f870 f   Mover.obj
 0001:0008e880       ?Show@idMover@@UAEXXZ      2008f880 f   Mover.obj
 0001:0008e8e0       ?VectorForDir@idMover@@AAEXMAAVidVec3@@@Z 2008f8e0 f   Mover.obj
 0001:0008eb60       ?SetGuiState@idMover@@IBEXPBD0@Z 2008fb60 f   Mover.obj
 0001:0008ec40       ?SetGuiStates@idMover@@IAEXPBD@Z 2008fc40 f   Mover.obj
 0001:0008ecb0       ?Event_InitGuiTargets@idMover@@AAEXXZ 2008fcb0 f   Mover.obj
 0001:0008ecc0       ?Event_UpdateMove@idMover@@AAEXXZ 2008fcc0 f   Mover.obj
 0001:0008ee30       ?BeginMove@idMover@@MAEXPAVidThread@@@Z 2008fe30 f   Mover.obj
 0001:0008f0f0       ?Event_UpdateRotation@idMover@@AAEXXZ 200900f0 f   Mover.obj
 0001:0008f310       ?BeginRotation@idMover@@MAEXPAVidThread@@_N@Z 20090310 f   Mover.obj
 0001:0008f580       ?Event_TeamBlocked@idMover@@AAEXPAVidEntity@@0@Z 20090580 f   Mover.obj
 0001:0008f7b0       ?Event_PartBlocked@idMover@@IAEXPAVidEntity@@@Z 200907b0 f   Mover.obj
 0001:0008f820       ?Event_SetMoveTime@idMover@@AAEXM@Z 20090820 f   Mover.obj
 0001:0008f870       ?Event_SetAccellerationTime@idMover@@AAEXM@Z 20090870 f   Mover.obj
 0001:0008f8c0       ?Event_SetDecelerationTime@idMover@@AAEXM@Z 200908c0 f   Mover.obj
 0001:0008f910       ?Event_MoveTo@idMover@@AAEXPAVidEntity@@@Z 20090910 f   Mover.obj
 0001:0008f990       ?MoveToPos@idMover@@IAEXABVidVec3@@@Z 20090990 f   Mover.obj
 0001:0008f9e0       ?Event_MoveToPos@idMover@@AAEXAAVidVec3@@@Z 200909e0 f   Mover.obj
 0001:0008f9f0       ?Event_MoveDir@idMover@@AAEXMM@Z 200909f0 f   Mover.obj
 0001:0008fa90       ?Event_MoveAccelerateTo@idMover@@AAEXMM@Z 20090a90 f   Mover.obj
 0001:0008fc70       ?Event_MoveDecelerateTo@idMover@@AAEXMM@Z 20090c70 f   Mover.obj
 0001:0008fe50       ?Event_RotateDownTo@idMover@@AAEXHM@Z 20090e50 f   Mover.obj
 0001:0008fed0       ?Event_RotateUpTo@idMover@@AAEXHM@Z 20090ed0 f   Mover.obj
 0001:0008ff50       ?Event_RotateTo@idMover@@AAEXAAVidAngles@@@Z 20090f50 f   Mover.obj
 0001:0008ff90       ?Event_Rotate@idMover@@AAEXAAVidAngles@@@Z 20090f90 f   Mover.obj
 0001:00090070       ?Event_RotateOnce@idMover@@AAEXAAVidAngles@@@Z 20091070 f   Mover.obj
 0001:000900f0       ?Event_Bob@idMover@@AAEXMMAAVidVec3@@@Z 200910f0 f   Mover.obj
 0001:00090170       ?Event_Sway@idMover@@AAEXMMAAVidAngles@@@Z 20091170 f   Mover.obj
 0001:00090240       ?Event_OpenPortal@idMover@@IAEXXZ 20091240 f   Mover.obj
 0001:00090260       ?Event_ClosePortal@idMover@@IAEXXZ 20091260 f   Mover.obj
 0001:00090280       ?Event_RemoveInitialSplineAngles@idMover@@AAEXXZ 20091280 f   Mover.obj
 0001:00090300       ?Event_StopSpline@idMover@@AAEXXZ 20091300 f   Mover.obj
 0001:00090330       ?ReadFromSnapshot@idMover@@UAEXABVidBitMsgDelta@@@Z 20091330 f   Mover.obj
 0001:000903f0       ?Event_GetSplineEntity@idMover@@AAEXXZ 200913f0 f   Mover.obj
 0001:00090430       ?ActivateTargets@idSplinePath@@QBEXPAVidEntity@@ABV?$idList@V?$idEntityPtr@VidEntity@@@@@@@Z 20091430 f   Mover.obj
 0001:00090500       ?ActivateTargets@idSplinePath@@UBEXPAVidEntity@@@Z 20091500 f   Mover.obj
 0001:00090530       ?Event_IsActive@idSplinePath@@IAEXXZ 20091530 f   Mover.obj
 0001:00090540       ?Save@idElevator@@QBEXPAVidSaveGame@@@Z 20091540 f   Mover.obj
 0001:00090630       ?Event_Touch@idElevator@@IAEXPAVidEntity@@PAUtrace_t@@@Z 20091630 f   Mover.obj
 0001:00090720       ?GetFloorInfo@idElevator@@QAEPAUfloorInfo_s@@H@Z 20091720 f   Mover.obj
 0001:00090770       ?GetDoor@idElevator@@AAEPAVidDoor@@PBD@Z 20091770 f   Mover.obj
 0001:00090810       ?DisableAllDoors@idElevator@@AAEXXZ 20091810 f   Mover.obj
 0001:00090890       ?EnableProperDoors@idElevator@@AAEXXZ 20091890 f   Mover.obj
 0001:00090920       ?InitStatusGui@idElevator@@IAEXPAVidUserInterface@@@Z 20091920 f   Mover.obj
 0001:00090af0       ?UpdateStatusGui@idElevator@@IAEXPAVidUserInterface@@@Z 20091af0 f   Mover.obj
 0001:00090c40       ?UpdateStatusGuis@idElevator@@IAEXXZ 20091c40 f   Mover.obj
 0001:00090d00       ?Save@idMover_Binary@@QBEXPAVidSaveGame@@@Z 20091d00 f   Mover.obj
 0001:00090f20       ?GetMovedir@idMover_Binary@@KAXMAAVidVec3@@@Z 20091f20 f   Mover.obj
 0001:00090fb0       ?Event_OpenPortal@idMover_Binary@@IAEXXZ 20091fb0 f   Mover.obj
 0001:00090fe0       ?Event_ClosePortal@idMover_Binary@@IAEXXZ 20091fe0 f   Mover.obj
 0001:00091020       ?UpdateBuddies@idMover_Binary@@QAEXH@Z 20092020 f   Mover.obj
 0001:000910a0       ?SetGuiState@idMover_Binary@@IBEXPBD0@Z 200920a0 f   Mover.obj
 0001:00091160       ?Event_InitGuiTargets@idMover_Binary@@IAEXXZ 20092160 f   Mover.obj
 0001:00091180       ?GetActivator@idMover_Binary@@QBEPAVidEntity@@XZ 20092180 f   Mover.obj
 0001:000911b0       ?ReadFromSnapshot@idMover_Binary@@UAEXABVidBitMsgDelta@@@Z 200921b0 f   Mover.obj
 0001:00091220       ?Save@idDoor@@QBEXPAVidSaveGame@@@Z 20092220 f   Mover.obj
 0001:00091320       ?Restore@idDoor@@QAEXPAVidRestoreGame@@@Z 20092320 f   Mover.obj
 0001:00091420       ?Think@idDoor@@UAEXXZ      20092420 f   Mover.obj
 0001:00091820       ?GetLocalTriggerPosition@idDoor@@AAEXPBVidClipModel@@@Z 20092820 f   Mover.obj
 0001:00091a10       ?IsLocked@idDoor@@QAEHXZ   20092a10 f   Mover.obj
 0001:00091a40       ?SetDoorFrameController@idDoor@@QAEXPAVidEntity@@@Z 20092a40 f   Mover.obj
 0001:00091a70       ?Event_StartOpen@idDoor@@AAEXXZ 20092a70 f   Mover.obj
 0001:00091b30       ?Event_SpectatorTouch@idDoor@@AAEXPAVidEntity@@PAUtrace_t@@@Z 20092b30 f   Mover.obj
 0001:00091c80       ?Event_Locked@idDoor@@AAEXXZ 20092c80 f   Mover.obj
 0001:00091cc0       ?GetLocalTriggerPosition@idPlat@@AAEXPBVidClipModel@@@Z 20092cc0 f   Mover.obj
 0001:00091eb0       ?SpawnPlatTrigger@idPlat@@AAEXAAVidVec3@@@Z 20092eb0 f   Mover.obj
 0001:00092090       ?CreateInstance@idMover_Periodic@@SAPAVidClass@@XZ 20093090 f   Mover.obj
 0001:00092130       ?Spawn@idMover_Periodic@@QAEXXZ 20093130 f   Mover.obj
 0001:00092190       ?Event_TeamBlocked@idMover_Periodic@@IAEXPAVidEntity@@0@Z 20093190 f   Mover.obj
 0001:00092390       ?ReadFromSnapshot@idMover_Periodic@@UAEXABVidBitMsgDelta@@@Z 20093390 f   Mover.obj
 0001:000923d0       ??0idRotater@@QAE@XZ       200933d0 f   Mover.obj
 0001:00092410       ?Spawn@idRotater@@QAEXXZ   20093410 f   Mover.obj
 0001:00092600       ?Save@idRotater@@QBEXPAVidSaveGame@@@Z 20093600 f   Mover.obj
 0001:00092620       ?Restore@idRotater@@QAEXPAVidRestoreGame@@@Z 20093620 f   Mover.obj
 0001:00092640       ?Event_Activate@idRotater@@AAEXPAVidEntity@@@Z 20093640 f   Mover.obj
 0001:00092770       ?CreateInstance@idBobber@@SAPAVidClass@@XZ 20093770 f   Mover.obj
 0001:00092810       ?Spawn@idBobber@@QAEXXZ    20093810 f   Mover.obj
 0001:00092a70       ?CreateInstance@idPendulum@@SAPAVidClass@@XZ 20093a70 f   Mover.obj
 0001:00092b10       ?Spawn@idPendulum@@QAEXXZ  20093b10 f   Mover.obj
 0001:00092e00       ?CreateInstance@idRiser@@SAPAVidClass@@XZ 20093e00 f   Mover.obj
 0001:00092ea0       ?Spawn@idRiser@@QAEXXZ     20093ea0 f   Mover.obj
 0001:00093040       ?Event_Activate@idRiser@@AAEXPAVidEntity@@@Z 20094040 f   Mover.obj
 0001:00093130       ?CreateInstance@rvConveyor@@SAPAVidClass@@XZ 20094130 f   Mover.obj
 0001:000931d0       ?Spawn@rvConveyor@@QAEXXZ  200941d0 f   Mover.obj
 0001:000932a0       ?Event_FindTargets@rvConveyor@@AAEXXZ 200942a0 f   Mover.obj
 0001:00093480       ?Save@idMover@@QBEXPAVidSaveGame@@@Z 20094480 f   Mover.obj
 0001:00093740       ?Event_PostRestoreExt@idMover@@AAEXHHHH_N@Z 20094740 f   Mover.obj
 0001:00093900       ?rvSortByActiveState@@YAHPBX0@Z 20094900 f   Mover.obj
 0001:000939d0       ?SortTargets@idSplinePath@@QAEHAAV?$idList@V?$idEntityPtr@VidEntity@@@@@@@Z 200949d0 f   Mover.obj
 0001:00093a40       ?SortTargets@idSplinePath@@QAEHXZ 20094a40 f   Mover.obj
 0001:00093a50       ?SortBackwardsTargets@idSplinePath@@QAEHXZ 20094a50 f   Mover.obj
 0001:00093a60       ?SetGuiStates@idMover_Binary@@QAEXPBD@Z 20094a60 f   Mover.obj
 0001:00093ac0       ?SetBlocked@idMover_Binary@@QAEX_N@Z 20094ac0 f   Mover.obj
 0001:00093b80       ?PostBind@idDoor@@UAEXXZ   20094b80 f   Mover.obj
 0001:00093bb0       ?Hide@idDoor@@UAEXXZ       20094bb0 f   Mover.obj
 0001:00093c70       ?Show@idDoor@@UAEXXZ       20094c70 f   Mover.obj
 0001:00093d60       ?CalcTriggerBounds@idDoor@@AAEXMAAVidBounds@@@Z 20094d60 f   Mover.obj
 0001:00093f40       ?ActivateTargets@idDoor@@UBEXPAVidEntity@@@Z 20094f40 f   Mover.obj
 0001:00093fb0       ?Event_SpawnDoorTrigger@idDoor@@AAEXXZ 20094fb0 f   Mover.obj
 0001:00094200       ?Event_SpawnSoundTrigger@idDoor@@AAEXXZ 20095200 f   Mover.obj
 0001:00094320       ?Event_ReturnToPos1@idDoor@@AAEXXZ 20095320 f   Mover.obj
 0001:00094360       ?Event_OpenPortal@idDoor@@AAEXXZ 20095360 f   Mover.obj
 0001:000943c0       ?Event_ClosePortal@idDoor@@AAEXXZ 200953c0 f   Mover.obj
 0001:00094440       ?Spawn@idPlat@@QAEXXZ      20095440 f   Mover.obj
 0001:00094610       ?PostBind@idPlat@@UAEXXZ   20095610 f   Mover.obj
 0001:00094630       ?RegisterClassA@idMover_Periodic@@SAXXZ 20095630 f   Mover.obj
 0001:000946c0       ?Register_idMover_Periodic@@YAXXZ 200956c0 f   Mover.obj
 0001:000946d0       ?CreateInstance@idRotater@@SAPAVidClass@@XZ 200956d0 f   Mover.obj
 0001:00094770       ?RegisterClassA@idBobber@@SAXXZ 20095770 f   Mover.obj
 0001:00094800       ?Register_idBobber@@YAXXZ  20095800 f   Mover.obj
 0001:00094810       ?RegisterClassA@idPendulum@@SAXXZ 20095810 f   Mover.obj
 0001:000948a0       ?Register_idPendulum@@YAXXZ 200958a0 f   Mover.obj
 0001:000948b0       ?RegisterClassA@idRiser@@SAXXZ 200958b0 f   Mover.obj
 0001:00094940       ?Register_idRiser@@YAXXZ   20095940 f   Mover.obj
 0001:00094950       ?RegisterClassA@rvConveyor@@SAXXZ 20095950 f   Mover.obj
 0001:000949e0       ?Register_rvConveyor@@YAXXZ 200959e0 f   Mover.obj
 0001:000949f0       ?Think@rvConveyor@@UAEXXZ  200959f0 f   Mover.obj
 0001:00094ba0       ?Think@rvPusher@@UAEXXZ    20095ba0 f   Mover.obj
 0001:00095020       ??0idMover@@QAE@XZ         20096020 f   Mover.obj
 0001:000951b0       ??1idMover@@UAE@XZ         200961b0 f   Mover.obj
 0001:00095270       ?Restore@idMover@@QAEXPAVidRestoreGame@@@Z 20096270 f   Mover.obj
 0001:00095700       ?Event_StartSpline@idMover@@AAEXPAVidEntity@@@Z 20096700 f   Mover.obj
 0001:00096720       ?Event_Activate@idMover@@AAEXPAVidEntity@@@Z 20097720 f   Mover.obj
 0001:00096740       ??0idSplinePath@@QAE@XZ    20097740 f   Mover.obj
 0001:000967b0       ??1idSplinePath@@UAE@XZ    200977b0 f   Mover.obj
 0001:00096880       ?FindTargets@idSplinePath@@MAEXXZ 20097880 f   Mover.obj
 0001:000969d0       ?RemoveNullTargets@idSplinePath@@QAEXAAV?$idList@V?$idEntityPtr@VidEntity@@@@@@@Z 200979d0 f   Mover.obj
 0001:00096a80       ?RemoveNullTargets@idSplinePath@@UAEXXZ 20097a80 f   Mover.obj
 0001:00096aa0       ?SampleSpline@idSplinePath@@IAEXXZ 20097aa0 f   Mover.obj
 0001:00097ce0       ??0idMover_Binary@@QAE@XZ  20098ce0 f   Mover.obj
 0001:00097e80       ??1idMover_Binary@@UAE@XZ  20098e80 f   Mover.obj
 0001:00097fe0       ?Restore@idMover_Binary@@QAEXPAVidRestoreGame@@@Z 20098fe0 f   Mover.obj
 0001:00098730       ?Spawn@idMover_Binary@@QAEXXZ 20099730 f   Mover.obj
 0001:00098f10       ?Event_Reached_BinaryMover@idMover_Binary@@IAEXXZ 20099f10 f   Mover.obj
 0001:000990e0       ?GotoPosition1@idMover_Binary@@QAEXXZ 2009a0e0 f   Mover.obj
 0001:000991e0       ?GotoPosition2@idMover_Binary@@QAEXXZ 2009a1e0 f   Mover.obj
 0001:000992a0       ?Use_BinaryMover@idMover_Binary@@QAEXPAVidEntity@@@Z 2009a2a0 f   Mover.obj
 0001:00099510       ?Event_Use_BinaryMover@idMover_Binary@@IAEXPAVidEntity@@@Z 2009a510 f   Mover.obj
 0001:00099520       ??0idDoor@@QAE@XZ          2009a520 f   Mover.obj
 0001:00099700       ??1idDoor@@UAE@XZ          2009a700 f   Mover.obj
 0001:000997f0       ?Spawn@idDoor@@QAEXXZ      2009a7f0 f   Mover.obj
 0001:0009a0b0       ?Use@idDoor@@QAEXPAVidEntity@@0@Z 2009b0b0 f   Mover.obj
 0001:0009a140       ?Open@idDoor@@QAEXXZ       2009b140 f   Mover.obj
 0001:0009a150       ?Close@idDoor@@QAEXXZ      2009b150 f   Mover.obj
 0001:0009a160       ?Lock@idDoor@@QAEXH@Z      2009b160 f   Mover.obj
 0001:0009a2a0       ?Event_Reached_BinaryMover@idDoor@@AAEXXZ 2009b2a0 f   Mover.obj
 0001:0009a3b0       ?Event_TeamBlocked@idDoor@@AAEXPAVidEntity@@0@Z 2009b3b0 f   Mover.obj
 0001:0009a610       ?Event_Touch@idDoor@@AAEXPAVidEntity@@PAUtrace_t@@@Z 2009b610 f   Mover.obj
 0001:0009a780       ?Event_Activate@idDoor@@AAEXPAVidEntity@@@Z 2009b780 f   Mover.obj
 0001:0009a900       ?Event_Open@idDoor@@AAEXXZ 2009b900 f   Mover.obj
 0001:0009a910       ?Event_Close@idDoor@@AAEXXZ 2009b910 f   Mover.obj
 0001:0009a920       ?Event_Lock@idDoor@@AAEXH@Z 2009b920 f   Mover.obj
 0001:0009a930       ??0idPlat@@QAE@XZ          2009b930 f   Mover.obj
 0001:0009a9d0       ??1idPlat@@UAE@XZ          2009b9d0 f   Mover.obj
 0001:0009aa50       ?Event_Touch@idPlat@@AAEXPAVidEntity@@PAUtrace_t@@@Z 2009ba50 f   Mover.obj
 0001:0009aab0       ?Event_TeamBlocked@idPlat@@AAEXPAVidEntity@@0@Z 2009bab0 f   Mover.obj
 0001:0009ab00       ?RegisterClassA@idRotater@@SAXXZ 2009bb00 f   Mover.obj
 0001:0009ab90       ?Register_idRotater@@YAXXZ 2009bb90 f   Mover.obj
 0001:0009aba0       ??0rvPusher@@QAE@XZ        2009bba0 f   Mover.obj
 0001:0009abc0       ??1rvPusher@@UAE@XZ        2009bbc0 f   Mover.obj
 0001:0009abd0       ?CreateInstance@idMover@@SAPAVidClass@@XZ 2009bbd0 f   Mover.obj
 0001:0009ac70       ?CreateInstance@idSplinePath@@SAPAVidClass@@XZ 2009bc70 f   Mover.obj
 0001:0009ad10       ?Spawn@idSplinePath@@QAEXXZ 2009bd10 f   Mover.obj
 0001:0009ad50       ??0idElevator@@QAE@XZ      2009bd50 f   Mover.obj
 0001:0009ae40       ?Restore@idElevator@@QAEXPAVidRestoreGame@@@Z 2009be40 f   Mover.obj
 0001:0009b320       ?UpdateFloorInfo@idElevator@@IAEXXZ 2009c320 f   Mover.obj
 0001:0009b8c0       ?Event_UpdateFloorInfo@idElevator@@AAEXXZ 2009c8c0 f   Mover.obj
 0001:0009b8d0       ?OpenFloorDoor@idElevator@@AAEXH@Z 2009c8d0 f   Mover.obj
 0001:0009b900       ?OpenInnerDoor@idElevator@@AAEXXZ 2009c900 f   Mover.obj
 0001:0009b940       ?Event_PostFloorArrival@idElevator@@AAEXXZ 2009c940 f   Mover.obj
 0001:0009b9c0       ?DoneMoving@idElevator@@MAEXXZ 2009c9c0 f   Mover.obj
 0001:0009bb20       ?CloseAllDoors@idElevator@@AAEXXZ 2009cb20 f   Mover.obj
 0001:0009bb90       ?CreateInstance@idMover_Binary@@SAPAVidClass@@XZ 2009cb90 f   Mover.obj
 0001:0009bc30       ?CreateInstance@idDoor@@SAPAVidClass@@XZ 2009cc30 f   Mover.obj
 0001:0009bcd0       ?CreateInstance@idPlat@@SAPAVidClass@@XZ 2009ccd0 f   Mover.obj
 0001:0009bd70       ?CreateInstance@rvPusher@@SAPAVidClass@@XZ 2009cd70 f   Mover.obj
 0001:0009be10       ?RegisterClassA@idMover@@SAXXZ 2009ce10 f   Mover.obj
 0001:0009bea0       ?Register_idMover@@YAXXZ   2009cea0 f   Mover.obj
 0001:0009beb0       ?RegisterClassA@idSplinePath@@SAXXZ 2009ceb0 f   Mover.obj
 0001:0009bf40       ?Register_idSplinePath@@YAXXZ 2009cf40 f   Mover.obj
 0001:0009bf50       ?CreateInstance@idElevator@@SAPAVidClass@@XZ 2009cf50 f   Mover.obj
 0001:0009bff0       ?Spawn@idElevator@@QAEXXZ  2009cff0 f   Mover.obj
 0001:0009c0e0       ?HandleSingleGuiCommand@idElevator@@UAE_NPAVidEntity@@PAVidLexer@@@Z 2009d0e0 f   Mover.obj
 0001:0009c2c0       ?Event_GotoFloor@idElevator@@AAEXH@Z 2009d2c0 f   Mover.obj
 0001:0009c370       ?BeginMove@idElevator@@MAEXPAVidThread@@@Z 2009d370 f   Mover.obj
 0001:0009c3d0       ?RegisterClassA@idMover_Binary@@SAXXZ 2009d3d0 f   Mover.obj
 0001:0009c460       ?Register_idMover_Binary@@YAXXZ 2009d460 f   Mover.obj
 0001:0009c470       ?RegisterClassA@idDoor@@SAXXZ 2009d470 f   Mover.obj
 0001:0009c500       ?Register_idDoor@@YAXXZ    2009d500 f   Mover.obj
 0001:0009c510       ?RegisterClassA@idPlat@@SAXXZ 2009d510 f   Mover.obj
 0001:0009c5a0       ?Register_idPlat@@YAXXZ    2009d5a0 f   Mover.obj
 0001:0009c5b0       ?RegisterClassA@rvPusher@@SAXXZ 2009d5b0 f   Mover.obj
 0001:0009c640       ?Register_rvPusher@@YAXXZ  2009d640 f   Mover.obj
 0001:0009c650       ?RegisterClassA@idElevator@@SAXXZ 2009d650 f   Mover.obj
 0001:0009c6e0       ?Register_idElevator@@YAXXZ 2009d6e0 f   Mover.obj
 0001:0009c6f0       ?Think@idElevator@@EAEXXZ  2009d6f0 f   Mover.obj
 0001:0009c910       ?Event_Activate@idElevator@@AAEXPAVidEntity@@@Z 2009d910 f   Mover.obj
 0001:0009c980       ?Event_TeamBlocked@idElevator@@AAEXPAVidEntity@@0@Z 2009d980 f   Mover.obj
 0001:0009cc20       ??_9rvPusher@@$BBHE@AE     2009dc20 f i Mover.obj
 0001:0009cc30       ?SetAxisOffset@idPhysics_Parametric@@QAEXABVidMat3@@@Z 2009dc30 f i Mover.obj
 0001:0009cca0       ??0floorInfo_s@@QAE@XZ     2009dca0 f i Mover.obj
 0001:0009ccc0       ??1floorInfo_s@@QAE@XZ     2009dcc0 f i Mover.obj
 0001:0009ccd0       ??_GidRotater@@UAEPAXI@Z   2009dcd0 f i Mover.obj
 0001:0009ccd0       ??_GidBobber@@UAEPAXI@Z    2009dcd0 f i Mover.obj
 0001:0009ccd0       ??_GidMover_Periodic@@UAEPAXI@Z 2009dcd0 f i Mover.obj
 0001:0009ccd0       ??_EidPendulum@@UAEPAXI@Z  2009dcd0 f i Mover.obj
 0001:0009ccd0       ??_GidRiser@@UAEPAXI@Z     2009dcd0 f i Mover.obj
 0001:0009ccd0       ??_GidPendulum@@UAEPAXI@Z  2009dcd0 f i Mover.obj
 0001:0009ccd0       ??_EidBobber@@UAEPAXI@Z    2009dcd0 f i Mover.obj
 0001:0009ccd0       ??_EidRiser@@UAEPAXI@Z     2009dcd0 f i Mover.obj
 0001:0009ccd0       ??_EidMover_Periodic@@UAEPAXI@Z 2009dcd0 f i Mover.obj
 0001:0009ccd0       ??_EidRotater@@UAEPAXI@Z   2009dcd0 f i Mover.obj
 0001:0009cd00       ?Event_Toggle@idSplinePath@@IAEXPAVidEntity@@@Z 2009dd00 f i Mover.obj
 0001:0009cd20       ??1?$idList@UfloorInfo_s@@@@QAE@XZ 2009dd20 f i Mover.obj
 0001:0009cd80       ??_GidMover@@UAEPAXI@Z     2009dd80 f i Mover.obj
 0001:0009cd80       ??_EidMover@@UAEPAXI@Z     2009dd80 f i Mover.obj
 0001:0009cdb0       ??_GidSplinePath@@UAEPAXI@Z 2009ddb0 f i Mover.obj
 0001:0009cdb0       ??_EidSplinePath@@UAEPAXI@Z 2009ddb0 f i Mover.obj
 0001:0009cde0       ??1idElevator@@UAE@XZ      2009dde0 f i Mover.obj
 0001:0009ce80       ??_EidMover_Binary@@UAEPAXI@Z 2009de80 f i Mover.obj
 0001:0009ce80       ??_GidMover_Binary@@UAEPAXI@Z 2009de80 f i Mover.obj
 0001:0009ceb0       ??_EidDoor@@UAEPAXI@Z      2009deb0 f i Mover.obj
 0001:0009ceb0       ??_GidDoor@@UAEPAXI@Z      2009deb0 f i Mover.obj
 0001:0009cee0       ??_GidPlat@@UAEPAXI@Z      2009dee0 f i Mover.obj
 0001:0009cee0       ??_EidPlat@@UAEPAXI@Z      2009dee0 f i Mover.obj
 0001:0009cf10       ??_ErvPusher@@UAEPAXI@Z    2009df10 f i Mover.obj
 0001:0009cf10       ??_GrvPusher@@UAEPAXI@Z    2009df10 f i Mover.obj
 0001:0009cf40       ??_EidElevator@@UAEPAXI@Z  2009df40 f i Mover.obj
 0001:0009cf40       ??_GidElevator@@UAEPAXI@Z  2009df40 f i Mover.obj
 0001:0009cf70       ?ServerClientConnect@idMultiplayerGame@@QAEXH@Z 2009df70 f   MultiplayerGame.obj
 0001:0009cfb0       ?SpawnPlayer@idMultiplayerGame@@QAEXH@Z 2009dfb0 f   MultiplayerGame.obj
 0001:0009d060       ?PlayerVote@idMultiplayerGame@@QAEXHW4playerVote_t@@@Z 2009e060 f   MultiplayerGame.obj
 0001:0009d080       ?ClientEndFrame@idMultiplayerGame@@QAEXXZ 2009e080 f   MultiplayerGame.obj
 0001:0009d090       ?IsValidTeam@idMultiplayerGame@@QAE_NH@Z 2009e090 f   MultiplayerGame.obj
 0001:0009d0b0       ?DisableMenu@idMultiplayerGame@@AAEXXZ 2009e0b0 f   MultiplayerGame.obj
 0001:0009d270       ?DrawStatSummary@idMultiplayerGame@@AAEXXZ 2009e270 f   MultiplayerGame.obj
 0001:0009d2f0       ?ShowStatSummary@idMultiplayerGame@@QAEXXZ 2009e2f0 f   MultiplayerGame.obj
 0001:0009d360       ?FreeLight@idMultiplayerGame@@AAEXH@Z 2009e360 f   MultiplayerGame.obj
 0001:0009d3a0       ?ProcessRconReturn@idMultiplayerGame@@QAEX_N@Z 2009e3a0 f   MultiplayerGame.obj
 0001:0009d3d0       ?ClearVote@idMultiplayerGame@@QAEXH@Z 2009e3d0 f   MultiplayerGame.obj
 0001:0009d540       ?Precache@idMultiplayerGame@@QAEXXZ 2009e540 f   MultiplayerGame.obj
 0001:0009d5c0       ?ToggleReady@idMultiplayerGame@@QAEXXZ 2009e5c0 f   MultiplayerGame.obj
 0001:0009d630       ?ToggleTeam@idMultiplayerGame@@QAEXXZ 2009e630 f   MultiplayerGame.obj
 0001:0009d680       ?CanPlay@idMultiplayerGame@@QAE_NPAVidPlayer@@@Z 2009e680 f   MultiplayerGame.obj
 0001:0009d6c0       ?WantRespawn@idMultiplayerGame@@QAE_NPAVidPlayer@@@Z 2009e6c0 f   MultiplayerGame.obj
 0001:0009d700       ?HandleServerAdminBanPlayer@idMultiplayerGame@@QAEXH@Z 2009e700 f   MultiplayerGame.obj
 0001:0009d7e0       ?HandleServerAdminRemoveBan@idMultiplayerGame@@QAEXPBD@Z 2009e7e0 f   MultiplayerGame.obj
 0001:0009d870       ?HandleServerAdminKickPlayer@idMultiplayerGame@@QAEXH@Z 2009e870 f   MultiplayerGame.obj
 0001:0009d8f0       ?ClearTeamScores@idMultiplayerGame@@AAEXXZ 2009e8f0 f   MultiplayerGame.obj
 0001:0009d910       ?AddTeamScore@idMultiplayerGame@@QAEXHH@Z 2009e910 f   MultiplayerGame.obj
 0001:0009d930       ?AddPlayerTeamScore@idMultiplayerGame@@QAEXPAVidPlayer@@H@Z 2009e930 f   MultiplayerGame.obj
 0001:0009d9d0       ?AddPlayerWin@idMultiplayerGame@@QAEXPAVidPlayer@@H@Z 2009e9d0 f   MultiplayerGame.obj
 0001:0009da70       ?SetPlayerScore@idMultiplayerGame@@QAEXPAVidPlayer@@H@Z 2009ea70 f   MultiplayerGame.obj
 0001:0009daf0       ?SetPlayerTeamScore@idMultiplayerGame@@QAEXPAVidPlayer@@H@Z 2009eaf0 f   MultiplayerGame.obj
 0001:0009db70       ?SetPlayerDeadZoneScore@idMultiplayerGame@@QAEXPAVidPlayer@@M@Z 2009eb70 f   MultiplayerGame.obj
 0001:0009dbe0       ?SetPlayerWin@idMultiplayerGame@@QAEXPAVidPlayer@@H@Z 2009ebe0 f   MultiplayerGame.obj
 0001:0009dc50       ?ServerSetInstance@idMultiplayerGame@@QAEXH@Z 2009ec50 f   MultiplayerGame.obj
 0001:0009dca0       ?GetLongGametypeName@idMultiplayerGame@@QAEPBDPBD@Z 2009eca0 f   MultiplayerGame.obj
 0001:0009de30       ?GameTypeToVote@idMultiplayerGame@@QAEHPBD@Z 2009ee30 f   MultiplayerGame.obj
 0001:0009dee0       ?GetPlayerDeadZoneScore@idMultiplayerGame@@QAEMPAVidPlayer@@@Z 2009eee0 f   MultiplayerGame.obj
 0001:0009df00       ?EnableDamage@idMultiplayerGame@@QAEX_N@Z 2009ef00 f   MultiplayerGame.obj
 0001:0009df40       ?GetGameState@idMultiplayerGame@@QAEPAVrvGameState@@XZ 2009ef40 f   MultiplayerGame.obj
 0001:0009df50       ?GetPlayerRankText@idMultiplayerGame@@AAEPADH_NH@Z 2009ef50 f   MultiplayerGame.obj
 0001:0009e020       ?UpdatePrivatePlayerCount@idMultiplayerGame@@AAEXXZ 2009f020 f   MultiplayerGame.obj
 0001:0009e0f0       ?OpenLocalBuyMenu@idMultiplayerGame@@QAEXXZ 2009f0f0 f   MultiplayerGame.obj
 0001:0009e120       ?AddTeamPowerup@idMultiplayerGame@@QAEXHHH@Z 2009f120 f   MultiplayerGame.obj
 0001:0009e190       ?UpdateTeamPowerups@idMultiplayerGame@@QAEXXZ 2009f190 f   MultiplayerGame.obj
 0001:0009e270       ?SetUpdateForTeamPowerups@idMultiplayerGame@@QAEXH@Z 2009f270 f   MultiplayerGame.obj
 0001:0009e2d0       ?ComparePlayersByScore@@YAHPBX0@Z 2009f2d0 f   MultiplayerGame.obj
 0001:0009e2f0       ?CompareTeamsByScore@@YAHPBX0@Z 2009f2f0 f   MultiplayerGame.obj
 0001:0009e310       ?ClearGuis@idMultiplayerGame@@AAEXXZ 2009f310 f   MultiplayerGame.obj
 0001:0009e5b0       ?GetPlayerRank@idMultiplayerGame@@AAEHPAVidPlayer@@AA_N@Z 2009f5b0 f   MultiplayerGame.obj
 0001:0009e690       ?UpdateTeamRanks@idMultiplayerGame@@QAEXXZ 2009f690 f   MultiplayerGame.obj
 0001:0009e6d0       ?UpdateRankColor@idMultiplayerGame@@AAEXPAVidUserInterface@@PBDHABVidVec3@@@Z 2009f6d0 f   MultiplayerGame.obj
 0001:0009e720       ?CanCapture@idMultiplayerGame@@QAE_NH@Z 2009f720 f   MultiplayerGame.obj
 0001:0009e790       ?UpdateTestScoreboard@idMultiplayerGame@@AAEXPAVidUserInterface@@@Z 2009f790 f   MultiplayerGame.obj
 0001:0009edd0       ?GameTime@idMultiplayerGame@@AAEPBDXZ 2009fdd0 f   MultiplayerGame.obj
 0001:0009f000       ?NumActualClients@idMultiplayerGame@@QAEH_NPAH@Z 200a0000 f   MultiplayerGame.obj
 0001:0009f0b0       ?EnoughClientsToPlay@idMultiplayerGame@@AAE_NXZ 200a00b0 f   MultiplayerGame.obj
 0001:0009f120       ?AllPlayersReady@idMultiplayerGame@@AAE_NPAVidStr@@@Z 200a0120 f   MultiplayerGame.obj
 0001:0009f390       ?TimeLimitHit@idMultiplayerGame@@QAE_NXZ 200a0390 f   MultiplayerGame.obj
 0001:0009f3e0       ?PlayerStats@idMultiplayerGame@@QAEXHPADH@Z 200a03e0 f   MultiplayerGame.obj
 0001:0009f470       ?ClientCallPackedVote@idMultiplayerGame@@QAEXABUvoteStruct_t@@@Z 200a0470 f   MultiplayerGame.obj
 0001:0009f6a0       ?ReportZoneControllingPlayer@idMultiplayerGame@@QAEXPAVidPlayer@@@Z 200a06a0 f   MultiplayerGame.obj
 0001:0009f740       ?SetupBuyMenuItems@idMultiplayerGame@@AAEXXZ 200a0740 f   MultiplayerGame.obj
 0001:0009f9e0       ?SetMapShot@idMultiplayerGame@@AAEXXZ 200a09e0 f   MultiplayerGame.obj
 0001:0009fa90       ?SetShaderParms@idMultiplayerGame@@QAEXPAUrenderView_s@@@Z 200a0a90 f   MultiplayerGame.obj
 0001:0009faf0       ?WriteToSnapshot@idMultiplayerGame@@QBEXAAVidBitMsgDelta@@@Z 200a0af0 f   MultiplayerGame.obj
 0001:0009fdb0       ?ReadFromSnapshot@idMultiplayerGame@@QAEXABVidBitMsgDelta@@@Z 200a0db0 f   MultiplayerGame.obj
 0001:000a0060       ?PlayGlobalItemAcquireSound@idMultiplayerGame@@QAEXH@Z 200a1060 f   MultiplayerGame.obj
 0001:000a0180       ?UpdateLight@idMultiplayerGame@@AAEXHPAVidPlayer@@@Z 200a1180 f   MultiplayerGame.obj
 0001:000a0230       ?CheckSpecialLights@idMultiplayerGame@@AAEXXZ 200a1230 f   MultiplayerGame.obj
 0001:000a03e0       ?DropWeapon@idMultiplayerGame@@QAEXH@Z 200a13e0 f   MultiplayerGame.obj
 0001:000a0420       ?DropWeapon_f@idMultiplayerGame@@SAXABVidCmdArgs@@@Z 200a1420 f   MultiplayerGame.obj
 0001:000a0490       ?MessageMode@idMultiplayerGame@@AAEXABVidCmdArgs@@@Z 200a1490 f   MultiplayerGame.obj
 0001:000a0570       ?ForceTeamChange_f@idMultiplayerGame@@SAXABVidCmdArgs@@@Z 200a1570 f   MultiplayerGame.obj
 0001:000a06e0       ?RemoveClientFromBanList_f@idMultiplayerGame@@SAXABVidCmdArgs@@@Z 200a16e0 f   MultiplayerGame.obj
 0001:000a0800       ?ServerStartVote@idMultiplayerGame@@QAEXHW4vote_flags_t@1@PBD@Z 200a1800 f   MultiplayerGame.obj
 0001:000a08b0       ?ClientCallVote@idMultiplayerGame@@QAEXW4vote_flags_t@1@PBD@Z 200a18b0 f   MultiplayerGame.obj
 0001:000a0920       ?CheckAbortGame@idMultiplayerGame@@AAEXXZ 200a1920 f   MultiplayerGame.obj
 0001:000a0990       ?WantKilled@idMultiplayerGame@@QAEXH@Z 200a1990 f   MultiplayerGame.obj
 0001:000a09d0       ?JoinTeam@idMultiplayerGame@@QAEXPBD@Z 200a19d0 f   MultiplayerGame.obj
 0001:000a0bb0       ?EnterGame@idMultiplayerGame@@QAEXH@Z 200a1bb0 f   MultiplayerGame.obj
 0001:000a0c80       ?UpdateMPSettingsModel@idMultiplayerGame@@AAEXPAVidUserInterface@@@Z 200a1c80 f   MultiplayerGame.obj
 0001:000a0f10       ?VoiceChat@idMultiplayerGame@@AAEXABVidCmdArgs@@_N@Z 200a1f10 f   MultiplayerGame.obj
 0001:000a1070       ?ClientVoiceMute@idMultiplayerGame@@QAEXH_N@Z 200a2070 f   MultiplayerGame.obj
 0001:000a11b0       ?GetClientNumFromPlayerName@idMultiplayerGame@@QAEHPBD@Z 200a21b0 f   MultiplayerGame.obj
 0001:000a1290       ?ServerHandleVoiceMuting@idMultiplayerGame@@QAEXHH_N@Z 200a2290 f   MultiplayerGame.obj
 0001:000a13c0       ?HandleServerAdminForceTeamSwitch@idMultiplayerGame@@QAEXH@Z 200a23c0 f   MultiplayerGame.obj
 0001:000a1470       ?WriteStartState@idMultiplayerGame@@AAEXHAAVidBitMsg@@_N@Z 200a2470 f   MultiplayerGame.obj
 0001:000a1540       ?ServerWriteInitialReliableMessages@idMultiplayerGame@@QAEXH@Z 200a2540 f   MultiplayerGame.obj
 0001:000a1600       ?ClientReadStartState@idMultiplayerGame@@QAEXABVidBitMsg@@@Z 200a2600 f   MultiplayerGame.obj
 0001:000a16e0       ?AddPlayerScore@idMultiplayerGame@@QAEXPAVidPlayer@@H@Z 200a26e0 f   MultiplayerGame.obj
 0001:000a1810       ?GetPlayerTime@idMultiplayerGame@@QAEHPAVidPlayer@@@Z 200a2810 f   MultiplayerGame.obj
 0001:000a1840       ?GetTeamScore@idMultiplayerGame@@QAEHPAVidPlayer@@@Z 200a2840 f   MultiplayerGame.obj
 0001:000a1860       ?GetScore@idMultiplayerGame@@QAEHPAVidPlayer@@@Z 200a2860 f   MultiplayerGame.obj
 0001:000a1880       ?GetWins@idMultiplayerGame@@QAEHPAVidPlayer@@@Z 200a2880 f   MultiplayerGame.obj
 0001:000a18a0       ?ShuffleTeams@idMultiplayerGame@@QAEXXZ 200a28a0 f   MultiplayerGame.obj
 0001:000a1a30       ?SetGameType@idMultiplayerGame@@QAEXXZ 200a2a30 f   MultiplayerGame.obj
 0001:000a1ee0       ?GetPlayerRankText@idMultiplayerGame@@AAEPADPAVidPlayer@@@Z 200a2ee0 f   MultiplayerGame.obj
 0001:000a1f30       ?WriteNetworkInfo@idMultiplayerGame@@QAEXPAVidFile@@H@Z 200a2f30 f   MultiplayerGame.obj
 0001:000a1fc0       ?ReadNetworkInfo@idMultiplayerGame@@QAEXPAVidFile@@H@Z 200a2fc0 f   MultiplayerGame.obj
 0001:000a2040       ?AddPrivatePlayer@idMultiplayerGame@@QAEXH@Z 200a3040 f   MultiplayerGame.obj
 0001:000a2240       ?RemovePrivatePlayer@idMultiplayerGame@@QAEXH@Z 200a3240 f   MultiplayerGame.obj
 0001:000a22b0       ?SetFlagEntity@idMultiplayerGame@@QAEXPAVidEntity@@H@Z 200a32b0 f   MultiplayerGame.obj
 0001:000a22f0       ?GetFlagEntity@idMultiplayerGame@@QAEPAVidEntity@@H@Z 200a32f0 f   MultiplayerGame.obj
 0001:000a2330       ?CheckTeamBalance_f@idMultiplayerGame@@SAXABVidCmdArgs@@@Z 200a3330 f   MultiplayerGame.obj
 0001:000a2540       ?LocalizeGametype@idMultiplayerGame@@QAEPBDXZ 200a3540 f   MultiplayerGame.obj
 0001:000a26c0       ?VerifyTeamSwitch@idMultiplayerGame@@QAEHHPAVidPlayer@@@Z 200a36c0 f   MultiplayerGame.obj
 0001:000a27a0       ?NumberOfPlayersOnTeam@idMultiplayerGame@@QAEHH@Z 200a37a0 f   MultiplayerGame.obj
 0001:000a2810       ?NumberOfAlivePlayersOnTeam@idMultiplayerGame@@QAEHH@Z 200a3810 f   MultiplayerGame.obj
 0001:000a2890       ?RedrawLocalBuyMenu@idMultiplayerGame@@QAEXXZ 200a3890 f   MultiplayerGame.obj
 0001:000a28c0       ?GiveCashToTeam@idMultiplayerGame@@QAEXHM@Z 200a38c0 f   MultiplayerGame.obj
 0001:000a2920       ?IsBuyingAllowedInTheCurrentGameMode@idMultiplayerGame@@QAE_NXZ 200a3920 f   MultiplayerGame.obj
 0001:000a2980       ?IsBuyingAllowedRightNow@idMultiplayerGame@@QAE_NXZ 200a3980 f   MultiplayerGame.obj
 0001:000a29a0       ?FlagCaptured@idMultiplayerGame@@QAEXPAVidPlayer@@@Z 200a39a0 f   MultiplayerGame.obj
 0001:000a2ad0       ?ReceiveDeathMessage@idMultiplayerGame@@QAEXPAVidPlayer@@H0HH@Z 200a3ad0 f   MultiplayerGame.obj
 0001:000a3090       ?UpdateDMScoreboard@idMultiplayerGame@@AAEXPAVidUserInterface@@@Z 200a4090 f   MultiplayerGame.obj
 0001:000a3f00       ?UpdateTeamScoreboard@idMultiplayerGame@@AAEXPAVidUserInterface@@@Z 200a4f00 f   MultiplayerGame.obj
 0001:000a49a0       ?FragLeader@idMultiplayerGame@@QAEPAVidPlayer@@XZ 200a59a0 f   MultiplayerGame.obj
 0001:000a4b00       ?ServerStartPackedVote@idMultiplayerGame@@QAEXHABUvoteStruct_t@@@Z 200a5b00 f   MultiplayerGame.obj
 0001:000a4e20       ?OnBuyModeTeamVictory@idMultiplayerGame@@QAEXH@Z 200a5e20 f   MultiplayerGame.obj
 0001:000a4ee0       ?UpdateMainGui@idMultiplayerGame@@QAEXXZ 200a5ee0 f   MultiplayerGame.obj
 0001:000a5540       ?UpdateHud@idMultiplayerGame@@QAEXPAVidUserInterface@@@Z 200a6540 f   MultiplayerGame.obj
 0001:000a6360       ?AddChatLine@idMultiplayerGame@@QAAXPBDZZ 200a7360 f   MultiplayerGame.obj
 0001:000a69f0       ?PrintMessageEvent@idMultiplayerGame@@QAEXHW4msg_evt_t@@HH@Z 200a79f0 f   MultiplayerGame.obj
 0001:000a6ee0       ?PrintMessage@idMultiplayerGame@@QAEXHPBD@Z 200a7ee0 f   MultiplayerGame.obj
 0001:000a6f90       ?CheckRespawns@idMultiplayerGame@@AAEXPAVidPlayer@@@Z 200a7f90 f   MultiplayerGame.obj
 0001:000a7140       ?ForceReady@idMultiplayerGame@@AAEXXZ 200a8140 f   MultiplayerGame.obj
 0001:000a71b0       ?ForceReady_f@idMultiplayerGame@@SAXABVidCmdArgs@@@Z 200a81b0 f   MultiplayerGame.obj
 0001:000a71e0       ?MessageMode_f@idMultiplayerGame@@SAXABVidCmdArgs@@@Z 200a81e0 f   MultiplayerGame.obj
 0001:000a7200       ?CallVote_f@idMultiplayerGame@@SAXABVidCmdArgs@@@Z 200a8200 f   MultiplayerGame.obj
 0001:000a7660       ?VoiceMute_f@idMultiplayerGame@@SAXABVidCmdArgs@@@Z 200a8660 f   MultiplayerGame.obj
 0001:000a76b0       ?VoiceUnmute_f@idMultiplayerGame@@SAXABVidCmdArgs@@@Z 200a86b0 f   MultiplayerGame.obj
 0001:000a7700       ?SwitchToTeam@idMultiplayerGame@@QAEXHHH@Z 200a8700 f   MultiplayerGame.obj
 0001:000a7820       ?ProcessChatMessage@idMultiplayerGame@@QAEXH_NPBD11@Z 200a8820 f   MultiplayerGame.obj
 0001:000a7c20       ?ToggleSpectate@idMultiplayerGame@@QAEXXZ 200a8c20 f   MultiplayerGame.obj
 0001:000a7cd0       ?ThrottleUserInfo@idMultiplayerGame@@QAEXXZ 200a8cd0 f   MultiplayerGame.obj
 0001:000a7e40       ?VoiceChat_f@idMultiplayerGame@@SAXABVidCmdArgs@@@Z 200a8e40 f   MultiplayerGame.obj
 0001:000a7e60       ?VoiceChatTeam_f@idMultiplayerGame@@SAXABVidCmdArgs@@@Z 200a8e60 f   MultiplayerGame.obj
 0001:000a7e80       ?ProcessVoiceChat@idMultiplayerGame@@QAEXH_NH@Z 200a8e80 f   MultiplayerGame.obj
 0001:000a8120       ?NextAP@idMultiplayerGame@@QAEPAVrvCTF_AssaultPoint@@H@Z 200a9120 f   MultiplayerGame.obj
 0001:000a81c0       ?ClientSetInstance@idMultiplayerGame@@QAEXABVidBitMsg@@@Z 200a91c0 f   MultiplayerGame.obj
 0001:000a8270       ?ReceiveRemoteConsoleOutput@idMultiplayerGame@@QAEXPBD@Z 200a9270 f   MultiplayerGame.obj
 0001:000a8570       ?GetTeamsTotalFrags@idMultiplayerGame@@QAEHH@Z 200a9570 f   MultiplayerGame.obj
 0001:000a85c0       ?GetTeamsTotalScore@idMultiplayerGame@@QAEHH@Z 200a95c0 f   MultiplayerGame.obj
 0001:000a8640       ?UpdatePlayerRanks@idMultiplayerGame@@QAEXW4playerRankMode_t@@@Z 200a9640 f   MultiplayerGame.obj
 0001:000a8c90       ?SendDeathMessage@idMultiplayerGame@@QAEXPAVidPlayer@@0H@Z 200a9c90 f   MultiplayerGame.obj
 0001:000a8e50       ?UpdateScoreboard@idMultiplayerGame@@AAEXPAVidUserInterface@@@Z 200a9e50 f   MultiplayerGame.obj
 0001:000a8ec0       ?BuildSummaryListString@idMultiplayerGame@@AAEPBDPAVidPlayer@@H@Z 200a9ec0 f   MultiplayerGame.obj
 0001:000a9240       ?UpdateSummaryBoard@idMultiplayerGame@@AAEXPAVidUserInterface@@@Z 200aa240 f   MultiplayerGame.obj
 0001:000a96b0       ?FragLimitHit@idMultiplayerGame@@QAEPAVidPlayer@@XZ 200aa6b0 f   MultiplayerGame.obj
 0001:000a9720       ?PlayerDeath@idMultiplayerGame@@QAEXPAVidPlayer@@0H@Z 200aa720 f   MultiplayerGame.obj
 0001:000a9980       ?OnDeadZoneTeamVictory@idMultiplayerGame@@QAEXH@Z 200aa980 f   MultiplayerGame.obj
 0001:000a99b0       ?LocalServerRedirect@@YAXPBD@Z 200aa9b0 f   MultiplayerGame.obj
 0001:000a99d0       ?DrawScoreBoard@idMultiplayerGame@@AAEXPAVidPlayer@@@Z 200aa9d0 f   MultiplayerGame.obj
 0001:000a9aa0       ?DisconnectClient@idMultiplayerGame@@QAEXH@Z 200aaaa0 f   MultiplayerGame.obj
 0001:000a9b20       ?ReportZoneController@idMultiplayerGame@@QAEXHHHPAVidEntity@@@Z 200aab20 f   MultiplayerGame.obj
 0001:000aa180       ?Draw@idMultiplayerGame@@QAE_NH@Z 200ab180 f   MultiplayerGame.obj
 0001:000aa440       ?ScheduleAnnouncerSound@idMultiplayerGame@@QAEXW4announcerSound_t@@MH_N@Z 200ab440 f   MultiplayerGame.obj
 0001:000aa540       ?RemoveAnnouncerSound@idMultiplayerGame@@QAEXH@Z 200ab540 f   MultiplayerGame.obj
 0001:000aa5f0       ?RemoveAnnouncerSoundRange@idMultiplayerGame@@QAEXHH@Z 200ab5f0 f   MultiplayerGame.obj
 0001:000aa6e0       ?ScheduleTimeAnnouncements@idMultiplayerGame@@QAEXXZ 200ab6e0 f   MultiplayerGame.obj
 0001:000aa800       ?PlayAnnouncerSounds@idMultiplayerGame@@AAEXXZ 200ab800 f   MultiplayerGame.obj
 0001:000aaa60       ?PickMap@idMultiplayerGame@@QAE_NVidStr@@_N@Z 200aba60 f   MultiplayerGame.obj
 0001:000ac070       ?ExecutePackedVote@idMultiplayerGame@@QAEXXZ 200ad070 f   MultiplayerGame.obj
 0001:000ac370       ?CommonRun@idMultiplayerGame@@QAEXXZ 200ad370 f   MultiplayerGame.obj
 0001:000acf60       ?ClientRun@idMultiplayerGame@@QAEXXZ 200adf60 f   MultiplayerGame.obj
 0001:000acf70       ?StartMenu@idMultiplayerGame@@QAEPAVidUserInterface@@XZ 200adf70 f   MultiplayerGame.obj
 0001:000adbf0       ?ClientUpdateVote@idMultiplayerGame@@QAEXW4vote_result_t@1@HHABUvoteStruct_t@@@Z 200aebf0 f   MultiplayerGame.obj
 0001:000ae070       ?CastVote@idMultiplayerGame@@QAEXH_N@Z 200af070 f   MultiplayerGame.obj
 0001:000ae1d0       ?ClearAnnouncerSounds@idMultiplayerGame@@QAEXXZ 200af1d0 f   MultiplayerGame.obj
 0001:000ae280       ?HandleServerAdminCommands@idMultiplayerGame@@QAE_NAAUserverAdminData_t@1@@Z 200af280 f   MultiplayerGame.obj
 0001:000aeb80       ?Clear@idMultiplayerGame@@QAEXXZ 200afb80 f   MultiplayerGame.obj
 0001:000aee70       ?ClearMap@idMultiplayerGame@@QAEXXZ 200afe70 f   MultiplayerGame.obj
 0001:000aef60       ?ExecuteVote@idMultiplayerGame@@QAEXXZ 200aff60 f   MultiplayerGame.obj
 0001:000af1e0       ?CheckVote@idMultiplayerGame@@AAEXXZ 200b01e0 f   MultiplayerGame.obj
 0001:000af390       ?ClientStartPackedVote@idMultiplayerGame@@QAEXHABUvoteStruct_t@@@Z 200b0390 f   MultiplayerGame.obj
 0001:000b00d0       ?Run@idMultiplayerGame@@QAEXXZ 200b10d0 f   MultiplayerGame.obj
 0001:000b0180       ?HandleGuiCommands@idMultiplayerGame@@QAEPBDPBD@Z 200b1180 f   MultiplayerGame.obj
 0001:000b4290       ?Vote_f@idMultiplayerGame@@SAXABVidCmdArgs@@@Z 200b5290 f   MultiplayerGame.obj
 0001:000b4310       ?ClientStartVote@idMultiplayerGame@@QAEXHPBD@Z 200b5310 f   MultiplayerGame.obj
 0001:000b44a0       ?ServerCallVote@idMultiplayerGame@@QAEXHABVidBitMsg@@@Z 200b54a0 f   MultiplayerGame.obj
 0001:000b50a0       ?MapRestart@idMultiplayerGame@@QAEXXZ 200b60a0 f   MultiplayerGame.obj
 0001:000b5170       ??0idMultiplayerGame@@QAE@XZ 200b6170 f   MultiplayerGame.obj
 0001:000b5440       ?Shutdown@idMultiplayerGame@@QAEXXZ 200b6440 f   MultiplayerGame.obj
 0001:000b5480       ?Reset@idMultiplayerGame@@QAEXXZ 200b6480 f   MultiplayerGame.obj
 0001:000b5ae0       ?ServerCallPackedVote@idMultiplayerGame@@QAEXHABVidBitMsg@@@Z 200b6ae0 f   MultiplayerGame.obj
 0001:000b6280       ?SetOwner@?$idLinkList@UannouncerSoundNode_s@idMultiplayerGame@@@@QAEXPAUannouncerSoundNode_s@idMultiplayerGame@@@Z 200b7280 f i MultiplayerGame.obj
 0001:000b6280       ?SetOwner@?$idLinkList@UstateCall_t@@@@QAEXPAUstateCall_t@@@Z 200b7280 f i State.obj
 0001:000b6280       ?SetOwner@?$idLinkList@VrvAIHelper@@@@QAEXPAVrvAIHelper@@@Z 200b7280 f i AI_Util.obj
 0001:000b6280       ?SetOwner@?$idHierarchy@VidTypeInfo@@@@QAEXPAVidTypeInfo@@@Z 200b7280 f i Class.obj
 0001:000b6280       ?SetOwner@?$idLinkList@VidAI@@@@QAEXPAVidAI@@@Z 200b7280 f i AI.obj
 0001:000b6280       ?SetOwner@?$idLinkList@VidEntity@@@@QAEXPAVidEntity@@@Z 200b7280 f i Entity.obj
 0001:000b6280       ?SetOwner@?$idLinkList@VidActor@@@@QAEXPAVidActor@@@Z 200b7280 f i Actor.obj
 0001:000b6280       ?SetOwner@?$idLinkList@VrvClientEntity@@@@QAEXPAVrvClientEntity@@@Z 200b7280 f i ClientEntity.obj
 0001:000b6280       ?SetOwner@?$idLinkList@VrvSplineMover@@@@QAEXPAVrvSplineMover@@@Z 200b7280 f i SplineMover.obj
 0001:000b6280       ?SetOwner@?$idLinkList@VidEvent@@@@QAEXPAVidEvent@@@Z 200b7280 f i Event.obj
 0001:000b6280       ?SetOwner@?$idLinkList@VidMsgQueue@@@@QAEXPAVidMsgQueue@@@Z 200b7280 f i idLib:BitMsg.obj
 0001:000b6290       ?IsPlaying@rvTourneyArena@@QAE_NPAVidPlayer@@@Z 200b7290 f i MultiplayerGame.obj
 0001:000b62c0       ?IsPlaying@rvTourneyArena@@QAE_NXZ 200b72c0 f i MultiplayerGame.obj
 0001:000b62e0       ?rvPairSecondCompareDirect@?$rvPair@HM@@SAHPBV1@0@Z 200b72e0 f i MultiplayerGame.obj
 0001:000b6340       ??4voteStruct_t@@QAEAAU0@ABU0@@Z 200b7340 f i MultiplayerGame.obj
 0001:000b63d0       ??_GannouncerSoundNode_s@idMultiplayerGame@@QAEPAXI@Z 200b73d0 f i MultiplayerGame.obj
 0001:000b6420       ?Save@rvPlaybackDriver@@QBEXPAVidSaveGame@@@Z 200b7420 f   Playback.obj
 0001:000b6490       ?Restore@rvPlaybackDriver@@QAEXPAVidRestoreGame@@@Z 200b7490 f   Playback.obj
 0001:000b6500       ?PlayPlayback@idGameEdit@@UAE_NXZ 200b7500 f   Playback.obj
 0001:000b65c0       ?Start@rvPlaybackDriver@@QAE_NPBDPAVidEntity@@HH@Z 200b75c0 f   Playback.obj
 0001:000b66f0       ?PlaybackCallback@@YAXHMPBX@Z 200b76f0 f   Playback.obj
 0001:000b6750       ?UpdateFrame@rvPlaybackDriver@@QAE_NPAVidEntity@@AAVrvDeclPlaybackData@@@Z 200b7750 f   Playback.obj
 0001:000b6b50       ??0rvGamePlayback@@QAE@XZ  200b7b50 f   Playback.obj
 0001:000b6d90       ??1rvGamePlayback@@QAE@XZ  200b7d90 f   Playback.obj
 0001:000b6e40       ?DrawPlaybackDebugInfo@idGameEdit@@UAEXXZ 200b7e40 f   Playback.obj
 0001:000b7050       ?ShutdownPlaybacks@idGameEdit@@UAEXXZ 200b8050 f   Playback.obj
 0001:000b70f0       ?RecordData@rvGamePlayback@@QAEXABVusercmd_t@@PAVidEntity@@@Z 200b80f0 f   Playback.obj
 0001:000b7330       ?RecordPlayback@idGameEdit@@UAEXABVusercmd_t@@PAVidEntity@@@Z 200b8330 f   Playback.obj
 0001:000b7430       ??4rvDeclPlaybackData@@QAEAAV0@ABV0@@Z 200b8430 f i Playback.obj
 0001:000b74b0       ?HandleCheats@idPlayer@@AAEXXZ 200b84b0 f   Player_Cheats.obj
 0001:000b74c0       ?ClearCheatState@idPlayer@@AAEXXZ 200b84c0 f   Player_Cheats.obj
 0001:000b74d0       ?GetClassType@idProjectile@@SAAAVidTypeInfo@@XZ 200b84d0 f   Projectile.obj
 0001:000b74e0       ?GetType@idProjectile@@UBEPAVidTypeInfo@@XZ 200b84e0 f   Projectile.obj
 0001:000b74f0       ?FreeLightDef@idProjectile@@UAEXXZ 200b84f0 f   Projectile.obj
 0001:000b7520       ?Collide@idProjectile@@UAE_NABUtrace_t@@ABVidVec3@@@Z 200b8520 f   Projectile.obj
 0001:000b7550       ?PlayPainEffect@idProjectile@@IAEXPAVidEntity@@HPBVrvDeclMatType@@ABVidVec3@@2@Z 200b8550 f   Projectile.obj
 0001:000b7640       ?Event_Explode@idProjectile@@AAEXXZ 200b8640 f   Projectile.obj
 0001:000b7670       ?ClientStale@idProjectile@@UAE_NXZ 200b8670 f   Projectile.obj
 0001:000b7680       ?GetClassType@idGuidedProjectile@@SAAAVidTypeInfo@@XZ 200b8680 f   Projectile.obj
 0001:000b7690       ?GetType@idGuidedProjectile@@UBEPAVidTypeInfo@@XZ 200b8690 f   Projectile.obj
 0001:000b76a0       ?GetClassType@rvDriftingProjectile@@SAAAVidTypeInfo@@XZ 200b86a0 f   Projectile.obj
 0001:000b76b0       ?GetType@rvDriftingProjectile@@UBEPAVidTypeInfo@@XZ 200b86b0 f   Projectile.obj
 0001:000b76c0       ?Save@rvDriftingProjectile@@QBEXPAVidSaveGame@@@Z 200b86c0 f   Projectile.obj
 0001:000b7770       ?Restore@rvDriftingProjectile@@QAEXPAVidRestoreGame@@@Z 200b8770 f   Projectile.obj
 0001:000b7810       ?GetClassType@rvSpawnerProjectile@@SAAAVidTypeInfo@@XZ 200b8810 f   Projectile.obj
 0001:000b7820       ?GetType@rvSpawnerProjectile@@UBEPAVidTypeInfo@@XZ 200b8820 f   Projectile.obj
 0001:000b7830       ?GetClassType@rvMIRVProjectile@@SAAAVidTypeInfo@@XZ 200b8830 f   Projectile.obj
 0001:000b7840       ?GetType@rvMIRVProjectile@@UBEPAVidTypeInfo@@XZ 200b8840 f   Projectile.obj
 0001:000b7850       ?Spawn@idProjectile@@QAEXXZ 200b8850 f   Projectile.obj
 0001:000b79a0       ?Save@idProjectile@@QBEXPAVidSaveGame@@@Z 200b89a0 f   Projectile.obj
 0001:000b7b10       ?Restore@idProjectile@@QAEXPAVidRestoreGame@@@Z 200b8b10 f   Projectile.obj
 0001:000b7cb0       ?GetOwner@idProjectile@@QBEPAVidEntity@@XZ 200b8cb0 f   Projectile.obj
 0001:000b7ce0       ?SetSpeed@idProjectile@@QAEXMH@Z 200b8ce0 f   Projectile.obj
 0001:000b7e40       ?SpawnImpactEntities@idProjectile@@IAEXABUtrace_t@@VidVec3@@@Z 200b8e40 f   Projectile.obj
 0001:000b8280       ?DefaultDamageEffect@idProjectile@@AAEXABUtrace_t@@ABVidVec3@@PBD@Z 200b9280 f   Projectile.obj
 0001:000b85b0       ?Event_RadiusDamage@idProjectile@@AAEXPAVidEntity@@@Z 200b95b0 f   Projectile.obj
 0001:000b8640       ?Event_ResidualDamage@idProjectile@@AAEXPAVidEntity@@@Z 200b9640 f   Projectile.obj
 0001:000b8710       ?GetVelocity@idProjectile@@SA?AVidVec3@@PBVidDict@@@Z 200b9710 f   Projectile.obj
 0001:000b8760       ?GetGravity@idProjectile@@SA?AVidVec3@@PBVidDict@@@Z 200b9760 f   Projectile.obj
 0001:000b87e0       ?ClientPredictionThink@idProjectile@@UAEXXZ 200b97e0 f   Projectile.obj
 0001:000b8960       ?WriteToSnapshot@idProjectile@@UBEXAAVidBitMsgDelta@@@Z 200b9960 f   Projectile.obj
 0001:000b8a20       ?GetPhysicsToVisualTransform@idProjectile@@UAE_NAAVidVec3@@AAVidMat3@@@Z 200b9a20 f   Projectile.obj
 0001:000b8be0       ?Save@idGuidedProjectile@@QBEXPAVidSaveGame@@@Z 200b9be0 f   Projectile.obj
 0001:000b8d40       ?Restore@idGuidedProjectile@@QAEXPAVidRestoreGame@@@Z 200b9d40 f   Projectile.obj
 0001:000b8e90       ?Spawn@rvSpawnerProjectile@@QAEXXZ 200b9e90 f   Projectile.obj
 0001:000b8ec0       ?SetSpawner@rvSpawnerProjectile@@QAEXPAVrvSpawner@@@Z 200b9ec0 f   Projectile.obj
 0001:000b8ef0       ?Event_PostSpawn@rvSpawnerProjectile@@AAEXXZ 200b9ef0 f   Projectile.obj
 0001:000b8fb0       ?Spawn@rvMIRVProjectile@@QAEXXZ 200b9fb0 f   Projectile.obj
 0001:000b9000       ??0idProjectile@@QAE@XZ    200ba000 f   Projectile.obj
 0001:000b9350       ??1idProjectile@@UAE@XZ    200ba350 f   Projectile.obj
 0001:000b93f0       ?Launch@idProjectile@@UAEXABVidVec3@@00MM@Z 200ba3f0 f   Projectile.obj
 0001:000ba070       ?Think@idProjectile@@UAEXXZ 200bb070 f   Projectile.obj
 0001:000ba590       ?UpdateVisualAngles@idProjectile@@UAEXXZ 200bb590 f   Projectile.obj
 0001:000ba8c0       ?Fizzle@idProjectile@@QAEXXZ 200bb8c0 f   Projectile.obj
 0001:000baa30       ?Explode@idProjectile@@UAEXPBUtrace_t@@_NPAVidEntity@@PBD@Z 200bba30 f   Projectile.obj
 0001:000baf70       ?PlayDetonateEffect@idProjectile@@MAEXABVidVec3@@ABVidMat3@@@Z 200bbf70 f   Projectile.obj
 0001:000bb170       ?Event_Fizzle@idProjectile@@AAEXXZ 200bc170 f   Projectile.obj
 0001:000bb190       ?Event_Touch@idProjectile@@AAEXPAVidEntity@@PAUtrace_t@@@Z 200bc190 f   Projectile.obj
 0001:000bb260       ??0idGuidedProjectile@@QAE@XZ 200bc260 f   Projectile.obj
 0001:000bb300       ??1idGuidedProjectile@@UAE@XZ 200bc300 f   Projectile.obj
 0001:000bb320       ?GetGuideDir@idGuidedProjectile@@MAE_NAAVidVec3@@AAM@Z 200bc320 f   Projectile.obj
 0001:000bbd80       ?Think@idGuidedProjectile@@UAEXXZ 200bcd80 f   Projectile.obj
 0001:000bc380       ?Launch@idGuidedProjectile@@UAEXABVidVec3@@00MM@Z 200bd380 f   Projectile.obj
 0001:000bc9b0       ??0rvDriftingProjectile@@QAE@XZ 200bd9b0 f   Projectile.obj
 0001:000bca90       ??1rvDriftingProjectile@@UAE@XZ 200bda90 f   Projectile.obj
 0001:000bcaa0       ?Launch@rvDriftingProjectile@@UAEXABVidVec3@@00MM@Z 200bdaa0 f   Projectile.obj
 0001:000bcc50       ?UpdateVisualAngles@rvDriftingProjectile@@MAEXXZ 200bdc50 f   Projectile.obj
 0001:000bcd10       ??0rvSpawnerProjectile@@QAE@XZ 200bdd10 f   Projectile.obj
 0001:000bcd30       ??1rvSpawnerProjectile@@UAE@XZ 200bdd30 f   Projectile.obj
 0001:000bcde0       ?Think@rvSpawnerProjectile@@UAEXXZ 200bdde0 f   Projectile.obj
 0001:000bce70       ??0rvMIRVProjectile@@QAE@XZ 200bde70 f   Projectile.obj
 0001:000bce90       ??1rvMIRVProjectile@@UAE@XZ 200bde90 f   Projectile.obj
 0001:000bcea0       ?CreateInstance@idProjectile@@SAPAVidClass@@XZ 200bdea0 f   Projectile.obj
 0001:000bcf40       ?Create@idProjectile@@QAEXPAVidEntity@@ABVidVec3@@100@Z 200bdf40 f   Projectile.obj
 0001:000bd390       ?Collide@idProjectile@@UAE_NABUtrace_t@@ABVidVec3@@AA_N@Z 200be390 f   Projectile.obj
 0001:000be430       ?Killed@idProjectile@@UAEXPAVidEntity@@0HABVidVec3@@H@Z 200bf430 f   Projectile.obj
 0001:000be4b0       ?ReadFromSnapshot@idProjectile@@UAEXABVidBitMsgDelta@@@Z 200bf4b0 f   Projectile.obj
 0001:000be780       ?CreateInstance@idGuidedProjectile@@SAPAVidClass@@XZ 200bf780 f   Projectile.obj
 0001:000be820       ?Killed@idGuidedProjectile@@UAEXPAVidEntity@@0HABVidVec3@@H@Z 200bf820 f   Projectile.obj
 0001:000be880       ?CreateInstance@rvDriftingProjectile@@SAPAVidClass@@XZ 200bf880 f   Projectile.obj
 0001:000be920       ?Think@rvDriftingProjectile@@UAEXXZ 200bf920 f   Projectile.obj
 0001:000c1d50       ?CreateInstance@rvSpawnerProjectile@@SAPAVidClass@@XZ 200c2d50 f   Projectile.obj
 0001:000c1df0       ?CreateInstance@rvMIRVProjectile@@SAPAVidClass@@XZ 200c2df0 f   Projectile.obj
 0001:000c1e90       ?Event_LaunchWarheads@rvMIRVProjectile@@AAEXXZ 200c2e90 f   Projectile.obj
 0001:000c2140       ?RegisterClassA@idProjectile@@SAXXZ 200c3140 f   Projectile.obj
 0001:000c21d0       ?Register_idProjectile@@YAXXZ 200c31d0 f   Projectile.obj
 0001:000c21e0       ?RegisterClassA@idGuidedProjectile@@SAXXZ 200c31e0 f   Projectile.obj
 0001:000c2270       ?Register_idGuidedProjectile@@YAXXZ 200c3270 f   Projectile.obj
 0001:000c2280       ?RegisterClassA@rvDriftingProjectile@@SAXXZ 200c3280 f   Projectile.obj
 0001:000c2310       ?Register_rvDriftingProjectile@@YAXXZ 200c3310 f   Projectile.obj
 0001:000c2320       ?RegisterClassA@rvSpawnerProjectile@@SAXXZ 200c3320 f   Projectile.obj
 0001:000c23b0       ?Register_rvSpawnerProjectile@@YAXXZ 200c33b0 f   Projectile.obj
 0001:000c23c0       ?RegisterClassA@rvMIRVProjectile@@SAXXZ 200c33c0 f   Projectile.obj
 0001:000c2450       ?Register_rvMIRVProjectile@@YAXXZ 200c3450 f   Projectile.obj
 0001:000c2460       ?SinusoidalMidPoint@@YAMM@Z 200c3460 f i Projectile.obj
 0001:000c24b0       ?IsDone@?$idInterpolate@M@@QBE_NM@Z 200c34b0 f i Projectile.obj
 0001:000c24e0       ??_G?$idInterpolate@VidQuat@@@@UAEPAXI@Z 200c34e0 f i Projectile.obj
 0001:000c24e0       ??_E?$idInterpolate@VidQuat@@@@UAEPAXI@Z 200c34e0 f i Projectile.obj
 0001:000c24e0       ??_ErvSphericalInterpolate@@UAEPAXI@Z 200c34e0 f i Projectile.obj
 0001:000c24e0       ??_GrvSphericalInterpolate@@UAEPAXI@Z 200c34e0 f i Projectile.obj
 0001:000c2530       ?GetCurrentValue@?$idInterpolate@VidQuat@@@@UBE?AVidQuat@@M@Z 200c3530 f i Projectile.obj
 0001:000c2660       ?GetDeltaValue@?$idInterpolate@VidQuat@@@@UBE?AVidQuat@@MM@Z 200c3660 f i Projectile.obj
 0001:000c26d0       ?GetCurrentValue@rvSphericalInterpolate@@UBE?AVidQuat@@M@Z 200c36d0 f i Projectile.obj
 0001:000c2770       ??1rvSphericalInterpolate@@UAE@XZ 200c3770 f i Projectile.obj
 0001:000c2780       ??_EidProjectile@@UAEPAXI@Z 200c3780 f i Projectile.obj
 0001:000c2780       ??_GidProjectile@@UAEPAXI@Z 200c3780 f i Projectile.obj
 0001:000c27b0       ??_EidGuidedProjectile@@UAEPAXI@Z 200c37b0 f i Projectile.obj
 0001:000c27b0       ??_GidGuidedProjectile@@UAEPAXI@Z 200c37b0 f i Projectile.obj
 0001:000c27e0       ??_GrvDriftingProjectile@@UAEPAXI@Z 200c37e0 f i Projectile.obj
 0001:000c27e0       ??_ErvDriftingProjectile@@UAEPAXI@Z 200c37e0 f i Projectile.obj
 0001:000c2810       ??_ErvSpawnerProjectile@@UAEPAXI@Z 200c3810 f i Projectile.obj
 0001:000c2810       ??_GrvSpawnerProjectile@@UAEPAXI@Z 200c3810 f i Projectile.obj
 0001:000c2840       ??_GrvMIRVProjectile@@UAEPAXI@Z 200c3840 f i Projectile.obj
 0001:000c2840       ??_ErvMIRVProjectile@@UAEPAXI@Z 200c3840 f i Projectile.obj
 0001:000c2870       ??0idPVS@@QAE@XZ           200c3870 f   Pvs.obj
 0001:000c28b0       ?GetPortalCount@idPVS@@ABEHXZ 200c38b0 f   Pvs.obj
 0001:000c28f0       ?FloodFrontPortalPVS_r@idPVS@@ABEXPAUpvsPortal_s@@H@Z 200c38f0 f   Pvs.obj
 0001:000c2990       ?CopyPortalPVSToMightSee@idPVS@@ABEXXZ 200c3990 f   Pvs.obj
 0001:000c29f0       ?AreaPVSFromPortalPVS@idPVS@@ABEHXZ 200c39f0 f   Pvs.obj
 0001:000c2ba0       ?GetConnectedAreas@idPVS@@ABEXHPA_N@Z 200c3ba0 f   Pvs.obj
 0001:000c2c60       ?GetPVSArea@idPVS@@QBEHABVidVec3@@@Z 200c3c60 f   Pvs.obj
 0001:000c2c80       ?GetPVSAreas@idPVS@@QBEHABVidBounds@@PAHH@Z 200c3c80 f   Pvs.obj
 0001:000c2ca0       ?AllocCurrentPVS@idPVS@@ABE?AUpvsHandle_s@@I@Z 200c3ca0 f   Pvs.obj
 0001:000c2d00       ?FreeCurrentPVS@idPVS@@QBEXUpvsHandle_s@@@Z 200c3d00 f   Pvs.obj
 0001:000c2d40       ?InCurrentPVS@idPVS@@QBE_NUpvsHandle_s@@ABVidVec3@@@Z 200c3d40 f   Pvs.obj
 0001:000c2dc0       ?InCurrentPVS@idPVS@@QBE_NUpvsHandle_s@@ABVidBounds@@@Z 200c3dc0 f   Pvs.obj
 0001:000c2e60       ?InCurrentPVS@idPVS@@QBE_NUpvsHandle_s@@H@Z 200c3e60 f   Pvs.obj
 0001:000c2ed0       ?InCurrentPVS@idPVS@@QBE_NUpvsHandle_s@@PBHH@Z 200c3ed0 f   Pvs.obj
 0001:000c2f60       ?DestroyPVSData@idPVS@@AAEXXZ 200c3f60 f   Pvs.obj
 0001:000c30b0       ?FrontPortalPVS@idPVS@@ABEXXZ 200c40b0 f   Pvs.obj
 0001:000c34f0       ?FloodPassagePVS_r@idPVS@@ABEPAUpvsStack_s@@PAUpvsPortal_s@@PBU3@PAU2@@Z 200c44f0 f   Pvs.obj
 0001:000c36b0       ?DestroyPassages@idPVS@@ABEXXZ 200c46b0 f   Pvs.obj
 0001:000c3770       ?Shutdown@idPVS@@QAEXXZ    200c4770 f   Pvs.obj
 0001:000c3850       ?SetupCurrentPVS@idPVS@@QBE?AUpvsHandle_s@@HW4pvsType_t@@@Z 200c4850 f   Pvs.obj
 0001:000c3960       ?SetupCurrentPVS@idPVS@@QBE?AUpvsHandle_s@@PBHHW4pvsType_t@@@Z 200c4960 f   Pvs.obj
 0001:000c3b10       ?MergeCurrentPVS@idPVS@@QBE?AUpvsHandle_s@@U2@0@Z 200c4b10 f   Pvs.obj
 0001:000c3bd0       ?DrawCurrentPVS@idPVS@@QBEXUpvsHandle_s@@ABVidVec3@@@Z 200c4bd0 f   Pvs.obj
 0001:000c3dc0       ??1idPVS@@QAE@XZ           200c4dc0 f   Pvs.obj
 0001:000c3dd0       ?CreatePVSData@idPVS@@AAEXXZ 200c4dd0 f   Pvs.obj
 0001:000c4140       ?AddPassageBoundaries@idPVS@@ABEXABVidWinding@@0_NPAVidPlane@@AAHH@Z 200c5140 f   Pvs.obj
 0001:000c4700       ?CreatePassages@idPVS@@ABEXXZ 200c5700 f   Pvs.obj
 0001:000c4b30       ?SetupCurrentPVS@idPVS@@QBE?AUpvsHandle_s@@ABVidVec3@@W4pvsType_t@@@Z 200c5b30 f   Pvs.obj
 0001:000c4b70       ?SetupCurrentPVS@idPVS@@QBE?AUpvsHandle_s@@ABVidBounds@@W4pvsType_t@@@Z 200c5b70 f   Pvs.obj
 0001:000c4bc0       ?DrawPVS@idPVS@@QBEXABVidVec3@@W4pvsType_t@@@Z 200c5bc0 f   Pvs.obj
 0001:000c4de0       ?DrawPVS@idPVS@@QBEXABVidBounds@@W4pvsType_t@@@Z 200c5de0 f   Pvs.obj
 0001:000c5020       ?PassagePVS@idPVS@@ABEXXZ  200c6020 f   Pvs.obj
 0001:000c5120       ?Init@idPVS@@QAEXXZ        200c6120 f   Pvs.obj
 0001:000c53f0       ?GetClassType@idSecurityCamera@@SAAAVidTypeInfo@@XZ 200c63f0 f   SecurityCamera.obj
 0001:000c5400       ?GetType@idSecurityCamera@@UBEPAVidTypeInfo@@XZ 200c6400 f   SecurityCamera.obj
 0001:000c5410       ??1idSecurityCamera@@UAE@XZ 200c6410 f   SecurityCamera.obj
 0001:000c5470       ?Save@idSecurityCamera@@QBEXPAVidSaveGame@@@Z 200c6470 f   SecurityCamera.obj
 0001:000c5590       ?Restore@idSecurityCamera@@QAEXPAVidRestoreGame@@@Z 200c6590 f   SecurityCamera.obj
 0001:000c56a0       ?SetAlertMode@idSecurityCamera@@AAEXH@Z 200c66a0 f   SecurityCamera.obj
 0001:000c56d0       ?Present@idSecurityCamera@@UAEXXZ 200c66d0 f   SecurityCamera.obj
 0001:000c5750       ?GetAxis@idSecurityCamera@@ABE?BVidVec3@@XZ 200c6750 f   SecurityCamera.obj
 0001:000c57d0       ?SweepSpeed@idSecurityCamera@@ABEMXZ 200c67d0 f   SecurityCamera.obj
 0001:000c5820       ?StartSweep@idSecurityCamera@@AAEXXZ 200c6820 f   SecurityCamera.obj
 0001:000c5890       ?Event_ContinueSweep@idSecurityCamera@@AAEXXZ 200c6890 f   SecurityCamera.obj
 0001:000c5930       ?Event_Alert@idSecurityCamera@@AAEXXZ 200c6930 f   SecurityCamera.obj
 0001:000c59c0       ?Event_ReverseSweep@idSecurityCamera@@AAEXXZ 200c69c0 f   SecurityCamera.obj
 0001:000c5a10       ?Event_Pause@idSecurityCamera@@AAEXXZ 200c6a10 f   SecurityCamera.obj
 0001:000c5a80       ?Killed@idSecurityCamera@@UAEXPAVidEntity@@0HABVidVec3@@H@Z 200c6a80 f   SecurityCamera.obj
 0001:000c5c60       ?Pain@idSecurityCamera@@UAE_NPAVidEntity@@0HABVidVec3@@H@Z 200c6c60 f   SecurityCamera.obj
 0001:000c5cb0       ?Spawn@idSecurityCamera@@QAEXXZ 200c6cb0 f   SecurityCamera.obj
 0001:000c60b0       ?DrawFov@idSecurityCamera@@AAEXXZ 200c70b0 f   SecurityCamera.obj
 0001:000c6960       ?GetRenderView@idSecurityCamera@@UAEPAUrenderView_s@@XZ 200c7960 f   SecurityCamera.obj
 0001:000c6a30       ?CreateInstance@idSecurityCamera@@SAPAVidClass@@XZ 200c7a30 f   SecurityCamera.obj
 0001:000c6b80       ?Event_AddLight@idSecurityCamera@@AAEXXZ 200c7b80 f   SecurityCamera.obj
 0001:000c7200       ?CanSeePlayer@idSecurityCamera@@AAE_NXZ 200c8200 f   SecurityCamera.obj
 0001:000c7440       ?Think@idSecurityCamera@@UAEXXZ 200c8440 f   SecurityCamera.obj
 0001:000c7620       ?RegisterClassA@idSecurityCamera@@SAXXZ 200c8620 f   SecurityCamera.obj
 0001:000c76b0       ?Register_idSecurityCamera@@YAXXZ 200c86b0 f   SecurityCamera.obj
 0001:000c76c0       ??_GidSecurityCamera@@UAEPAXI@Z 200c86c0 f i SecurityCamera.obj
 0001:000c76c0       ??_EidSecurityCamera@@UAEPAXI@Z 200c86c0 f i SecurityCamera.obj
 0001:000c76f0       ?GetClassType@idSound@@SAAAVidTypeInfo@@XZ 200c86f0 f   Sound.obj
 0001:000c7700       ?GetType@idSound@@UBEPAVidTypeInfo@@XZ 200c8700 f   Sound.obj
 0001:000c7710       ?Save@idSound@@QBEXPAVidSaveGame@@@Z 200c8710 f   Sound.obj
 0001:000c77a0       ?Restore@idSound@@QAEXPAVidRestoreGame@@@Z 200c87a0 f   Sound.obj
 0001:000c7820       ?DoSound@idSound@@AAEX_N@Z 200c8820 f   Sound.obj
 0001:000c7880       ?Event_Off@idSound@@AAEXXZ 200c8880 f   Sound.obj
 0001:000c78b0       ?ShowEditingDialog@idSound@@UAEXXZ 200c88b0 f   Sound.obj
 0001:000c78d0       ??0idSound@@QAE@XZ         200c88d0 f   Sound.obj
 0001:000c7930       ?Spawn@idSound@@QAEXXZ     200c8930 f   Sound.obj
 0001:000c7b20       ?Event_Trigger@idSound@@AAEXPAVidEntity@@@Z 200c8b20 f   Sound.obj
 0001:000c7c40       ?Event_Timer@idSound@@AAEXXZ 200c8c40 f   Sound.obj
 0001:000c7cb0       ?Think@idSound@@UAEXXZ     200c8cb0 f   Sound.obj
 0001:000c7cd0       ?UpdateChangeableSpawnArgs@idSound@@UAEXPBVidDict@@@Z 200c8cd0 f   Sound.obj
 0001:000c7f70       ?SetSound@idSound@@QAEXPBDH@Z 200c8f70 f   Sound.obj
 0001:000c8000       ?Event_On@idSound@@AAEXXZ  200c9000 f   Sound.obj
 0001:000c8090       ?SetTargetSoundHandles@idSound@@AAEXXZ 200c9090 f   Sound.obj
 0001:000c8140       ?GetPhysicsToSoundTransform@idSound@@EAE_NAAVidVec3@@AAVidMat3@@@Z 200c9140 f   Sound.obj
 0001:000c8390       ?CreateInstance@idSound@@SAPAVidClass@@XZ 200c9390 f   Sound.obj
 0001:000c8430       ?FindTargets@idSound@@EAEXXZ 200c9430 f   Sound.obj
 0001:000c8480       ?RegisterClassA@idSound@@SAXXZ 200c9480 f   Sound.obj
 0001:000c8510       ?Register_idSound@@YAXXZ   200c9510 f   Sound.obj
 0001:000c8520       ?GetClassType@rvPhysics_Spline@@SAAAVidTypeInfo@@XZ 200c9520 f   SplineMover.obj
 0001:000c8530       ?GetType@rvPhysics_Spline@@UBEPAVidTypeInfo@@XZ 200c9530 f   SplineMover.obj
 0001:000c8540       ?UpdateDist@splinePState_t@@QAEXM@Z 200c9540 f   SplineMover.obj
 0001:000c8560       ?Save@splinePState_t@@QBEXPAVidSaveGame@@@Z 200c9560 f   SplineMover.obj
 0001:000c85e0       ?Restore@splinePState_t@@QAEXPAVidRestoreGame@@@Z 200c95e0 f   SplineMover.obj
 0001:000c8650       ?Assign@splinePState_t@@QAEAAU1@PBU1@@Z 200c9650 f   SplineMover.obj
 0001:000c8680       ??4splinePState_t@@QAEAAU0@ABU0@@Z 200c9680 f   SplineMover.obj
 0001:000c8690       ??4splinePState_t@@QAEAAU0@PBU0@@Z 200c9690 f   SplineMover.obj
 0001:000c86a0       ?GetClipModel@rvPhysics_Spline@@UBEPAVidClipModel@@H@Z 200c96a0 f   SplineMover.obj
 0001:000c86b0       ?SetLinearAcceleration@rvPhysics_Spline@@QAEXM@Z 200c96b0 f   SplineMover.obj
 0001:000c86c0       ?SetLinearDeceleration@rvPhysics_Spline@@QAEXM@Z 200c96c0 f   SplineMover.obj
 0001:000c86d0       ?SetSpeed@rvPhysics_Spline@@QAEXM@Z 200c96d0 f   SplineMover.obj
 0001:000c8730       ?GetSpeed@rvPhysics_Spline@@QBEMXZ 200c9730 f   SplineMover.obj
 0001:000c8740       ?Activate@rvPhysics_Spline@@UAEXXZ 200c9740 f   SplineMover.obj
 0001:000c8750       ?Rest@rvPhysics_Spline@@QAEXXZ 200c9750 f   SplineMover.obj
 0001:000c8760       ?IsAtEndOfSpline@rvPhysics_Spline@@QBE_NXZ 200c9760 f   SplineMover.obj
 0001:000c8780       ?IsAtBeginningOfSpline@rvPhysics_Spline@@QBE_NXZ 200c9780 f   SplineMover.obj
 0001:000c87a0       ?HasValidSpline@rvPhysics_Spline@@QBE_NXZ 200c97a0 f   SplineMover.obj
 0001:000c87d0       ?SaveState@rvPhysics_Spline@@UAEXXZ 200c97d0 f   SplineMover.obj
 0001:000c87e0       ?RestoreState@rvPhysics_Spline@@UAEXXZ 200c97e0 f   SplineMover.obj
 0001:000c8800       ?GetOrigin@rvPhysics_Spline@@UBEABVidVec3@@H@Z 200c9800 f   SplineMover.obj
 0001:000c8810       ?GetAxis@rvPhysics_Spline@@UBEABVidMat3@@H@Z 200c9810 f   SplineMover.obj
 0001:000c8820       ?GetOrigin@rvPhysics_Spline@@QAEAAVidVec3@@H@Z 200c9820 f   SplineMover.obj
 0001:000c8830       ?GetAxis@rvPhysics_Spline@@QAEAAVidMat3@@H@Z 200c9830 f   SplineMover.obj
 0001:000c8840       ?GetLocalOrigin@rvPhysics_Spline@@IBEABVidVec3@@H@Z 200c9840 f   SplineMover.obj
 0001:000c8850       ?GetLocalAxis@rvPhysics_Spline@@IBEABVidMat3@@H@Z 200c9850 f   SplineMover.obj
 0001:000c8860       ?GetLocalOrigin@rvPhysics_Spline@@IAEAAVidVec3@@H@Z 200c9860 f   SplineMover.obj
 0001:000c8870       ?GetLocalAxis@rvPhysics_Spline@@IAEAAVidMat3@@H@Z 200c9870 f   SplineMover.obj
 0001:000c8880       ?UnlinkClip@rvPhysics_Spline@@UAEXXZ 200c9880 f   SplineMover.obj
 0001:000c8890       ?GetBlockingInfo@rvPhysics_Spline@@UBEPBUtrace_t@@XZ 200c9890 f   SplineMover.obj
 0001:000c88b0       ?GetBlockingEntity@rvPhysics_Spline@@UBEPAVidEntity@@XZ 200c98b0 f   SplineMover.obj
 0001:000c88d0       ?GetClassType@rvSplineMover@@SAAAVidTypeInfo@@XZ 200c98d0 f   SplineMover.obj
 0001:000c88e0       ?GetType@rvSplineMover@@UBEPAVidTypeInfo@@XZ 200c98e0 f   SplineMover.obj
 0001:000c88f0       ?SetSpeed@rvSplineMover@@UAEXM@Z 200c98f0 f   SplineMover.obj
 0001:000c8910       ?GetSpeed@rvSplineMover@@UBEMXZ 200c9910 f   SplineMover.obj
 0001:000c8920       ?SetIdealSpeed@rvSplineMover@@UAEXM@Z 200c9920 f   SplineMover.obj
 0001:000c8940       ?GetIdealSpeed@rvSplineMover@@UBEMXZ 200c9940 f   SplineMover.obj
 0001:000c8950       ?SetAcceleration@rvSplineMover@@UAEXM@Z 200c9950 f   SplineMover.obj
 0001:000c8970       ?SetDeceleration@rvSplineMover@@UAEXM@Z 200c9970 f   SplineMover.obj
 0001:000c8990       ?PreBind@rvSplineMover@@MAEXXZ 200c9990 f   SplineMover.obj
 0001:000c89b0       ?Save@rvSplineMover@@QBEXPAVidSaveGame@@@Z 200c99b0 f   SplineMover.obj
 0001:000c89f0       ?WriteToSnapshot@rvSplineMover@@UBEXAAVidBitMsgDelta@@@Z 200c99f0 f   SplineMover.obj
 0001:000c8a10       ?ReadFromSnapshot@rvSplineMover@@UAEXABVidBitMsgDelta@@@Z 200c9a10 f   SplineMover.obj
 0001:000c8a30       ?PreDoneMoving@rvSplineMover@@MAEXXZ 200c9a30 f   SplineMover.obj
 0001:000c8a70       ?Event_GetSpline@rvSplineMover@@IAEXXZ 200c9a70 f   SplineMover.obj
 0001:000c8a90       ?Event_SetAcceleration@rvSplineMover@@IAEXM@Z 200c9a90 f   SplineMover.obj
 0001:000c8ab0       ?Event_SetDeceleration@rvSplineMover@@IAEXM@Z 200c9ab0 f   SplineMover.obj
 0001:000c8ad0       ?Event_SetSpeed@rvSplineMover@@IAEXM@Z 200c9ad0 f   SplineMover.obj
 0001:000c8b00       ?Event_GetSpeed@rvSplineMover@@IAEXXZ 200c9b00 f   SplineMover.obj
 0001:000c8b20       ?Event_SetIdealSpeed@rvSplineMover@@IAEXM@Z 200c9b20 f   SplineMover.obj
 0001:000c8b40       ?Event_GetIdealSpeed@rvSplineMover@@IAEXXZ 200c9b40 f   SplineMover.obj
 0001:000c8b60       ?Event_SetCallBack@rvSplineMover@@IAEXXZ 200c9b60 f   SplineMover.obj
 0001:000c8b90       ?Event_DoneMoving@rvSplineMover@@IAEXXZ 200c9b90 f   SplineMover.obj
 0001:000c8bd0       ?Event_Activate@rvSplineMover@@IAEXPAVidEntity@@@Z 200c9bd0 f   SplineMover.obj
 0001:000c8be0       ?Event_OnAcceleration@rvSplineMover@@IAEXXZ 200c9be0 f   SplineMover.obj
 0001:000c8c00       ?Event_OnDeceleration@rvSplineMover@@IAEXXZ 200c9c00 f   SplineMover.obj
 0001:000c8c20       ?Event_OnStopMoving@rvSplineMover@@IAEXXZ 200c9c20 f   SplineMover.obj
 0001:000c8c40       ?Event_OnStartMoving@rvSplineMover@@IAEXXZ 200c9c40 f   SplineMover.obj
 0001:000c8c50       ?GetClassType@rvTramCar@@SAAAVidTypeInfo@@XZ 200c9c50 f   SplineMover.obj
 0001:000c8c60       ?GetType@rvTramCar@@UBEPAVidTypeInfo@@XZ 200c9c60 f   SplineMover.obj
 0001:000c8c70       ?Think@rvTramCar@@UAEXXZ   200c9c70 f   SplineMover.obj
 0001:000c8c90       ?MidThink@rvTramCar@@UAEXXZ 200c9c90 f   SplineMover.obj
 0001:000c8cd0       ?SetIdealTrack@rvTramCar@@UAEXH@Z 200c9cd0 f   SplineMover.obj
 0001:000c8ce0       ?GetIdealTrack@rvTramCar@@UBEHXZ 200c9ce0 f   SplineMover.obj
 0001:000c8cf0       ?GetDamageScale@rvTramCar@@UBEMXZ 200c9cf0 f   SplineMover.obj
 0001:000c8d10       ?WriteToSnapshot@rvTramCar@@UBEXAAVidBitMsgDelta@@@Z 200c9d10 f   SplineMover.obj
 0001:000c8d20       ?ReadFromSnapshot@rvTramCar@@UAEXABVidBitMsgDelta@@@Z 200c9d20 f   SplineMover.obj
 0001:000c8d30       ?UpdateChannel@rvTramCar@@MAEXHABUsoundShaderParms_t@@@Z 200c9d30 f   SplineMover.obj
 0001:000c8d60       ?AttenuateTrackChannel@rvTramCar@@MAEXM@Z 200c9d60 f   SplineMover.obj
 0001:000c8da0       ?SameIdealTrackAs@rvTramCar@@MBE_NPBVrvSplineMover@@@Z 200c9da0 f   SplineMover.obj
 0001:000c8de0       ?Event_OnStopMoving@rvTramCar@@IAEXXZ 200c9de0 f   SplineMover.obj
 0001:000c8e00       ?Event_OnStartMoving@rvTramCar@@IAEXXZ 200c9e00 f   SplineMover.obj
 0001:000c8e20       ?Event_DriverSpeak@rvTramCar@@IAEXPBD@Z 200c9e20 f   SplineMover.obj
 0001:000c8e40       ?Event_RadiusDamage@rvTramCar@@IAEXABVidVec3@@PBD@Z 200c9e40 f   SplineMover.obj
 0001:000c8e70       ?Event_OpenDoors@rvTramCar@@IAEXXZ 200c9e70 f   SplineMover.obj
 0001:000c8e80       ?Event_CloseDoors@rvTramCar@@IAEXXZ 200c9e80 f   SplineMover.obj
 0001:000c8e90       ?Event_SetHealth@rvTramCar@@IAEXM@Z 200c9e90 f   SplineMover.obj
 0001:000c8eb0       ?State_Idle@rvTramCar@@QAE?AW4stateResult_t@@ABUstateParms_t@@@Z 200c9eb0 f   SplineMover.obj
 0001:000c8f00       ?State_NormalSpeed@rvTramCar@@QAE?AW4stateResult_t@@ABUstateParms_t@@@Z 200c9f00 f   SplineMover.obj
 0001:000c8fe0       ?State_ExcessiveSpeed@rvTramCar@@QAE?AW4stateResult_t@@ABUstateParms_t@@@Z 200c9fe0 f   SplineMover.obj
 0001:000c90b0       ?State_RandomTrack@rvTramCar@@QAE?AW4stateResult_t@@ABUstateParms_t@@@Z 200ca0b0 f   SplineMover.obj
 0001:000c90e0       ?State_AssignedTrack@rvTramCar@@QAE?AW4stateResult_t@@ABUstateParms_t@@@Z 200ca0e0 f   SplineMover.obj
 0001:000c90f0       ?GetClassType@rvTramCar_Marine@@SAAAVidTypeInfo@@XZ 200ca0f0 f   SplineMover.obj
 0001:000c9100       ?GetType@rvTramCar_Marine@@UBEPAVidTypeInfo@@XZ 200ca100 f   SplineMover.obj
 0001:000c9110       ?MidThink@rvTramCar_Marine@@UAEXXZ 200ca110 f   SplineMover.obj
 0001:000c9170       ?GetClassType@rvTramCar_Strogg@@SAAAVidTypeInfo@@XZ 200ca170 f   SplineMover.obj
 0001:000c9180       ?GetType@rvTramCar_Strogg@@UBEPAVidTypeInfo@@XZ 200ca180 f   SplineMover.obj
 0001:000c9190       ?Spawn@rvTramCar_Strogg@@QAEXXZ 200ca190 f   SplineMover.obj
 0001:000c91d0       ?WriteToSnapshot@rvTramCar_Strogg@@UBEXAAVidBitMsgDelta@@@Z 200ca1d0 f   SplineMover.obj
 0001:000c91e0       ?ReadFromSnapshot@rvTramCar_Strogg@@UAEXABVidBitMsgDelta@@@Z 200ca1e0 f   SplineMover.obj
 0001:000c91f0       ?LookAround@rvTramCar_Strogg@@MAEXXZ 200ca1f0 f   SplineMover.obj
 0001:000c9200       ?ApplyAccelerationDelta@splinePState_t@@QAEXM@Z 200ca200 f   SplineMover.obj
 0001:000c92a0       ?ApplyDecelerationDelta@splinePState_t@@QAEXM@Z 200ca2a0 f   SplineMover.obj
 0001:000c9340       ?ShouldAccelerate@splinePState_t@@QBE_NXZ 200ca340 f   SplineMover.obj
 0001:000c9440       ?ShouldDecelerate@splinePState_t@@QBE_NXZ 200ca440 f   SplineMover.obj
 0001:000c9540       ?Save@rvPhysics_Spline@@QBEXPAVidSaveGame@@@Z 200ca540 f   SplineMover.obj
 0001:000c95b0       ?Restore@rvPhysics_Spline@@QAEXPAVidRestoreGame@@@Z 200ca5b0 f   SplineMover.obj
 0001:000c9640       ?SetClipModel@rvPhysics_Spline@@UAEXPAVidClipModel@@MH_N@Z 200ca640 f   SplineMover.obj
 0001:000c96b0       ?SetContents@rvPhysics_Spline@@UAEXHH@Z 200ca6b0 f   SplineMover.obj
 0001:000c96d0       ?GetContents@rvPhysics_Spline@@UBEHH@Z 200ca6d0 f   SplineMover.obj
 0001:000c96e0       ?GetBounds@rvPhysics_Spline@@UBEABVidBounds@@H@Z 200ca6e0 f   SplineMover.obj
 0001:000c96f0       ?GetAbsBounds@rvPhysics_Spline@@UBEABVidBounds@@H@Z 200ca6f0 f   SplineMover.obj
 0001:000c9700       ?ComputeDecelFromSpline@rvPhysics_Spline@@QBEMXZ 200ca700 f   SplineMover.obj
 0001:000c9750       ?IsAtRest@rvPhysics_Spline@@UBE_NXZ 200ca750 f   SplineMover.obj
 0001:000c9770       ?IsPushable@rvPhysics_Spline@@UBE_NXZ 200ca770 f   SplineMover.obj
 0001:000c9790       ?StartingToMove@rvPhysics_Spline@@UBE_NXZ 200ca790 f   SplineMover.obj
 0001:000c9800       ?StoppedMoving@rvPhysics_Spline@@UBE_NXZ 200ca800 f   SplineMover.obj
 0001:000c9850       ?SetOrigin@rvPhysics_Spline@@UAEXABVidVec3@@H@Z 200ca850 f   SplineMover.obj
 0001:000c9940       ?SetAxis@rvPhysics_Spline@@UAEXABVidMat3@@H@Z 200ca940 f   SplineMover.obj
 0001:000c9b40       ?Translate@rvPhysics_Spline@@UAEXABVidVec3@@H@Z 200cab40 f   SplineMover.obj
 0001:000c9b90       ?Rotate@rvPhysics_Spline@@UAEXABVidRotation@@H@Z 200cab90 f   SplineMover.obj
 0001:000c9d60       ?SetMaster@rvPhysics_Spline@@UAEXPAVidEntity@@_N@Z 200cad60 f   SplineMover.obj
 0001:000c9f60       ?ClipTranslation@rvPhysics_Spline@@UBEXAAUtrace_t@@ABVidVec3@@PBVidClipModel@@@Z 200caf60 f   SplineMover.obj
 0001:000ca060       ?ClipRotation@rvPhysics_Spline@@UBEXAAUtrace_t@@ABVidRotation@@PBVidClipModel@@@Z 200cb060 f   SplineMover.obj
 0001:000ca110       ?ClipContents@rvPhysics_Spline@@UBEHPBVidClipModel@@@Z 200cb110 f   SplineMover.obj
 0001:000ca1b0       ?DisableClip@rvPhysics_Spline@@UAEXXZ 200cb1b0 f   SplineMover.obj
 0001:000ca1c0       ?EnableClip@rvPhysics_Spline@@UAEXXZ 200cb1c0 f   SplineMover.obj
 0001:000ca1d0       ?LinkClip@rvPhysics_Spline@@UAEXXZ 200cb1d0 f   SplineMover.obj
 0001:000ca200       ?State_Accelerating@rvPhysics_Spline@@QAE?AW4stateResult_t@@ABUstateParms_t@@@Z 200cb200 f   SplineMover.obj
 0001:000ca2c0       ?State_Decelerating@rvPhysics_Spline@@QAE?AW4stateResult_t@@ABUstateParms_t@@@Z 200cb2c0 f   SplineMover.obj
 0001:000ca380       ?State_Cruising@rvPhysics_Spline@@QAE?AW4stateResult_t@@ABUstateParms_t@@@Z 200cb380 f   SplineMover.obj
 0001:000ca420       ?CheckSplineForOverrides@rvSplineMover@@UAEXPBV?$idCurve_Spline@VidVec3@@@@PBVidDict@@@Z 200cb420 f   SplineMover.obj
 0001:000ca500       ?RestoreFromOverrides@rvSplineMover@@UAEXPBVidDict@@@Z 200cb500 f   SplineMover.obj
 0001:000ca550       ?PlayAnim@rvSplineMover@@QAEHHPBDH@Z 200cb550 f   SplineMover.obj
 0001:000ca5d0       ?CycleAnim@rvSplineMover@@QAEXHPBDH@Z 200cb5d0 f   SplineMover.obj
 0001:000ca630       ?ClearChannel@rvSplineMover@@QAEXHH@Z 200cb630 f   SplineMover.obj
 0001:000ca670       ?RemoveSelfFromGlobalList@rvSplineMover@@IAEXXZ 200cb670 f   SplineMover.obj
 0001:000ca680       ?InGlobalList@rvSplineMover@@IBE_NXZ 200cb680 f   SplineMover.obj
 0001:000ca690       ?GetTrackInfo@rvSplineMover@@MBE?AVidStr@@PBVidSplinePath@@@Z 200cb690 f   SplineMover.obj
 0001:000ca7b0       ?ConvertToSplinePath@rvSplineMover@@IBEPAVidSplinePath@@PAVidEntity@@@Z 200cb7b0 f   SplineMover.obj
 0001:000ca7f0       ?Event_PartBlocked@rvSplineMover@@IAEXPAVidEntity@@@Z 200cb7f0 f   SplineMover.obj
 0001:000ca8a0       ?Event_SetSpline@rvSplineMover@@IAEXPAVidEntity@@@Z 200cb8a0 f   SplineMover.obj
 0001:000ca8d0       ?Event_ApplySpeedScale@rvSplineMover@@IAEXM@Z 200cb8d0 f   SplineMover.obj
 0001:000ca920       ?Event_GetTrackInfo@rvSplineMover@@IAEXPAVidEntity@@@Z 200cb920 f   SplineMover.obj
 0001:000ca990       ?Event_OnCruising@rvSplineMover@@IAEXXZ 200cb990 f   SplineMover.obj
 0001:000caa70       ?Event_StartSoundPeriodic@rvSplineMover@@IAEXPBDHHH@Z 200cba70 f   SplineMover.obj
 0001:000cab20       ?RegisterStateThread@rvTramCar@@MAEXAAVrvStateThread@@PBD@Z 200cbb20 f   SplineMover.obj
 0001:000cab50       ?Damage@rvTramCar@@UAEXPAVidEntity@@0ABVidVec3@@PBDMH@Z 200cbb50 f   SplineMover.obj
 0001:000cac20       ?Killed@rvTramCar@@UAEXPAVidEntity@@0HABVidVec3@@H@Z 200cbc20 f   SplineMover.obj
 0001:000cad60       ?GetHealthScale@rvTramCar@@UBEMXZ 200cbd60 f   SplineMover.obj
 0001:000cadd0       ?Save@rvTramCar@@QBEXPAVidSaveGame@@@Z 200cbdd0 f   SplineMover.obj
 0001:000caeb0       ?SortSplineTargets@rvTramCar@@IBEHPAVidSplinePath@@@Z 200cbeb0 f   SplineMover.obj
 0001:000caf10       ?GetSplineTarget@rvTramCar@@IBEPAVidEntity@@PAVidSplinePath@@H@Z 200cbf10 f   SplineMover.obj
 0001:000cafa0       ?GetRandomSpline@rvTramCar@@IBEPAVidSplinePath@@PAV2@@Z 200cbfa0 f   SplineMover.obj
 0001:000cb000       ?AttenuateTramCarChannel@rvTramCar@@MAEXM@Z 200cc000 f   SplineMover.obj
 0001:000cb060       ?rvSortByDist@@YAHPBX0@Z   200cc060 f   SplineMover.obj
 0001:000cb0e0       ?OnSameTrackAs@rvTramCar@@MBE_NPBVrvSplineMover@@@Z 200cc0e0 f   SplineMover.obj
 0001:000cb1c0       ?OperateRamp@rvTramCar@@IAEXPBDPAVidMover@@@Z 200cc1c0 f   SplineMover.obj
 0001:000cb310       ?Spawn@rvTramCar_Marine@@QAEXXZ 200cc310 f   SplineMover.obj
 0001:000cb410       ?Damage@rvTramCar_Marine@@MAEXPAVidEntity@@0ABVidVec3@@PBDMH@Z 200cc410 f   SplineMover.obj
 0001:000cb4c0       ?Save@rvTramCar_Marine@@QBEXPAVidSaveGame@@@Z 200cc4c0 f   SplineMover.obj
 0001:000cb540       ?EntityIsInside@rvTramCar_Marine@@IBE_NPBVidEntity@@@Z 200cc540 f   SplineMover.obj
 0001:000cb600       ?GetTarget@rvTramCar_Strogg@@UBEPBVrvSplineMover@@XZ 200cc600 f   SplineMover.obj
 0001:000cb630       ?Save@rvTramCar_Strogg@@QBEXPAVidSaveGame@@@Z 200cc630 f   SplineMover.obj
 0001:000cb660       ?Restore@rvTramCar_Strogg@@QAEXPAVidRestoreGame@@@Z 200cc660 f   SplineMover.obj
 0001:000cb690       ?Clear@splinePState_t@@QAEXXZ 200cc690 f   SplineMover.obj
 0001:000cb760       ?WriteToSnapshot@splinePState_t@@QBEXAAVidBitMsgDelta@@@Z 200cc760 f   SplineMover.obj
 0001:000cb900       ?ReadFromSnapshot@splinePState_t@@QAEXABVidBitMsgDelta@@@Z 200cc900 f   SplineMover.obj
 0001:000cbb40       ??1rvPhysics_Spline@@UAE@XZ 200ccb40 f   SplineMover.obj
 0001:000cbc00       ?Event_PostRestore@rvPhysics_Spline@@QAEXXZ 200ccc00 f   SplineMover.obj
 0001:000cbc40       ?SetSpline@rvPhysics_Spline@@QAEXPAV?$idCurve_Spline@VidVec3@@@@@Z 200ccc40 f   SplineMover.obj
 0001:000cc510       ?SetSplineEntity@rvPhysics_Spline@@QAEXPAVidSplinePath@@@Z 200cd510 f   SplineMover.obj
 0001:000cc560       ?WriteToSnapshot@rvPhysics_Spline@@UBEXAAVidBitMsgDelta@@@Z 200cd560 f   SplineMover.obj
 0001:000cc570       ?ReadFromSnapshot@rvPhysics_Spline@@UAEXABVidBitMsgDelta@@@Z 200cd570 f   SplineMover.obj
 0001:000cc5a0       ??1rvSplineMover@@UAE@XZ   200cd5a0 f   SplineMover.obj
 0001:000cc620       ?SetSpline@rvSplineMover@@UAEXPAVidSplinePath@@@Z 200cd620 f   SplineMover.obj
 0001:000cc660       ?AddSelfToGlobalList@rvSplineMover@@IAEXXZ 200cd660 f   SplineMover.obj
 0001:000cc690       ?ConvertToMover@rvSplineMover@@IBEPAV1@PAVidEntity@@@Z 200cd690 f   SplineMover.obj
 0001:000cc6d0       ?Event_PostSpawn@rvSplineMover@@IAEXXZ 200cd6d0 f   SplineMover.obj
 0001:000cc820       ?AddDamageEffect@rvTramCar@@UAEXABUtrace_t@@ABVidVec3@@PBDPAVidEntity@@@Z 200cd820 f   SplineMover.obj
 0001:000cc980       ?GetCurrentTrack@rvTramCar@@IBEHXZ 200cd980 f   SplineMover.obj
 0001:000cca10       ?DriverSpeak@rvTramCar@@MAEPAVidEntity@@PBD_N@Z 200cda10 f   SplineMover.obj
 0001:000ccaa0       ?OccupantSpeak@rvTramCar@@MAEPAVidEntity@@PBD_N@Z 200cdaa0 f   SplineMover.obj
 0001:000ccb70       ?OperateRamp@rvTramCar@@IAEXPBD@Z 200cdb70 f   SplineMover.obj
 0001:000ccc00       ?Event_GetDriver@rvTramCar@@IAEXXZ 200cdc00 f   SplineMover.obj
 0001:000ccc40       ?Event_SetIdealTrack@rvTramCar@@IAEXPBD@Z 200cdc40 f   SplineMover.obj
 0001:000ccdc0       ?ActivateTramHud@rvTramCar_Marine@@IAEXPAVidPlayer@@@Z 200cddc0 f   SplineMover.obj
 0001:000cce10       ?DeactivateTramHud@rvTramCar_Marine@@IAEXPAVidPlayer@@@Z 200cde10 f   SplineMover.obj
 0001:000cce60       ?UpdateTramHud@rvTramCar_Marine@@IAEXPAVidPlayer@@@Z 200cde60 f   SplineMover.obj
 0001:000cced0       ?Killed@rvTramCar_Marine@@MAEXPAVidEntity@@0HABVidVec3@@H@Z 200cded0 f   SplineMover.obj
 0001:000ccf40       ?UseMountedGun@rvTramCar_Marine@@IAEXPAVidPlayer@@@Z 200cdf40 f   SplineMover.obj
 0001:000ccff0       ?Event_UseMountedGun@rvTramCar_Marine@@IAEXPAVidEntity@@@Z 200cdff0 f   SplineMover.obj
 0001:000cd030       ?Event_SetPlayerDamageEntity@rvTramCar_Marine@@IAEXM@Z 200ce030 f   SplineMover.obj
 0001:000cd080       ?State_Occupied@rvTramCar_Marine@@QAE?AW4stateResult_t@@ABUstateParms_t@@@Z 200ce080 f   SplineMover.obj
 0001:000cd110       ?State_NotOccupied@rvTramCar_Marine@@QAE?AW4stateResult_t@@ABUstateParms_t@@@Z 200ce110 f   SplineMover.obj
 0001:000cd190       ?State_UsingMountedGun@rvTramCar_Marine@@QAE?AW4stateResult_t@@ABUstateParms_t@@@Z 200ce190 f   SplineMover.obj
 0001:000cd210       ?State_NotUsingMountedGun@rvTramCar_Marine@@QAE?AW4stateResult_t@@ABUstateParms_t@@@Z 200ce210 f   SplineMover.obj
 0001:000cd260       ?SetTarget@rvTramCar_Strogg@@UAEXPAVidEntity@@@Z 200ce260 f   SplineMover.obj
 0001:000cd2a0       ??0rvPhysics_Spline@@QAE@XZ 200ce2a0 f   SplineMover.obj
 0001:000cd370       ?Evaluate@rvPhysics_Spline@@UAE_NHH@Z 200ce370 f   SplineMover.obj
 0001:000ce190       ?Spawn@rvSplineMover@@QAEXXZ 200cf190 f   SplineMover.obj
 0001:000ce3e0       ?GetSpline@rvSplineMover@@UBEPBVidSplinePath@@XZ 200cf3e0 f   SplineMover.obj
 0001:000ce410       ?GetSpline@rvSplineMover@@UAEPAVidSplinePath@@XZ 200cf410 f   SplineMover.obj
 0001:000ce440       ?Restore@rvSplineMover@@QAEXPAVidRestoreGame@@@Z 200cf440 f   SplineMover.obj
 0001:000ce490       ?Event_GetCurrentTrackInfo@rvSplineMover@@IAEXXZ 200cf490 f   SplineMover.obj
 0001:000ce4d0       ?SpawnPart@rvTramCar@@IAEPAVidEntity@@PBD0@Z 200cf4d0 f   SplineMover.obj
 0001:000ce970       ?SpawnDoor@rvTramCar@@IAEPAVidMover@@PBD@Z 200cf970 f   SplineMover.obj
 0001:000cee70       ?LookAround@rvTramCar@@MAEXXZ 200cfe70 f   SplineMover.obj
 0001:000cef30       ?DeployRamp@rvTramCar@@MAEXXZ 200cff30 f   SplineMover.obj
 0001:000cef40       ?RetractRamp@rvTramCar@@MAEXXZ 200cff40 f   SplineMover.obj
 0001:000cef50       ?Event_Activate@rvTramCar@@IAEXPAVidEntity@@@Z 200cff50 f   SplineMover.obj
 0001:000cf0e0       ?Restore@rvTramCar_Marine@@QAEXPAVidRestoreGame@@@Z 200d00e0 f   SplineMover.obj
 0001:000cf310       ?DeployRamp@rvTramCar_Marine@@MAEXXZ 200d0310 f   SplineMover.obj
 0001:000cf390       ?RetractRamp@rvTramCar_Marine@@MAEXXZ 200d0390 f   SplineMover.obj
 0001:000cf3b0       ?Event_PostSpawn@rvTramCar_Strogg@@IAEXXZ 200d03b0 f   SplineMover.obj
 0001:000cf500       ?CreateInstance@rvPhysics_Spline@@SAPAVidClass@@XZ 200d0500 f   SplineMover.obj
 0001:000cf5a0       ?CreateInstance@rvSplineMover@@SAPAVidClass@@XZ 200d05a0 f   SplineMover.obj
 0001:000cf660       ?WhosVisible@rvSplineMover@@IBE_NABVidFrustum@@AAV?$idList@PAVrvSplineMover@@@@@Z 200d0660 f   SplineMover.obj
 0001:000cf900       ?CallScriptEvents@rvSplineMover@@IAEXPBVidSplinePath@@PBDPAVidEntity@@@Z 200d0900 f   SplineMover.obj
 0001:000cf9e0       ?CreateInstance@rvTramCar@@SAPAVidClass@@XZ 200d09e0 f   SplineMover.obj
 0001:000cfa80       ??1rvTramCar@@UAE@XZ       200d0a80 f   SplineMover.obj
 0001:000cff50       ?SpawnDriver@rvTramCar@@IAEXPBD@Z 200d0f50 f   SplineMover.obj
 0001:000cffb0       ?SpawnWeapons@rvTramCar@@IAEXPBD@Z 200d0fb0 f   SplineMover.obj
 0001:000d03a0       ?SpawnOccupants@rvTramCar@@IAEXPBD@Z 200d13a0 f   SplineMover.obj
 0001:000d0790       ?SpawnDoors@rvTramCar@@IAEXXZ 200d1790 f   SplineMover.obj
 0001:000d07f0       ?Restore@rvTramCar@@QAEXPAVidRestoreGame@@@Z 200d17f0 f   SplineMover.obj
 0001:000d0ba0       ?Look@rvTramCar@@IBE_NABVidFrustum@@AAV?$idList@PAVrvSplineMover@@@@@Z 200d1ba0 f   SplineMover.obj
 0001:000d0cc0       ?LookOverLeftShoulder@rvTramCar_Marine@@IAE_NAAV?$idList@PAVrvSplineMover@@@@@Z 200d1cc0 f   SplineMover.obj
 0001:000d12e0       ?LookOverRightShoulder@rvTramCar_Marine@@IAE_NAAV?$idList@PAVrvSplineMover@@@@@Z 200d22e0 f   SplineMover.obj
 0001:000d1900       ?RegisterClassA@rvPhysics_Spline@@SAXXZ 200d2900 f   SplineMover.obj
 0001:000d1990       ?Register_rvPhysics_Spline@@YAXXZ 200d2990 f   SplineMover.obj
 0001:000d19a0       ?RegisterClassA@rvSplineMover@@SAXXZ 200d29a0 f   SplineMover.obj
 0001:000d1a30       ?Register_rvSplineMover@@YAXXZ 200d2a30 f   SplineMover.obj
 0001:000d1a40       ?PostDoneMoving@rvSplineMover@@MAEXXZ 200d2a40 f   SplineMover.obj
 0001:000d1a80       ?Spawn@rvTramCar@@QAEXXZ   200d2a80 f   SplineMover.obj
 0001:000d1c70       ?LookForward@rvTramCar@@IBE_NAAV?$idList@PAVrvSplineMover@@@@@Z 200d2c70 f   SplineMover.obj
 0001:000d1da0       ?LookLeft@rvTramCar@@IBE_NAAV?$idList@PAVrvSplineMover@@@@@Z 200d2da0 f   SplineMover.obj
 0001:000d1f50       ?LookRight@rvTramCar@@IBE_NAAV?$idList@PAVrvSplineMover@@@@@Z 200d2f50 f   SplineMover.obj
 0001:000d2100       ?LookLeftForTrackChange@rvTramCar@@IBE_NAAV?$idList@PAVrvSplineMover@@@@@Z 200d3100 f   SplineMover.obj
 0001:000d22b0       ?LookRightForTrackChange@rvTramCar@@IBE_NAAV?$idList@PAVrvSplineMover@@@@@Z 200d32b0 f   SplineMover.obj
 0001:000d2460       ?AdjustSpeed@rvTramCar@@MAE_NAAV?$idList@PAVrvSplineMover@@@@@Z 200d3460 f   SplineMover.obj
 0001:000d2570       ?CreateInstance@rvTramCar_Marine@@SAPAVidClass@@XZ 200d3570 f   SplineMover.obj
 0001:000d2610       ?LookAround@rvTramCar_Marine@@MAEXXZ 200d3610 f   SplineMover.obj
 0001:000d2790       ?CreateInstance@rvTramCar_Strogg@@SAPAVidClass@@XZ 200d3790 f   SplineMover.obj
 0001:000d2850       ?TargetIsToLeft@rvTramCar_Strogg@@IAE_NXZ 200d3850 f   SplineMover.obj
 0001:000d2980       ?TargetIsToRight@rvTramCar_Strogg@@IAE_NXZ 200d3980 f   SplineMover.obj
 0001:000d2ab0       ?State_LookingForTarget@rvTramCar_Strogg@@QAE?AW4stateResult_t@@ABUstateParms_t@@@Z 200d3ab0 f   SplineMover.obj
 0001:000d2c10       ?State_TargetInSight@rvTramCar_Strogg@@QAE?AW4stateResult_t@@ABUstateParms_t@@@Z 200d3c10 f   SplineMover.obj
 0001:000d2f90       ?RegisterClassA@rvTramCar@@SAXXZ 200d3f90 f   SplineMover.obj
 0001:000d3020       ?Register_rvTramCar@@YAXXZ 200d4020 f   SplineMover.obj
 0001:000d3030       ?FindSplineToTrack@rvTramCar@@IBEPAVidSplinePath@@PAV2@ABVidStr@@@Z 200d4030 f   SplineMover.obj
 0001:000d3260       ?FindSplineToIdealTrack@rvTramCar@@IBEPAVidSplinePath@@PAV2@@Z 200d4260 f   SplineMover.obj
 0001:000d3350       ?RegisterClassA@rvTramCar_Marine@@SAXXZ 200d4350 f   SplineMover.obj
 0001:000d33e0       ?Register_rvTramCar_Marine@@YAXXZ 200d43e0 f   SplineMover.obj
 0001:000d33f0       ?RegisterClassA@rvTramCar_Strogg@@SAXXZ 200d43f0 f   SplineMover.obj
 0001:000d3480       ?Register_rvTramCar_Strogg@@YAXXZ 200d4480 f   SplineMover.obj
 0001:000d3490       ?HeadTowardsIdealTrack@rvTramCar@@IAEXXZ 200d4490 f   SplineMover.obj
 0001:000d34d0       ?PostDoneMoving@rvTramCar@@MAEXXZ 200d44d0 f   SplineMover.obj
 0001:000d34e0       ?Remove@?$idLinkList@VidActor@@@@QAEXXZ 200d44e0 f i Actor.obj
 0001:000d34e0       ?Remove@?$idLinkList@VidEvent@@@@QAEXXZ 200d44e0 f i Event.obj
 0001:000d34e0       ?Remove@?$idLinkList@VrvAIHelper@@@@QAEXXZ 200d44e0 f i AI_Manager.obj
 0001:000d34e0       ?Remove@?$idLinkList@UannouncerSoundNode_s@idMultiplayerGame@@@@QAEXXZ 200d44e0 f i Game_local.obj
 0001:000d34e0       ?Remove@?$idLinkList@VrvSplineMover@@@@QAEXXZ 200d44e0 f i SplineMover.obj
 0001:000d34e0       ?Remove@?$idLinkList@VidAI@@@@QAEXXZ 200d44e0 f i AI.obj
 0001:000d34e0       ?Remove@?$idLinkList@VidEntity@@@@QAEXXZ 200d44e0 f i Entity.obj
 0001:000d34e0       ?Remove@?$idLinkList@VidMsgQueue@@@@QAEXXZ 200d44e0 f i idLib:BitMsg.obj
 0001:000d34e0       ?Remove@?$idLinkList@VrvClientEntity@@@@QAEXXZ 200d44e0 f i Entity.obj
 0001:000d34e0       ?Remove@?$idLinkList@UstateCall_t@@@@QAEXXZ 200d44e0 f i State.obj
 0001:000d3500       ??$SpawnSafeEntityDef@VidMover@@@idGameLocal@@QAEPAVidMover@@PBDPBVidDict@@@Z 200d4500 f i SplineMover.obj
 0001:000d3560       ??1?$idList@PAVidStr@@@@QAE@XZ 200d4560 f i Game_local.obj
 0001:000d3560       ??1?$idList@UjointConversion_s@@@@QAE@XZ 200d4560 f i AF.obj
 0001:000d3560       ??1?$idList@VidJointQuat@@@@QAE@XZ 200d4560 f i Anim.obj
 0001:000d3560       ??1?$idList@UspawnSpot_t@@@@QAE@XZ 200d4560 f i Game_local.obj
 0001:000d3560       ??1?$idList@PAUshard_s@@@@QAE@XZ 200d4560 f i BrittleFracture.obj
 0001:000d3560       ??1?$idList@PAVidPoolStr@@@@QAE@XZ 200d4560 f i idLib:Dict.obj
 0001:000d3560       ??1?$idList@PAVrvSplineMover@@@@QAE@XZ 200d4560 f i SplineMover.obj
 0001:000d3560       ??1?$idList@VrvLightningPath@@@@QAE@XZ 200d4560 f i WeaponLightningGun.obj
 0001:000d3560       ??1?$idList@VidDrawVert@@@@QAE@XZ 200d4560 f i idLib:mapfile.obj
 0001:000d3560       ??1?$idList@H@@QAE@XZ      200d4560 f i AF.obj
 0001:000d3560       ??1?$idList@PAVidAFTree@@@@QAE@XZ 200d4560 f i Physics_AF.obj
 0001:000d3560       ??1?$idList@W4jointHandle_t@@@@QAE@XZ 200d4560 f i Actor.obj
 0001:000d3560       ??1?$idList@PAVidTimer@@@@QAE@XZ 200d4560 f i idLib:Timer.obj
 0001:000d3560       ??1?$idList@PAVrvInstance@@@@QAE@XZ 200d4560 f i Game_local.obj
 0001:000d3560       ??1?$idList@PAVidAFBody@@@@QAE@XZ 200d4560 f i Physics_AF.obj
 0001:000d3560       ??1?$idList@UaasLocation_t@@@@QAE@XZ 200d4560 f i Player.obj
 0001:000d3560       ??1?$idList@PBVfunction_t@@@@QAE@XZ 200d4560 f i Script_Compiler.obj
 0001:000d3560       ??1?$idList@PAVrvCameraAnimation@@@@QAE@XZ 200d4560 f i Camera.obj
 0001:000d3560       ??1?$idList@UaiAvoid_s@@@@QAE@XZ 200d4560 f i AI_Manager.obj
 0001:000d3560       ??1?$idList@VidStaticPState@@@@QAE@XZ 200d4560 f i Physics_StaticMulti.obj
 0001:000d3560       ??1?$idList@V?$idEntityPtr@VidGuidedProjectile@@@@@@QAE@XZ 200d4560 f i Vehicle.obj
 0001:000d3560       ??1?$idList@PBVidPoolStr@@@@QAE@XZ 200d4560 f i idLib:Dict.obj
 0001:000d3560       ??1?$idList@Usignal_t@@@@QAE@XZ 200d4560 f i Entity.obj
 0001:000d3560       ??1?$idList@VidKeyValue@@@@QAE@XZ 200d4560 f i Actor.obj
 0001:000d3560       ??1?$idList@PAUjointMod_t@@@@QAE@XZ 200d4560 f i Anim_Blend.obj
 0001:000d3560       ??1?$idList@PAVidAFConstraint@@@@QAE@XZ 200d4560 f i Physics_AF.obj
 0001:000d3560       ??1?$idList@PAVrvVehiclePart@@@@QAE@XZ 200d4560 f i VehiclePosition.obj
 0001:000d3560       ??1?$idList@V?$idEntityPtr@VrvCTF_AssaultPoint@@@@@@QAE@XZ 200d4560 f i Game_local.obj
 0001:000d3560       ??1?$idList@V?$rvPair@PAVrvStat@@H@@@@QAE@XZ 200d4560 f i StatManager.obj
 0001:000d3560       ??1?$idList@UAFCollision_s@@@@QAE@XZ 200d4560 f i Physics_AF.obj
 0001:000d3560       ??1?$idList@V?$idEntityPtr@VrvSplineMover@@@@@@QAE@XZ 200d4560 f i SplineMover.obj
 0001:000d3560       ??1?$idList@V?$rvPair@PAVidPlayer@@H@@@@QAE@XZ 200d4560 f i Game_local.obj
 0001:000d3560       ??1?$idList@PAVidVarDefName@@@@QAE@XZ 200d4560 f i Script_Program.obj
 0001:000d3560       ??1?$idList@UcameraFrame_t@@@@QAE@XZ 200d4560 f i Camera.obj
 0001:000d3560       ??1?$idList@PBVidClass@@@@QAE@XZ 200d4560 f i SaveGame.obj
 0001:000d3560       ??1?$idList@PAVidPlayerStart@@@@QAE@XZ 200d4560 f i Game_local.obj
 0001:000d3560       ??1?$idList@UsurfaceEdge_s@@@@QAE@XZ 200d4560 f i idLib:mapfile.obj
 0001:000d3560       ??1?$idList@UjointAnimInfo_t@@@@QAE@XZ 200d4560 f i Anim.obj
 0001:000d3560       ??1?$idList@PAVidEntity@@@@QAE@XZ 200d4560 f i Actor.obj
 0001:000d3560       ??1?$idList@PAVrvGravityArea@@@@QAE@XZ 200d4560 f i Game_local.obj
 0001:000d3560       ??1?$idList@VidAFPoseJointMod@@@@QAE@XZ 200d4560 f i Anim_Blend.obj
 0001:000d3560       ??1?$idList@PAVidMapEntity@@@@QAE@XZ 200d4560 f i Game_local.obj
 0001:000d3560       ??1?$idList@V?$idEntityPtr@VidEntity@@@@@@QAE@XZ 200d4560 f i Entity.obj
 0001:000d3560       ??1?$idList@PAVidDict@@@@QAE@XZ 200d4560 f i Player.obj
 0001:000d3560       ??1?$idList@V?$rvPair@HM@@@@QAE@XZ 200d4560 f i MultiplayerGame.obj
 0001:000d3560       ??1?$idList@UjointInfo_t@@@@QAE@XZ 200d4560 f i Anim_Blend.obj
 0001:000d3560       ??1?$idList@VidBounds@@@@QAE@XZ 200d4560 f i Anim.obj
 0001:000d3560       ??1?$idList@UframeLookup_t@@@@QAE@XZ 200d4560 f i Camera.obj
 0001:000d3560       ??1?$idList@_N@@QAE@XZ     200d4560 f i BrittleFracture.obj
 0001:000d3560       ??1?$idList@PAVidClipModel@@@@QAE@XZ 200d4560 f i Physics_StaticMulti.obj
 0001:000d3560       ??1?$idList@PAVidAnim@@@@QAE@XZ 200d4560 f i Anim_Blend.obj
 0001:000d3560       ??1?$idList@PAVidMapBrushSide@@@@QAE@XZ 200d4560 f i idLib:mapfile.obj
 0001:000d3560       ??1?$idList@V?$idEntityPtr@VidDoor@@@@@@QAE@XZ 200d4560 f i TramGate.obj
 0001:000d3560       ??1?$idList@PAVidClip@@@@QAE@XZ 200d4560 f i Game_local.obj
 0001:000d3560       ??1?$idList@PAVidMapPrimitive@@@@QAE@XZ 200d4560 f i GameEdit.obj
 0001:000d3560       ??1?$idList@PAUrvMarker@@@@QAE@XZ 200d4560 f i AI_Move.obj
 0001:000d3560       ??1?$idList@PAVidThread@@@@QAE@XZ 200d4560 f i Game_local.obj
 0001:000d3560       ??1?$idList@M@@QAE@XZ      200d4560 f i Actor.obj
 0001:000d3560       ??1?$idList@PAVidTypeDef@@@@QAE@XZ 200d4560 f i Script_Compiler.obj
 0001:000d3560       ??1?$idList@V?$rvPair@PAVrvIcon@@H@@@@QAE@XZ 200d4560 f i IconManager.obj
 0001:000d3560       ??1?$idList@VidAngles@@@@QAE@XZ 200d4560 f i AI.obj
 0001:000d3560       ??1?$idList@V?$idEntityPtr@VrvVehicle@@@@@@QAE@XZ 200d4560 f i SplineMover.obj
 0001:000d3560       ??1?$idList@V?$idEntityPtr@VidAI@@@@@@QAE@XZ 200d4560 f i SplineMover.obj
 0001:000d3560       ??1?$idList@PAVidPlayer@@@@QAE@XZ 200d4560 f i Game_local.obj
 0001:000d3560       ??1?$idList@PAVidAAS@@@@QAE@XZ 200d4560 f i Game_local.obj
 0001:000d3560       ??1?$idList@PAVidFixedWinding@@@@QAE@XZ 200d4560 f i BrittleFracture.obj
 0001:000d3560       ??1?$idList@PAVidMD5Anim@@@@QAE@XZ 200d4560 f i Anim.obj
 0001:000d3560       ??1?$idList@I@@QAE@XZ      200d4560 f i Camera.obj
 0001:000d3560       ??1?$idList@UcopyJoints_t@@@@QAE@XZ 200d4560 f i AFEntity.obj
 0001:000d3560       ??1?$idList@PAVidVarDef@@@@QAE@XZ 200d4560 f i Script_Program.obj
 0001:000d3560       ??1?$idList@UcontactInfo_t@@@@QAE@XZ 200d4560 f i Physics_Base.obj
 0001:000d3560       ??1?$idList@PAVidRoutingObstacle@@@@QAE@XZ 200d4560 f i AAS.obj
 0001:000d3560       ??1?$idList@VidAttachInfo@@@@QAE@XZ 200d4560 f i Actor.obj
 0001:000d3560       ??1?$idList@UframeCommand_t@@@@QAE@XZ 200d4560 f i Camera.obj
 0001:000d3560       ??1?$idList@PAVidRenderModel@@@@QAE@XZ 200d4560 f i AFEntity.obj
 0001:000d3560       ??1?$idList@PAUaasFeature_s@@@@QAE@XZ 200d4560 f i AAS_tactical.obj
 0001:000d3560       ??1?$idList@V?$rvPair@H_N@@@@QAE@XZ 200d4560 f i StatManager.obj
 0001:000d3560       ??1?$idList@PAVrvClientMoveable@@@@QAE@XZ 200d4560 f i Player.obj
 0001:000d3560       ??1?$idList@UrvAIAttackAnimInfo_s@@@@QAE@XZ 200d4560 f i AI.obj
 0001:000d3560       ??1?$idList@PAVidAFConstraint_Contact@@@@QAE@XZ 200d4560 f i Physics_AF.obj
 0001:000d35b0       ??_GrvPhysics_Spline@@UAEPAXI@Z 200d45b0 f i SplineMover.obj
 0001:000d35b0       ??_ErvPhysics_Spline@@UAEPAXI@Z 200d45b0 f i SplineMover.obj
 0001:000d35e0       ??_ErvSplineMover@@UAEPAXI@Z 200d45e0 f i SplineMover.obj
 0001:000d35e0       ??_GrvSplineMover@@UAEPAXI@Z 200d45e0 f i SplineMover.obj
 0001:000d3610       ??0rvTramCar@@QAE@XZ       200d4610 f i SplineMover.obj
 0001:000d3710       ?GetNormalSpeed@rvTramCar@@UBEMXZ 200d4710 f i SplineMover.obj
 0001:000d3760       ??0rvTramCar_Marine@@QAE@XZ 200d4760 f i SplineMover.obj
 0001:000d37e0       ??1rvTramCar_Marine@@UAE@XZ 200d47e0 f i SplineMover.obj
 0001:000d3890       ??_GrvTramCar@@UAEPAXI@Z   200d4890 f i SplineMover.obj
 0001:000d3890       ??_ErvTramCar@@UAEPAXI@Z   200d4890 f i SplineMover.obj
 0001:000d38c0       ??_GrvTramCar_Marine@@UAEPAXI@Z 200d48c0 f i SplineMover.obj
 0001:000d38c0       ??_ErvTramCar_Marine@@UAEPAXI@Z 200d48c0 f i SplineMover.obj
 0001:000d38f0       ??_ErvTramCar_Strogg@@UAEPAXI@Z 200d48f0 f i SplineMover.obj
 0001:000d38f0       ??_GrvTramCar_Strogg@@UAEPAXI@Z 200d48f0 f i SplineMover.obj
 0001:000d3960       ?GetClassType@idTarget@@SAAAVidTypeInfo@@XZ 200d4960 f   Target.obj
 0001:000d3970       ?GetType@idTarget@@UBEPAVidTypeInfo@@XZ 200d4970 f   Target.obj
 0001:000d3980       ?GetClassType@idTarget_Remove@@SAAAVidTypeInfo@@XZ 200d4980 f   Target.obj
 0001:000d3990       ?GetType@idTarget_Remove@@UBEPAVidTypeInfo@@XZ 200d4990 f   Target.obj
 0001:000d39a0       ?GetClassType@idTarget_Show@@SAAAVidTypeInfo@@XZ 200d49a0 f   Target.obj
 0001:000d39b0       ?GetType@idTarget_Show@@UBEPAVidTypeInfo@@XZ 200d49b0 f   Target.obj
 0001:000d39c0       ?GetClassType@idTarget_Damage@@SAAAVidTypeInfo@@XZ 200d49c0 f   Target.obj
 0001:000d39d0       ?GetType@idTarget_Damage@@UBEPAVidTypeInfo@@XZ 200d49d0 f   Target.obj
 0001:000d39e0       ?GetClassType@idTarget_SessionCommand@@SAAAVidTypeInfo@@XZ 200d49e0 f   Target.obj
 0001:000d39f0       ?GetType@idTarget_SessionCommand@@UBEPAVidTypeInfo@@XZ 200d49f0 f   Target.obj
 0001:000d3a00       ?GetClassType@idTarget_EndLevel@@SAAAVidTypeInfo@@XZ 200d4a00 f   Target.obj
 0001:000d3a10       ?GetType@idTarget_EndLevel@@UBEPAVidTypeInfo@@XZ 200d4a10 f   Target.obj
 0001:000d3a20       ?GetClassType@idTarget_WaitForButton@@SAAAVidTypeInfo@@XZ 200d4a20 f   Target.obj
 0001:000d3a30       ?GetType@idTarget_WaitForButton@@UBEPAVidTypeInfo@@XZ 200d4a30 f   Target.obj
 0001:000d3a40       ?Event_Activate@idTarget_WaitForButton@@AAEXPAVidEntity@@@Z 200d4a40 f   Target.obj
 0001:000d3a70       ?Think@idTarget_WaitForButton@@UAEXXZ 200d4a70 f   Target.obj
 0001:000d3ae0       ?GetClassType@idTarget_SetGlobalShaderTime@@SAAAVidTypeInfo@@XZ 200d4ae0 f   Target.obj
 0001:000d3af0       ?GetType@idTarget_SetGlobalShaderTime@@UBEPAVidTypeInfo@@XZ 200d4af0 f   Target.obj
 0001:000d3b00       ?GetClassType@idTarget_SetShaderParm@@SAAAVidTypeInfo@@XZ 200d4b00 f   Target.obj
 0001:000d3b10       ?GetType@idTarget_SetShaderParm@@UBEPAVidTypeInfo@@XZ 200d4b10 f   Target.obj
 0001:000d3b20       ?GetClassType@idTarget_SetShaderTime@@SAAAVidTypeInfo@@XZ 200d4b20 f   Target.obj
 0001:000d3b30       ?GetType@idTarget_SetShaderTime@@UBEPAVidTypeInfo@@XZ 200d4b30 f   Target.obj
 0001:000d3b40       ?GetClassType@idTarget_FadeEntity@@SAAAVidTypeInfo@@XZ 200d4b40 f   Target.obj
 0001:000d3b50       ?GetType@idTarget_FadeEntity@@UBEPAVidTypeInfo@@XZ 200d4b50 f   Target.obj
 0001:000d3b60       ?Save@idTarget_FadeEntity@@QBEXPAVidSaveGame@@@Z 200d4b60 f   Target.obj
 0001:000d3ba0       ?Restore@idTarget_FadeEntity@@QAEXPAVidRestoreGame@@@Z 200d4ba0 f   Target.obj
 0001:000d3be0       ?GetClassType@idTarget_LightFadeIn@@SAAAVidTypeInfo@@XZ 200d4be0 f   Target.obj
 0001:000d3bf0       ?GetType@idTarget_LightFadeIn@@UBEPAVidTypeInfo@@XZ 200d4bf0 f   Target.obj
 0001:000d3c00       ?GetClassType@idTarget_LightFadeOut@@SAAAVidTypeInfo@@XZ 200d4c00 f   Target.obj
 0001:000d3c10       ?GetType@idTarget_LightFadeOut@@UBEPAVidTypeInfo@@XZ 200d4c10 f   Target.obj
 0001:000d3c20       ?GetClassType@idTarget_Give@@SAAAVidTypeInfo@@XZ 200d4c20 f   Target.obj
 0001:000d3c30       ?GetType@idTarget_Give@@UBEPAVidTypeInfo@@XZ 200d4c30 f   Target.obj
 0001:000d3c40       ?GetClassType@idTarget_GiveEmail@@SAAAVidTypeInfo@@XZ 200d4c40 f   Target.obj
 0001:000d3c50       ?GetType@idTarget_GiveEmail@@UBEPAVidTypeInfo@@XZ 200d4c50 f   Target.obj
 0001:000d3c60       ?Spawn@idTarget_GiveEmail@@QAEXXZ 200d4c60 f   Target.obj
 0001:000d3c70       ?Event_Activate@idTarget_GiveEmail@@AAEXPAVidEntity@@@Z 200d4c70 f   Target.obj
 0001:000d3c80       ?GetClassType@idTarget_SetModel@@SAAAVidTypeInfo@@XZ 200d4c80 f   Target.obj
 0001:000d3c90       ?GetType@idTarget_SetModel@@UBEPAVidTypeInfo@@XZ 200d4c90 f   Target.obj
 0001:000d3ca0       ?GetClassType@idTarget_SetInfluence@@SAAAVidTypeInfo@@XZ 200d4ca0 f   Target.obj
 0001:000d3cb0       ?GetType@idTarget_SetInfluence@@UBEPAVidTypeInfo@@XZ 200d4cb0 f   Target.obj
 0001:000d3cc0       ?Event_ClearFlash@idTarget_SetInfluence@@AAEXM@Z 200d4cc0 f   Target.obj
 0001:000d3d20       ?GetClassType@idTarget_SetKeyVal@@SAAAVidTypeInfo@@XZ 200d4d20 f   Target.obj
 0001:000d3d30       ?GetType@idTarget_SetKeyVal@@UBEPAVidTypeInfo@@XZ 200d4d30 f   Target.obj
 0001:000d3d40       ?GetClassType@idTarget_SetFov@@SAAAVidTypeInfo@@XZ 200d4d40 f   Target.obj
 0001:000d3d50       ?GetType@idTarget_SetFov@@UBEPAVidTypeInfo@@XZ 200d4d50 f   Target.obj
 0001:000d3d60       ?GetClassType@idTarget_SetPrimaryObjective@@SAAAVidTypeInfo@@XZ 200d4d60 f   Target.obj
 0001:000d3d70       ?GetType@idTarget_SetPrimaryObjective@@UBEPAVidTypeInfo@@XZ 200d4d70 f   Target.obj
 0001:000d3d80       ?GetClassType@rvTarget_SecretArea@@SAAAVidTypeInfo@@XZ 200d4d80 f   Target.obj
 0001:000d3d90       ?GetType@rvTarget_SecretArea@@UBEPAVidTypeInfo@@XZ 200d4d90 f   Target.obj
 0001:000d3da0       ?GetClassType@rvTarget_BossBattle@@SAAAVidTypeInfo@@XZ 200d4da0 f   Target.obj
 0001:000d3db0       ?GetType@rvTarget_BossBattle@@UBEPAVidTypeInfo@@XZ 200d4db0 f   Target.obj
 0001:000d3dc0       ?GetClassType@rvTarget_LaunchProjectile@@SAAAVidTypeInfo@@XZ 200d4dc0 f   Target.obj
 0001:000d3dd0       ?GetType@rvTarget_LaunchProjectile@@UBEPAVidTypeInfo@@XZ 200d4dd0 f   Target.obj
 0001:000d3de0       ?GetClassType@rvTarget_ExitAreaAlert@@SAAAVidTypeInfo@@XZ 200d4de0 f   Target.obj
 0001:000d3df0       ?GetType@rvTarget_ExitAreaAlert@@UBEPAVidTypeInfo@@XZ 200d4df0 f   Target.obj
 0001:000d3e00       ?Event_Activate@rvTarget_ExitAreaAlert@@AAEXPAVidEntity@@@Z 200d4e00 f   Target.obj
 0001:000d3e10       ?CompareAmmoData@@YAHPBX0@Z 200d4e10 f   Target.obj
 0001:000d3e40       ?GetClassType@rvTarget_AmmoStash@@SAAAVidTypeInfo@@XZ 200d4e40 f   Target.obj
 0001:000d3e50       ?GetType@rvTarget_AmmoStash@@UBEPAVidTypeInfo@@XZ 200d4e50 f   Target.obj
 0001:000d3e60       ?GetClassType@rvTarget_TetherAI@@SAAAVidTypeInfo@@XZ 200d4e60 f   Target.obj
 0001:000d3e70       ?GetType@rvTarget_TetherAI@@UBEPAVidTypeInfo@@XZ 200d4e70 f   Target.obj
 0001:000d3e80       ?GetClassType@rvTarget_Nailable@@SAAAVidTypeInfo@@XZ 200d4e80 f   Target.obj
 0001:000d3e90       ?GetType@rvTarget_Nailable@@UBEPAVidTypeInfo@@XZ 200d4e90 f   Target.obj
 0001:000d3ea0       ?GetClassType@idTarget_LockDoor@@SAAAVidTypeInfo@@XZ 200d4ea0 f   Target.obj
 0001:000d3eb0       ?GetType@idTarget_LockDoor@@UBEPAVidTypeInfo@@XZ 200d4eb0 f   Target.obj
 0001:000d3ec0       ?GetClassType@idTarget_CallObjectFunction@@SAAAVidTypeInfo@@XZ 200d4ec0 f   Target.obj
 0001:000d3ed0       ?GetType@idTarget_CallObjectFunction@@UBEPAVidTypeInfo@@XZ 200d4ed0 f   Target.obj
 0001:000d3ee0       ?GetClassType@idTarget_EnableLevelWeapons@@SAAAVidTypeInfo@@XZ 200d4ee0 f   Target.obj
 0001:000d3ef0       ?GetType@idTarget_EnableLevelWeapons@@UBEPAVidTypeInfo@@XZ 200d4ef0 f   Target.obj
 0001:000d3f00       ?GetClassType@idTarget_Tip@@SAAAVidTypeInfo@@XZ 200d4f00 f   Target.obj
 0001:000d3f10       ?GetType@idTarget_Tip@@UBEPAVidTypeInfo@@XZ 200d4f10 f   Target.obj
 0001:000d3f20       ??0idTarget_Tip@@QAE@XZ    200d4f20 f   Target.obj
 0001:000d3f50       ?Spawn@idTarget_Tip@@QAEXXZ 200d4f50 f   Target.obj
 0001:000d3f60       ?Save@idTarget_Tip@@QBEXPAVidSaveGame@@@Z 200d4f60 f   Target.obj
 0001:000d3f80       ?Restore@idTarget_Tip@@QAEXPAVidRestoreGame@@@Z 200d4f80 f   Target.obj
 0001:000d3fa0       ?GetClassType@idTarget_GiveSecurity@@SAAAVidTypeInfo@@XZ 200d4fa0 f   Target.obj
 0001:000d3fb0       ?GetType@idTarget_GiveSecurity@@UBEPAVidTypeInfo@@XZ 200d4fb0 f   Target.obj
 0001:000d3fc0       ?Event_Activate@idTarget_GiveSecurity@@AAEXPAVidEntity@@@Z 200d4fc0 f   Target.obj
 0001:000d3fd0       ?GetClassType@idTarget_RemoveWeapons@@SAAAVidTypeInfo@@XZ 200d4fd0 f   Target.obj
 0001:000d3fe0       ?GetType@idTarget_RemoveWeapons@@UBEPAVidTypeInfo@@XZ 200d4fe0 f   Target.obj
 0001:000d3ff0       ?GetClassType@idTarget_LevelTrigger@@SAAAVidTypeInfo@@XZ 200d4ff0 f   Target.obj
 0001:000d4000       ?GetType@idTarget_LevelTrigger@@UBEPAVidTypeInfo@@XZ 200d5000 f   Target.obj
 0001:000d4010       ?GetClassType@idTarget_EnableStamina@@SAAAVidTypeInfo@@XZ 200d5010 f   Target.obj
 0001:000d4020       ?GetType@idTarget_EnableStamina@@UBEPAVidTypeInfo@@XZ 200d5020 f   Target.obj
 0001:000d4030       ?GetClassType@idTarget_FadeSoundClass@@SAAAVidTypeInfo@@XZ 200d5030 f   Target.obj
 0001:000d4040       ?GetType@idTarget_FadeSoundClass@@UBEPAVidTypeInfo@@XZ 200d5040 f   Target.obj
 0001:000d4050       ?CreateInstance@idTarget@@SAPAVidClass@@XZ 200d5050 f   Target.obj
 0001:000d4100       ?CreateInstance@idTarget_Remove@@SAPAVidClass@@XZ 200d5100 f   Target.obj
 0001:000d41b0       ?Event_Activate@idTarget_Remove@@AAEXPAVidEntity@@@Z 200d51b0 f   Target.obj
 0001:000d4220       ?CreateInstance@idTarget_Show@@SAPAVidClass@@XZ 200d5220 f   Target.obj
 0001:000d42d0       ?Event_Activate@idTarget_Show@@AAEXPAVidEntity@@@Z 200d52d0 f   Target.obj
 0001:000d4330       ?CreateInstance@idTarget_Damage@@SAPAVidClass@@XZ 200d5330 f   Target.obj
 0001:000d43e0       ?Event_Activate@idTarget_Damage@@AAEXPAVidEntity@@@Z 200d53e0 f   Target.obj
 0001:000d4470       ?CreateInstance@idTarget_SessionCommand@@SAPAVidClass@@XZ 200d5470 f   Target.obj
 0001:000d4520       ?Event_Activate@idTarget_SessionCommand@@AAEXPAVidEntity@@@Z 200d5520 f   Target.obj
 0001:000d4560       ?CreateInstance@idTarget_EndLevel@@SAPAVidClass@@XZ 200d5560 f   Target.obj
 0001:000d4610       ?CreateInstance@idTarget_WaitForButton@@SAPAVidClass@@XZ 200d5610 f   Target.obj
 0001:000d46c0       ?CreateInstance@idTarget_SetGlobalShaderTime@@SAPAVidClass@@XZ 200d56c0 f   Target.obj
 0001:000d4770       ?Event_Activate@idTarget_SetGlobalShaderTime@@AAEXPAVidEntity@@@Z 200d5770 f   Target.obj
 0001:000d47c0       ?CreateInstance@idTarget_SetShaderParm@@SAPAVidClass@@XZ 200d57c0 f   Target.obj
 0001:000d4870       ?Event_Activate@idTarget_SetShaderParm@@AAEXPAVidEntity@@@Z 200d5870 f   Target.obj
 0001:000d4a10       ?CreateInstance@idTarget_SetShaderTime@@SAPAVidClass@@XZ 200d5a10 f   Target.obj
 0001:000d4ac0       ?Event_Activate@idTarget_SetShaderTime@@AAEXPAVidEntity@@@Z 200d5ac0 f   Target.obj
 0001:000d4b70       ??0idTarget_FadeEntity@@QAE@XZ 200d5b70 f   Target.obj
 0001:000d4bb0       ?Event_Activate@idTarget_FadeEntity@@AAEXPAVidEntity@@@Z 200d5bb0 f   Target.obj
 0001:000d4c90       ?Think@idTarget_FadeEntity@@UAEXXZ 200d5c90 f   Target.obj
 0001:000d4e60       ?CreateInstance@idTarget_LightFadeIn@@SAPAVidClass@@XZ 200d5e60 f   Target.obj
 0001:000d4f10       ?Event_Activate@idTarget_LightFadeIn@@AAEXPAVidEntity@@@Z 200d5f10 f   Target.obj
 0001:000d5000       ?CreateInstance@idTarget_LightFadeOut@@SAPAVidClass@@XZ 200d6000 f   Target.obj
 0001:000d50b0       ?Event_Activate@idTarget_LightFadeOut@@AAEXPAVidEntity@@@Z 200d60b0 f   Target.obj
 0001:000d51a0       ?CreateInstance@idTarget_Give@@SAPAVidClass@@XZ 200d61a0 f   Target.obj
 0001:000d5250       ?Spawn@idTarget_Give@@QAEXXZ 200d6250 f   Target.obj
 0001:000d52e0       ?Event_PostSpawn@idTarget_Give@@AAEXXZ 200d62e0 f   Target.obj
 0001:000d5310       ?CreateInstance@idTarget_GiveEmail@@SAPAVidClass@@XZ 200d6310 f   Target.obj
 0001:000d53c0       ?CreateInstance@idTarget_SetModel@@SAPAVidClass@@XZ 200d63c0 f   Target.obj
 0001:000d5470       ?Spawn@idTarget_SetModel@@QAEXXZ 200d6470 f   Target.obj
 0001:000d54e0       ?Event_Activate@idTarget_SetModel@@AAEXPAVidEntity@@@Z 200d64e0 f   Target.obj
 0001:000d5560       ?Save@idTarget_SetInfluence@@QBEXPAVidSaveGame@@@Z 200d6560 f   Target.obj
 0001:000d5710       ?Restore@idTarget_SetInfluence@@QAEXPAVidRestoreGame@@@Z 200d6710 f   Target.obj
 0001:000d60e0       ?Spawn@idTarget_SetInfluence@@QAEXXZ 200d70e0 f   Target.obj
 0001:000d61e0       ?Event_Flash@idTarget_SetInfluence@@AAEXMH@Z 200d71e0 f   Target.obj
 0001:000d62d0       ?Event_GatherEntities@idTarget_SetInfluence@@AAEXXZ 200d72d0 f   Target.obj
 0001:000d6f70       ?Event_Activate@idTarget_SetInfluence@@AAEXPAVidEntity@@@Z 200d7f70 f   Target.obj
 0001:000d7970       ?Think@idTarget_SetInfluence@@EAEXXZ 200d8970 f   Target.obj
 0001:000d7a30       ?Event_RestoreInfluence@idTarget_SetInfluence@@AAEXXZ 200d8a30 f   Target.obj
 0001:000d7e50       ?CreateInstance@idTarget_SetKeyVal@@SAPAVidClass@@XZ 200d8e50 f   Target.obj
 0001:000d7f00       ?Save@idTarget_SetFov@@QBEXPAVidSaveGame@@@Z 200d8f00 f   Target.obj
 0001:000d7f60       ?Restore@idTarget_SetFov@@QAEXPAVidRestoreGame@@@Z 200d8f60 f   Target.obj
 0001:000d7ff0       ?Event_Activate@idTarget_SetFov@@AAEXPAVidEntity@@@Z 200d8ff0 f   Target.obj
 0001:000d80f0       ?Think@idTarget_SetFov@@UAEXXZ 200d90f0 f   Target.obj
 0001:000d8190       ?CreateInstance@idTarget_SetPrimaryObjective@@SAPAVidClass@@XZ 200d9190 f   Target.obj
 0001:000d8240       ?Event_Activate@idTarget_SetPrimaryObjective@@AAEXPAVidEntity@@@Z 200d9240 f   Target.obj
 0001:000d82b0       ?CreateInstance@rvTarget_SecretArea@@SAPAVidClass@@XZ 200d92b0 f   Target.obj
 0001:000d8360       ?Event_Activate@rvTarget_SecretArea@@AAEXPAVidEntity@@@Z 200d9360 f   Target.obj
 0001:000d83b0       ?CreateInstance@rvTarget_BossBattle@@SAPAVidClass@@XZ 200d93b0 f   Target.obj
 0001:000d8460       ?Event_Activate@rvTarget_BossBattle@@AAEXPAVidEntity@@@Z 200d9460 f   Target.obj
 0001:000d84d0       ?CreateInstance@rvTarget_LaunchProjectile@@SAPAVidClass@@XZ 200d94d0 f   Target.obj
 0001:000d8580       ?Spawn@rvTarget_LaunchProjectile@@QAEXXZ 200d9580 f   Target.obj
 0001:000d85d0       ?CreateInstance@rvTarget_ExitAreaAlert@@SAPAVidClass@@XZ 200d95d0 f   Target.obj
 0001:000d8680       ?CreateInstance@rvTarget_TetherAI@@SAPAVidClass@@XZ 200d9680 f   Target.obj
 0001:000d8730       ?CreateInstance@rvTarget_Nailable@@SAPAVidClass@@XZ 200d9730 f   Target.obj
 0001:000d87e0       ?Spawn@rvTarget_Nailable@@AAEXXZ 200d97e0 f   Target.obj
 0001:000d8800       ?CreateInstance@idTarget_LockDoor@@SAPAVidClass@@XZ 200d9800 f   Target.obj
 0001:000d88b0       ?Event_Activate@idTarget_LockDoor@@AAEXPAVidEntity@@@Z 200d98b0 f   Target.obj
 0001:000d8970       ?CreateInstance@idTarget_CallObjectFunction@@SAPAVidClass@@XZ 200d9970 f   Target.obj
 0001:000d8a20       ?Event_Activate@idTarget_CallObjectFunction@@AAEXPAVidEntity@@@Z 200d9a20 f   Target.obj
 0001:000d8bd0       ?CreateInstance@idTarget_EnableLevelWeapons@@SAPAVidClass@@XZ 200d9bd0 f   Target.obj
 0001:000d8c80       ?Event_Activate@idTarget_EnableLevelWeapons@@AAEXPAVidEntity@@@Z 200d9c80 f   Target.obj
 0001:000d8dc0       ?CreateInstance@idTarget_Tip@@SAPAVidClass@@XZ 200d9dc0 f   Target.obj
 0001:000d8e60       ?Event_GetPlayerPos@idTarget_Tip@@AAEXXZ 200d9e60 f   Target.obj
 0001:000d8eb0       ?Event_Activate@idTarget_Tip@@AAEXPAVidEntity@@@Z 200d9eb0 f   Target.obj
 0001:000d8f70       ?Event_TipOff@idTarget_Tip@@AAEXXZ 200d9f70 f   Target.obj
 0001:000d9020       ?CreateInstance@idTarget_GiveSecurity@@SAPAVidClass@@XZ 200da020 f   Target.obj
 0001:000d90d0       ?CreateInstance@idTarget_RemoveWeapons@@SAPAVidClass@@XZ 200da0d0 f   Target.obj
 0001:000d9180       ?Event_Activate@idTarget_RemoveWeapons@@AAEXPAVidEntity@@@Z 200da180 f   Target.obj
 0001:000d9210       ?CreateInstance@idTarget_LevelTrigger@@SAPAVidClass@@XZ 200da210 f   Target.obj
 0001:000d92c0       ?Event_Activate@idTarget_LevelTrigger@@AAEXPAVidEntity@@@Z 200da2c0 f   Target.obj
 0001:000d9350       ?CreateInstance@idTarget_EnableStamina@@SAPAVidClass@@XZ 200da350 f   Target.obj
 0001:000d9400       ?Event_Activate@idTarget_EnableStamina@@AAEXPAVidEntity@@@Z 200da400 f   Target.obj
 0001:000d94c0       ?CreateInstance@idTarget_FadeSoundClass@@SAPAVidClass@@XZ 200da4c0 f   Target.obj
 0001:000d9570       ?Event_Activate@idTarget_FadeSoundClass@@AAEXPAVidEntity@@@Z 200da570 f   Target.obj
 0001:000d96c0       ?Event_RestoreVolume@idTarget_FadeSoundClass@@AAEXXZ 200da6c0 f   Target.obj
 0001:000d9740       ?RegisterClassA@idTarget@@SAXXZ 200da740 f   Target.obj
 0001:000d97d0       ?Register_idTarget@@YAXXZ  200da7d0 f   Target.obj
 0001:000d97e0       ?RegisterClassA@idTarget_Remove@@SAXXZ 200da7e0 f   Target.obj
 0001:000d9870       ?Register_idTarget_Remove@@YAXXZ 200da870 f   Target.obj
 0001:000d9880       ?RegisterClassA@idTarget_Show@@SAXXZ 200da880 f   Target.obj
 0001:000d9910       ?Register_idTarget_Show@@YAXXZ 200da910 f   Target.obj
 0001:000d9920       ?RegisterClassA@idTarget_Damage@@SAXXZ 200da920 f   Target.obj
 0001:000d99b0       ?Register_idTarget_Damage@@YAXXZ 200da9b0 f   Target.obj
 0001:000d99c0       ?RegisterClassA@idTarget_SessionCommand@@SAXXZ 200da9c0 f   Target.obj
 0001:000d9a50       ?Register_idTarget_SessionCommand@@YAXXZ 200daa50 f   Target.obj
 0001:000d9a60       ?RegisterClassA@idTarget_EndLevel@@SAXXZ 200daa60 f   Target.obj
 0001:000d9af0       ?Register_idTarget_EndLevel@@YAXXZ 200daaf0 f   Target.obj
 0001:000d9b00       ?Event_Activate@idTarget_EndLevel@@AAEXPAVidEntity@@@Z 200dab00 f   Target.obj
 0001:000d9dc0       ?RegisterClassA@idTarget_WaitForButton@@SAXXZ 200dadc0 f   Target.obj
 0001:000d9e50       ?Register_idTarget_WaitForButton@@YAXXZ 200dae50 f   Target.obj
 0001:000d9e60       ?RegisterClassA@idTarget_SetGlobalShaderTime@@SAXXZ 200dae60 f   Target.obj
 0001:000d9ef0       ?Register_idTarget_SetGlobalShaderTime@@YAXXZ 200daef0 f   Target.obj
 0001:000d9f00       ?RegisterClassA@idTarget_SetShaderParm@@SAXXZ 200daf00 f   Target.obj
 0001:000d9f90       ?Register_idTarget_SetShaderParm@@YAXXZ 200daf90 f   Target.obj
 0001:000d9fa0       ?RegisterClassA@idTarget_SetShaderTime@@SAXXZ 200dafa0 f   Target.obj
 0001:000da030       ?Register_idTarget_SetShaderTime@@YAXXZ 200db030 f   Target.obj
 0001:000da040       ?CreateInstance@idTarget_FadeEntity@@SAPAVidClass@@XZ 200db040 f   Target.obj
 0001:000da0e0       ?RegisterClassA@idTarget_LightFadeIn@@SAXXZ 200db0e0 f   Target.obj
 0001:000da170       ?Register_idTarget_LightFadeIn@@YAXXZ 200db170 f   Target.obj
 0001:000da180       ?RegisterClassA@idTarget_LightFadeOut@@SAXXZ 200db180 f   Target.obj
 0001:000da210       ?Register_idTarget_LightFadeOut@@YAXXZ 200db210 f   Target.obj
 0001:000da220       ?RegisterClassA@idTarget_Give@@SAXXZ 200db220 f   Target.obj
 0001:000da2b0       ?Register_idTarget_Give@@YAXXZ 200db2b0 f   Target.obj
 0001:000da2c0       ?RegisterClassA@idTarget_GiveEmail@@SAXXZ 200db2c0 f   Target.obj
 0001:000da350       ?Register_idTarget_GiveEmail@@YAXXZ 200db350 f   Target.obj
 0001:000da360       ?RegisterClassA@idTarget_SetModel@@SAXXZ 200db360 f   Target.obj
 0001:000da3f0       ?Register_idTarget_SetModel@@YAXXZ 200db3f0 f   Target.obj
 0001:000da400       ??0idTarget_SetInfluence@@QAE@XZ 200db400 f   Target.obj
 0001:000da540       ?RegisterClassA@idTarget_SetKeyVal@@SAXXZ 200db540 f   Target.obj
 0001:000da5d0       ?Register_idTarget_SetKeyVal@@YAXXZ 200db5d0 f   Target.obj
 0001:000da5e0       ?Event_Activate@idTarget_SetKeyVal@@AAEXPAVidEntity@@@Z 200db5e0 f   Target.obj
 0001:000da840       ?CreateInstance@idTarget_SetFov@@SAPAVidClass@@XZ 200db840 f   Target.obj
 0001:000da920       ?RegisterClassA@idTarget_SetPrimaryObjective@@SAXXZ 200db920 f   Target.obj
 0001:000da9b0       ?Register_idTarget_SetPrimaryObjective@@YAXXZ 200db9b0 f   Target.obj
 0001:000da9c0       ?RegisterClassA@rvTarget_SecretArea@@SAXXZ 200db9c0 f   Target.obj
 0001:000daa50       ?Register_rvTarget_SecretArea@@YAXXZ 200dba50 f   Target.obj
 0001:000daa60       ?RegisterClassA@rvTarget_BossBattle@@SAXXZ 200dba60 f   Target.obj
 0001:000daaf0       ?Register_rvTarget_BossBattle@@YAXXZ 200dbaf0 f   Target.obj
 0001:000dab00       ?Event_AllowShieldBar@rvTarget_BossBattle@@AAEXM@Z 200dbb00 f   Target.obj
 0001:000dab80       ?Event_AllowShieldWarningBar@rvTarget_BossBattle@@AAEXM@Z 200dbb80 f   Target.obj
 0001:000dac00       ?Event_SetShieldPercent@rvTarget_BossBattle@@AAEXM@Z 200dbc00 f   Target.obj
 0001:000dac70       ?Event_SetBossMaxHealth@rvTarget_BossBattle@@AAEXM@Z 200dbc70 f   Target.obj
 0001:000dacd0       ?RegisterClassA@rvTarget_LaunchProjectile@@SAXXZ 200dbcd0 f   Target.obj
 0001:000dad60       ?Register_rvTarget_LaunchProjectile@@YAXXZ 200dbd60 f   Target.obj
 0001:000dad70       ?Event_LaunchProjectile@rvTarget_LaunchProjectile@@AAEXPAVidEntity@@@Z 200dbd70 f   Target.obj
 0001:000db170       ?Event_Activate@rvTarget_LaunchProjectile@@AAEXPAVidEntity@@@Z 200dc170 f   Target.obj
 0001:000db3c0       ?RegisterClassA@rvTarget_ExitAreaAlert@@SAXXZ 200dc3c0 f   Target.obj
 0001:000db450       ?Register_rvTarget_ExitAreaAlert@@YAXXZ 200dc450 f   Target.obj
 0001:000db460       ?RegisterClassA@rvTarget_TetherAI@@SAXXZ 200dc460 f   Target.obj
 0001:000db4f0       ?Register_rvTarget_TetherAI@@YAXXZ 200dc4f0 f   Target.obj
 0001:000db500       ?Event_Activate@rvTarget_TetherAI@@AAEXPAVidEntity@@@Z 200dc500 f   Target.obj
 0001:000db640       ?RegisterClassA@rvTarget_Nailable@@SAXXZ 200dc640 f   Target.obj
 0001:000db6d0       ?Register_rvTarget_Nailable@@YAXXZ 200dc6d0 f   Target.obj
 0001:000db6e0       ?RegisterClassA@idTarget_LockDoor@@SAXXZ 200dc6e0 f   Target.obj
 0001:000db770       ?Register_idTarget_LockDoor@@YAXXZ 200dc770 f   Target.obj
 0001:000db780       ?RegisterClassA@idTarget_CallObjectFunction@@SAXXZ 200dc780 f   Target.obj
 0001:000db810       ?Register_idTarget_CallObjectFunction@@YAXXZ 200dc810 f   Target.obj
 0001:000db820       ?RegisterClassA@idTarget_EnableLevelWeapons@@SAXXZ 200dc820 f   Target.obj
 0001:000db8b0       ?Register_idTarget_EnableLevelWeapons@@YAXXZ 200dc8b0 f   Target.obj
 0001:000db8c0       ?RegisterClassA@idTarget_Tip@@SAXXZ 200dc8c0 f   Target.obj
 0001:000db950       ?Register_idTarget_Tip@@YAXXZ 200dc950 f   Target.obj
 0001:000db960       ?RegisterClassA@idTarget_GiveSecurity@@SAXXZ 200dc960 f   Target.obj
 0001:000db9f0       ?Register_idTarget_GiveSecurity@@YAXXZ 200dc9f0 f   Target.obj
 0001:000dba00       ?RegisterClassA@idTarget_RemoveWeapons@@SAXXZ 200dca00 f   Target.obj
 0001:000dba90       ?Register_idTarget_RemoveWeapons@@YAXXZ 200dca90 f   Target.obj
 0001:000dbaa0       ?RegisterClassA@idTarget_LevelTrigger@@SAXXZ 200dcaa0 f   Target.obj
 0001:000dbb30       ?Register_idTarget_LevelTrigger@@YAXXZ 200dcb30 f   Target.obj
 0001:000dbb40       ?RegisterClassA@idTarget_EnableStamina@@SAXXZ 200dcb40 f   Target.obj
 0001:000dbbd0       ?Register_idTarget_EnableStamina@@YAXXZ 200dcbd0 f   Target.obj
 0001:000dbbe0       ?RegisterClassA@idTarget_FadeSoundClass@@SAXXZ 200dcbe0 f   Target.obj
 0001:000dbc70       ?Register_idTarget_FadeSoundClass@@YAXXZ 200dcc70 f   Target.obj
 0001:000dbc80       ?RegisterClassA@idTarget_FadeEntity@@SAXXZ 200dcc80 f   Target.obj
 0001:000dbd10       ?Register_idTarget_FadeEntity@@YAXXZ 200dcd10 f   Target.obj
 0001:000dbd20       ?Event_Activate@idTarget_Give@@AAEXPAVidEntity@@@Z 200dcd20 f   Target.obj
 0001:000dc120       ?CreateInstance@idTarget_SetInfluence@@SAPAVidClass@@XZ 200dd120 f   Target.obj
 0001:000dc1c0       ?RegisterClassA@idTarget_SetFov@@SAXXZ 200dd1c0 f   Target.obj
 0001:000dc250       ?Register_idTarget_SetFov@@YAXXZ 200dd250 f   Target.obj
 0001:000dc260       ?CreateInstance@rvTarget_AmmoStash@@SAPAVidClass@@XZ 200dd260 f   Target.obj
 0001:000dc320       ?Event_Activate@rvTarget_AmmoStash@@AAEXPAVidEntity@@@Z 200dd320 f   Target.obj
 0001:000dc870       ?RegisterClassA@idTarget_SetInfluence@@SAXXZ 200dd870 f   Target.obj
 0001:000dc900       ?Register_idTarget_SetInfluence@@YAXXZ 200dd900 f   Target.obj
 0001:000dc910       ?RegisterClassA@rvTarget_AmmoStash@@SAXXZ 200dd910 f   Target.obj
 0001:000dc9a0       ?Register_rvTarget_AmmoStash@@YAXXZ 200dd9a0 f   Target.obj
 0001:000dc9b0       ??1?$idInterpolate@H@@UAE@XZ 200dd9b0 f i Target.obj
 0001:000dc9c0       ??_G?$idInterpolate@H@@UAEPAXI@Z 200dd9c0 f i Target.obj
 0001:000dc9c0       ??_E?$idInterpolate@H@@UAEPAXI@Z 200dd9c0 f i Target.obj
 0001:000dca10       ?GetCurrentValue@?$idInterpolate@H@@UBEHM@Z 200dda10 f i Target.obj
 0001:000dcaa0       ?GetDeltaValue@?$idInterpolate@H@@UBEHMM@Z 200ddaa0 f i Target.obj
 0001:000dcad0       ??_GrvTarget_LaunchProjectile@@UAEPAXI@Z 200ddad0 f i Target.obj
 0001:000dcad0       ??_EidEntity@@UAEPAXI@Z    200ddad0 f i Entity.obj
 0001:000dcad0       ??_EidTarget_Remove@@UAEPAXI@Z 200ddad0 f i Target.obj
 0001:000dcad0       ??_ErvAIAvoid@@UAEPAXI@Z   200ddad0 f i AI_Util.obj
 0001:000dcad0       ??_GidObjectiveComplete@@UAEPAXI@Z 200ddad0 f i Item.obj
 0001:000dcad0       ??_GidLiquid@@UAEPAXI@Z    200ddad0 f i Misc.obj
 0001:000dcad0       ??_GidTarget@@UAEPAXI@Z    200ddad0 f i Target.obj
 0001:000dcad0       ??_EidTarget_EnableLevelWeapons@@UAEPAXI@Z 200ddad0 f i Target.obj
 0001:000dcad0       ??_GrvTarget_Nailable@@UAEPAXI@Z 200ddad0 f i Target.obj
 0001:000dcad0       ??_GidLocationEntity@@UAEPAXI@Z 200ddad0 f i Misc.obj
 0001:000dcad0       ??_EidTarget_LevelTrigger@@UAEPAXI@Z 200ddad0 f i Target.obj
 0001:000dcad0       ??_EidTarget_FadeSoundClass@@UAEPAXI@Z 200ddad0 f i Target.obj
 0001:000dcad0       ??_GidFuncAASObstacle@@UAEPAXI@Z 200ddad0 f i Misc.obj
 0001:000dcad0       ??_GidTarget_SetKeyVal@@UAEPAXI@Z 200ddad0 f i Target.obj
 0001:000dcad0       ??_GrvAIBecomePassive@@UAEPAXI@Z 200ddad0 f i AI_Util.obj
 0001:000dcad0       ??_EidTarget_SetGlobalShaderTime@@UAEPAXI@Z 200ddad0 f i Target.obj
 0001:000dcad0       ??_EidTarget_SessionCommand@@UAEPAXI@Z 200ddad0 f i Target.obj
 0001:000dcad0       ??_GidSound@@UAEPAXI@Z     200ddad0 f i Sound.obj
 0001:000dcad0       ??_GidTarget_Tip@@UAEPAXI@Z 200ddad0 f i Target.obj
 0001:000dcad0       ??_ErvConveyor@@UAEPAXI@Z  200ddad0 f i Mover.obj
 0001:000dcad0       ??_EidTarget_Give@@UAEPAXI@Z 200ddad0 f i Target.obj
 0001:000dcad0       ??_GrvTarget_TetherAI@@UAEPAXI@Z 200ddad0 f i Target.obj
 0001:000dcad0       ??_GidTarget_EnableStamina@@UAEPAXI@Z 200ddad0 f i Target.obj
 0001:000dcad0       ??_EidTarget_SetModel@@UAEPAXI@Z 200ddad0 f i Target.obj
 0001:000dcad0       ??_EidTarget_LightFadeIn@@UAEPAXI@Z 200ddad0 f i Target.obj
 0001:000dcad0       ??_GidEarthQuake@@UAEPAXI@Z 200ddad0 f i Misc.obj
 0001:000dcad0       ??_EidTarget_FadeEntity@@UAEPAXI@Z 200ddad0 f i Target.obj
 0001:000dcad0       ??_EidTarget_Show@@UAEPAXI@Z 200ddad0 f i Target.obj
 0001:000dcad0       ??_EidFuncPortal@@UAEPAXI@Z 200ddad0 f i Misc.obj
 0001:000dcad0       ??_ErvTarget_TetherAI@@UAEPAXI@Z 200ddad0 f i Target.obj
 0001:000dcad0       ??_GidStaticEntity@@UAEPAXI@Z 200ddad0 f i Misc.obj
 0001:000dcad0       ??_GidTarget_Remove@@UAEPAXI@Z 200ddad0 f i Target.obj
 0001:000dcad0       ??_GidDamagable@@UAEPAXI@Z 200ddad0 f i Misc.obj
 0001:000dcad0       ??_GrvGravitySeparatorEntity@@UAEPAXI@Z 200ddad0 f i Misc.obj
 0001:000dcad0       ??_GrvConveyor@@UAEPAXI@Z  200ddad0 f i Mover.obj
 0001:000dcad0       ??_EidTarget_Tip@@UAEPAXI@Z 200ddad0 f i Target.obj
 0001:000dcad0       ??_EidTarget_WaitForButton@@UAEPAXI@Z 200ddad0 f i Target.obj
 0001:000dcad0       ??_EidPlayerStart@@UAEPAXI@Z 200ddad0 f i Misc.obj
 0001:000dcad0       ??_GidPathCorner@@UAEPAXI@Z 200ddad0 f i Misc.obj
 0001:000dcad0       ??_GrvGravityArea_SurfaceNormal@@UAEPAXI@Z 200ddad0 f i Misc.obj
 0001:000dcad0       ??_GidTarget_SetShaderParm@@UAEPAXI@Z 200ddad0 f i Target.obj
 0001:000dcad0       ??_ErvTarget_ExitAreaAlert@@UAEPAXI@Z 200ddad0 f i Target.obj
 0001:000dcad0       ??_EidFuncEmitter@@UAEPAXI@Z 200ddad0 f i Misc.obj
 0001:000dcad0       ??_GidTarget_LevelTrigger@@UAEPAXI@Z 200ddad0 f i Target.obj
 0001:000dcad0       ??_GrvTarget_ExitAreaAlert@@UAEPAXI@Z 200ddad0 f i Target.obj
 0001:000dcad0       ??_ErvGravityArea_Static@@UAEPAXI@Z 200ddad0 f i Misc.obj
 0001:000dcad0       ??_EidPathCorner@@UAEPAXI@Z 200ddad0 f i Misc.obj
 0001:000dcad0       ??_EidTarget_SetPrimaryObjective@@UAEPAXI@Z 200ddad0 f i Target.obj
 0001:000dcad0       ??_EidTarget_GiveSecurity@@UAEPAXI@Z 200ddad0 f i Target.obj
 0001:000dcad0       ??_EidTarget_CallObjectFunction@@UAEPAXI@Z 200ddad0 f i Target.obj
 0001:000dcad0       ??_GrvFuncSaveGame@@UAEPAXI@Z 200ddad0 f i Misc.obj
 0001:000dcad0       ??_EidBeam@@UAEPAXI@Z      200ddad0 f i Misc.obj
 0001:000dcad0       ??_GrvGravityArea_Static@@UAEPAXI@Z 200ddad0 f i Misc.obj
 0001:000dcad0       ??_ErvAFAttractor@@UAEPAXI@Z 200ddad0 f i AFEntity.obj
 0001:000dcad0       ??_EidVacuumEntity@@UAEPAXI@Z 200ddad0 f i Misc.obj
 0001:000dcad0       ??_ErvGravitySeparatorEntity@@UAEPAXI@Z 200ddad0 f i Misc.obj
 0001:000dcad0       ??_GidTarget_EnableLevelWeapons@@UAEPAXI@Z 200ddad0 f i Target.obj
 0001:000dcad0       ??_ErvObjectiveFailed@@UAEPAXI@Z 200ddad0 f i Item.obj
 0001:000dcad0       ??_EidTarget_LightFadeOut@@UAEPAXI@Z 200ddad0 f i Target.obj
 0001:000dcad0       ??_GidTarget_LightFadeOut@@UAEPAXI@Z 200ddad0 f i Target.obj
 0001:000dcad0       ??_GidTarget_WaitForButton@@UAEPAXI@Z 200ddad0 f i Target.obj
 0001:000dcad0       ??_EidTarget@@UAEPAXI@Z    200ddad0 f i Target.obj
 0001:000dcad0       ??_EidLiquid@@UAEPAXI@Z    200ddad0 f i Misc.obj
 0001:000dcad0       ??_GidFuncSplat@@UAEPAXI@Z 200ddad0 f i Misc.obj
 0001:000dcad0       ??_EidTarget_LockDoor@@UAEPAXI@Z 200ddad0 f i Target.obj
 0001:000dcad0       ??_GrvAIBecomeAggressive@@UAEPAXI@Z 200ddad0 f i AI_Util.obj
 0001:000dcad0       ??_GidTarget_FadeSoundClass@@UAEPAXI@Z 200ddad0 f i Target.obj
 0001:000dcad0       ??_GrvObjectiveFailed@@UAEPAXI@Z 200ddad0 f i Item.obj
 0001:000dcad0       ??_EidLocationEntity@@UAEPAXI@Z 200ddad0 f i Misc.obj
 0001:000dcad0       ??_GidSpawnableEntity@@UAEPAXI@Z 200ddad0 f i Misc.obj
 0001:000dcad0       ??_GidFuncEmitter@@UAEPAXI@Z 200ddad0 f i Misc.obj
 0001:000dcad0       ??_GidTarget_Damage@@UAEPAXI@Z 200ddad0 f i Target.obj
 0001:000dcad0       ??_GrvAIAvoid@@UAEPAXI@Z   200ddad0 f i AI_Util.obj
 0001:000dcad0       ??_EidSpawnableEntity@@UAEPAXI@Z 200ddad0 f i Misc.obj
 0001:000dcad0       ??_GidItemRemover@@UAEPAXI@Z 200ddad0 f i Item.obj
 0001:000dcad0       ??_EidActivator@@UAEPAXI@Z 200ddad0 f i Misc.obj
 0001:000dcad0       ??_GidLocationSeparatorEntity@@UAEPAXI@Z 200ddad0 f i Misc.obj
 0001:000dcad0       ??_ErvClientPhysics@@UAEPAXI@Z 200ddad0 f i ClientEntity.obj
 0001:000dcad0       ??_EidDamagable@@UAEPAXI@Z 200ddad0 f i Misc.obj
 0001:000dcad0       ??_GidTarget_CallObjectFunction@@UAEPAXI@Z 200ddad0 f i Target.obj
 0001:000dcad0       ??_GidBeam@@UAEPAXI@Z      200ddad0 f i Misc.obj
 0001:000dcad0       ??_GidTarget_LightFadeIn@@UAEPAXI@Z 200ddad0 f i Target.obj
 0001:000dcad0       ??_GidVacuumEntity@@UAEPAXI@Z 200ddad0 f i Misc.obj
 0001:000dcad0       ??_ErvTarget_Nailable@@UAEPAXI@Z 200ddad0 f i Target.obj
 0001:000dcad0       ??_GrvCTFAssaultPlayerStart@@UAEPAXI@Z 200ddad0 f i CTF.obj
 0001:000dcad0       ??_GidTarget_LockDoor@@UAEPAXI@Z 200ddad0 f i Target.obj
 0001:000dcad0       ??_EidTarget_GiveEmail@@UAEPAXI@Z 200ddad0 f i Target.obj
 0001:000dcad0       ??_ErvAIBecomePassive@@UAEPAXI@Z 200ddad0 f i AI_Util.obj
 0001:000dcad0       ??_GidTarget_FadeEntity@@UAEPAXI@Z 200ddad0 f i Target.obj
 0001:000dcad0       ??_GidTarget_SessionCommand@@UAEPAXI@Z 200ddad0 f i Target.obj
 0001:000dcad0       ??_EidTarget_Damage@@UAEPAXI@Z 200ddad0 f i Target.obj
 0001:000dcad0       ??_ErvAIBecomeAggressive@@UAEPAXI@Z 200ddad0 f i AI_Util.obj
 0001:000dcad0       ??_EidItemRemover@@UAEPAXI@Z 200ddad0 f i Item.obj
 0001:000dcad0       ??_EidFuncRadioChatter@@UAEPAXI@Z 200ddad0 f i Misc.obj
 0001:000dcad0       ??_ErvTarget_BossBattle@@UAEPAXI@Z 200ddad0 f i Target.obj
 0001:000dcad0       ??_GidTarget_RemoveWeapons@@UAEPAXI@Z 200ddad0 f i Target.obj
 0001:000dcad0       ??_EidFuncSplat@@UAEPAXI@Z 200ddad0 f i Misc.obj
 0001:000dcad0       ??_EidTarget_SetShaderParm@@UAEPAXI@Z 200ddad0 f i Target.obj
 0001:000dcad0       ??_ErvFuncSaveGame@@UAEPAXI@Z 200ddad0 f i Misc.obj
 0001:000dcad0       ??_EidFuncAASObstacle@@UAEPAXI@Z 200ddad0 f i Misc.obj
 0001:000dcad0       ??_GrvEffect@@UAEPAXI@Z    200ddad0 f i Effect.obj
 0001:000dcad0       ??_ErvCTFAssaultPlayerStart@@UAEPAXI@Z 200ddad0 f i CTF.obj
 0001:000dcad0       ??_GidTarget_SetPrimaryObjective@@UAEPAXI@Z 200ddad0 f i Target.obj
 0001:000dcad0       ??_GidTarget_SetModel@@UAEPAXI@Z 200ddad0 f i Target.obj
 0001:000dcad0       ??_EidFuncAASPortal@@UAEPAXI@Z 200ddad0 f i Misc.obj
 0001:000dcad0       ??_GidPlayerStart@@UAEPAXI@Z 200ddad0 f i Misc.obj
 0001:000dcad0       ??_EidVacuumSeparatorEntity@@UAEPAXI@Z 200ddad0 f i Misc.obj
 0001:000dcad0       ??_EidTarget_EnableStamina@@UAEPAXI@Z 200ddad0 f i Target.obj
 0001:000dcad0       ??_EidTarget_SetShaderTime@@UAEPAXI@Z 200ddad0 f i Target.obj
 0001:000dcad0       ??_GidTarget_GiveSecurity@@UAEPAXI@Z 200ddad0 f i Target.obj
 0001:000dcad0       ??_GidActivator@@UAEPAXI@Z 200ddad0 f i Misc.obj
 0001:000dcad0       ??_ErvGravityArea_SurfaceNormal@@UAEPAXI@Z 200ddad0 f i Misc.obj
 0001:000dcad0       ??_EidSound@@UAEPAXI@Z     200ddad0 f i Sound.obj
 0001:000dcad0       ??_EidObjectiveComplete@@UAEPAXI@Z 200ddad0 f i Item.obj
 0001:000dcad0       ??_GidTarget_EndLevel@@UAEPAXI@Z 200ddad0 f i Target.obj
 0001:000dcad0       ??_EidTarget_RemoveWeapons@@UAEPAXI@Z 200ddad0 f i Target.obj
 0001:000dcad0       ??_EidEarthQuake@@UAEPAXI@Z 200ddad0 f i Misc.obj
 0001:000dcad0       ??_GidFuncPortal@@UAEPAXI@Z 200ddad0 f i Misc.obj
 0001:000dcad0       ??_GrvTarget_SecretArea@@UAEPAXI@Z 200ddad0 f i Target.obj
 0001:000dcad0       ??_GidExplodable@@UAEPAXI@Z 200ddad0 f i Misc.obj
 0001:000dcad0       ??_GrvAFAttractor@@UAEPAXI@Z 200ddad0 f i AFEntity.obj
 0001:000dcad0       ??_GrvDebugJumpPoint@@UAEPAXI@Z 200ddad0 f i Misc.obj
 0001:000dcad0       ??_EidExplodable@@UAEPAXI@Z 200ddad0 f i Misc.obj
 0001:000dcad0       ??_GidFuncAASPortal@@UAEPAXI@Z 200ddad0 f i Misc.obj
 0001:000dcad0       ??_GidFuncRadioChatter@@UAEPAXI@Z 200ddad0 f i Misc.obj
 0001:000dcad0       ??_ErvDebugJumpPoint@@UAEPAXI@Z 200ddad0 f i Misc.obj
 0001:000dcad0       ??_GidTarget_SetGlobalShaderTime@@UAEPAXI@Z 200ddad0 f i Target.obj
 0001:000dcad0       ??_GrvTarget_BossBattle@@UAEPAXI@Z 200ddad0 f i Target.obj
 0001:000dcad0       ??_ErvTarget_SecretArea@@UAEPAXI@Z 200ddad0 f i Target.obj
 0001:000dcad0       ??_EidStaticEntity@@UAEPAXI@Z 200ddad0 f i Misc.obj
 0001:000dcad0       ??_GidEntity@@UAEPAXI@Z    200ddad0 f i Entity.obj
 0001:000dcad0       ??_EidLocationSeparatorEntity@@UAEPAXI@Z 200ddad0 f i Misc.obj
 0001:000dcad0       ??_EidTarget_EndLevel@@UAEPAXI@Z 200ddad0 f i Target.obj
 0001:000dcad0       ??_GidTarget_SetShaderTime@@UAEPAXI@Z 200ddad0 f i Target.obj
 0001:000dcad0       ??_EidTarget_SetKeyVal@@UAEPAXI@Z 200ddad0 f i Target.obj
 0001:000dcad0       ??_ErvEffect@@UAEPAXI@Z    200ddad0 f i Effect.obj
 0001:000dcad0       ??_GrvClientPhysics@@UAEPAXI@Z 200ddad0 f i ClientEntity.obj
 0001:000dcad0       ??_ErvTarget_LaunchProjectile@@UAEPAXI@Z 200ddad0 f i Target.obj
 0001:000dcad0       ??_GidVacuumSeparatorEntity@@UAEPAXI@Z 200ddad0 f i Misc.obj
 0001:000dcad0       ??_GidTarget_Give@@UAEPAXI@Z 200ddad0 f i Target.obj
 0001:000dcad0       ??_GidTarget_Show@@UAEPAXI@Z 200ddad0 f i Target.obj
 0001:000dcad0       ??_GidTarget_GiveEmail@@UAEPAXI@Z 200ddad0 f i Target.obj
 0001:000dcb00       ??0ammodata_s@@QAE@XZ      200ddb00 f i Target.obj
 0001:000dcb00       ??0selectedTypeInfo_s@@QAE@XZ 200ddb00 f i GameEdit.obj
 0001:000dcb20       ??1idTarget_SetInfluence@@UAE@XZ 200ddb20 f i Target.obj
 0001:000dcca0       ??_GidTarget_SetFov@@UAEPAXI@Z 200ddca0 f i Target.obj
 0001:000dcca0       ??_EidTarget_SetFov@@UAEPAXI@Z 200ddca0 f i Target.obj
 0001:000dccd0       ??_GrvTarget_AmmoStash@@UAEPAXI@Z 200ddcd0 f i Target.obj
 0001:000dccd0       ??_ErvTarget_AmmoStash@@UAEPAXI@Z 200ddcd0 f i Target.obj
 0001:000dcd40       ??_EidTarget_SetInfluence@@UAEPAXI@Z 200ddd40 f i Target.obj
 0001:000dcd40       ??_GidTarget_SetInfluence@@UAEPAXI@Z 200ddd40 f i Target.obj
 0001:000dcd70       ?GetClassType@rvTramGate@@SAAAVidTypeInfo@@XZ 200ddd70 f   TramGate.obj
 0001:000dcd80       ?GetType@rvTramGate@@UBEPAVidTypeInfo@@XZ 200ddd80 f   TramGate.obj
 0001:000dcd90       ?AdjustFrameRate@rvTramGate@@IAEXXZ 200ddd90 f   TramGate.obj
 0001:000dce30       ?Save@rvTramGate@@QBEXPAVidSaveGame@@@Z 200dde30 f   TramGate.obj
 0001:000dce80       ?ClearAllAnims@rvTramGate@@IAEXH@Z 200dde80 f   TramGate.obj
 0001:000dcec0       ?ClearAnim@rvTramGate@@IAEXHH@Z 200ddec0 f   TramGate.obj
 0001:000dcf00       ?AnimIsPlaying@rvTramGate@@IAE_NHH@Z 200ddf00 f   TramGate.obj
 0001:000dcf50       ?PlayAnim@rvTramGate@@IAEHHPBDH@Z 200ddf50 f   TramGate.obj
 0001:000dcfe0       ?CycleAnim@rvTramGate@@IAEXHPBDH@Z 200ddfe0 f   TramGate.obj
 0001:000dd050       ?GetDoorMaster@rvTramGate@@IBEPAVidDoor@@XZ 200de050 f   TramGate.obj
 0001:000dd0a0       ?IsDoorMasterValid@rvTramGate@@IBE_NXZ 200de0a0 f   TramGate.obj
 0001:000dd0b0       ?Event_IsLocked@rvTramGate@@IAEXXZ 200de0b0 f   TramGate.obj
 0001:000dd0e0       ?Event_Lock@rvTramGate@@IAEXH@Z 200de0e0 f   TramGate.obj
 0001:000dd110       ??1rvTramGate@@UAE@XZ      200de110 f   TramGate.obj
 0001:000dd2f0       ?SpawnDoors@rvTramGate@@IAEXXZ 200de2f0 f   TramGate.obj
 0001:000ddc50       ?OpenGate@rvTramGate@@QAEXXZ 200dec50 f   TramGate.obj
 0001:000ddc60       ?CloseGate@rvTramGate@@QAEXXZ 200dec60 f   TramGate.obj
 0001:000ddc70       ?Restore@rvTramGate@@QAEXPAVidRestoreGame@@@Z 200dec70 f   TramGate.obj
 0001:000ddfb0       ?IsOpen@rvTramGate@@IBE_NXZ 200defb0 f   TramGate.obj
 0001:000ddfd0       ?IsClosed@rvTramGate@@IBE_NXZ 200defd0 f   TramGate.obj
 0001:000ddff0       ?Event_Touch@rvTramGate@@IAEXPAVidEntity@@PAUtrace_t@@@Z 200deff0 f   TramGate.obj
 0001:000de060       ?Event_Activate@rvTramGate@@IAEXPAVidEntity@@@Z 200df060 f   TramGate.obj
 0001:000de0d0       ?Event_OpenGate@rvTramGate@@IAEXXZ 200df0d0 f   TramGate.obj
 0001:000de0e0       ?Event_CloseGate@rvTramGate@@IAEXXZ 200df0e0 f   TramGate.obj
 0001:000de0f0       ?Event_IsOpen@rvTramGate@@IAEXXZ 200df0f0 f   TramGate.obj
 0001:000de100       ?CreateInstance@rvTramGate@@SAPAVidClass@@XZ 200df100 f   TramGate.obj
 0001:000de1c0       ?Spawn@rvTramGate@@QAEXXZ  200df1c0 f   TramGate.obj
 0001:000de1d0       ?RegisterClassA@rvTramGate@@SAXXZ 200df1d0 f   TramGate.obj
 0001:000de260       ?Register_rvTramGate@@YAXXZ 200df260 f   TramGate.obj
 0001:000de270       ??$SpawnSafeEntityDef@VidDoor@@@idGameLocal@@QAEPAVidDoor@@PBDPBVidDict@@@Z 200df270 f i TramGate.obj
 0001:000de2d0       ??_GrvTramGate@@UAEPAXI@Z  200df2d0 f i TramGate.obj
 0001:000de2d0       ??_ErvTramGate@@UAEPAXI@Z  200df2d0 f i TramGate.obj
 0001:000de300       ?GetClassType@idTrigger@@SAAAVidTypeInfo@@XZ 200df300 f   Trigger.obj
 0001:000de310       ?GetType@idTrigger@@UBEPAVidTypeInfo@@XZ 200df310 f   Trigger.obj
 0001:000de320       ?Event_Enable@idTrigger@@IAEXXZ 200df320 f   Trigger.obj
 0001:000de330       ?Event_Disable@idTrigger@@IAEXXZ 200df330 f   Trigger.obj
 0001:000de340       ?GetClassType@idTrigger_Multi@@SAAAVidTypeInfo@@XZ 200df340 f   Trigger.obj
 0001:000de350       ?GetType@idTrigger_Multi@@UBEPAVidTypeInfo@@XZ 200df350 f   Trigger.obj
 0001:000de360       ?Restore@idTrigger_Multi@@QAEXPAVidRestoreGame@@@Z 200df360 f   Trigger.obj
 0001:000de420       ?GetClassType@idTrigger_EntityName@@SAAAVidTypeInfo@@XZ 200df420 f   Trigger.obj
 0001:000de430       ?GetType@idTrigger_EntityName@@UBEPAVidTypeInfo@@XZ 200df430 f   Trigger.obj
 0001:000de440       ?Restore@idTrigger_EntityName@@QAEXPAVidRestoreGame@@@Z 200df440 f   Trigger.obj
 0001:000de4c0       ?GetClassType@idTrigger_Timer@@SAAAVidTypeInfo@@XZ 200df4c0 f   Trigger.obj
 0001:000de4d0       ?GetType@idTrigger_Timer@@UBEPAVidTypeInfo@@XZ 200df4d0 f   Trigger.obj
 0001:000de4e0       ?Restore@idTrigger_Timer@@QAEXPAVidRestoreGame@@@Z 200df4e0 f   Trigger.obj
 0001:000de550       ?Enable@idTrigger_Timer@@UAEXXZ 200df550 f   Trigger.obj
 0001:000de580       ?Disable@idTrigger_Timer@@UAEXXZ 200df580 f   Trigger.obj
 0001:000de5a0       ?GetClassType@idTrigger_Count@@SAAAVidTypeInfo@@XZ 200df5a0 f   Trigger.obj
 0001:000de5b0       ?GetType@idTrigger_Count@@UBEPAVidTypeInfo@@XZ 200df5b0 f   Trigger.obj
 0001:000de5c0       ?Save@idTrigger_Count@@QBEXPAVidSaveGame@@@Z 200df5c0 f   Trigger.obj
 0001:000de600       ?Restore@idTrigger_Count@@QAEXPAVidRestoreGame@@@Z 200df600 f   Trigger.obj
 0001:000de640       ?Spawn@idTrigger_Count@@QAEXXZ 200df640 f   Trigger.obj
 0001:000de690       ?GetClassType@idTrigger_Hurt@@SAAAVidTypeInfo@@XZ 200df690 f   Trigger.obj
 0001:000de6a0       ?GetType@idTrigger_Hurt@@UBEPAVidTypeInfo@@XZ 200df6a0 f   Trigger.obj
 0001:000de6b0       ?Save@idTrigger_Hurt@@QBEXPAVidSaveGame@@@Z 200df6b0 f   Trigger.obj
 0001:000de700       ?Restore@idTrigger_Hurt@@QAEXPAVidRestoreGame@@@Z 200df700 f   Trigger.obj
 0001:000de750       ?Spawn@idTrigger_Hurt@@QAEXXZ 200df750 f   Trigger.obj
 0001:000de7c0       ?Event_Toggle@idTrigger_Hurt@@AAEXPAVidEntity@@@Z 200df7c0 f   Trigger.obj
 0001:000de7e0       ?GetClassType@idTrigger_Fade@@SAAAVidTypeInfo@@XZ 200df7e0 f   Trigger.obj
 0001:000de7f0       ?GetType@idTrigger_Fade@@UBEPAVidTypeInfo@@XZ 200df7f0 f   Trigger.obj
 0001:000de800       ?GetClassType@idTrigger_Touch@@SAAAVidTypeInfo@@XZ 200df800 f   Trigger.obj
 0001:000de810       ?GetType@idTrigger_Touch@@UBEPAVidTypeInfo@@XZ 200df810 f   Trigger.obj
 0001:000de820       ?Save@idTrigger_Touch@@QAEXPAVidSaveGame@@@Z 200df820 f   Trigger.obj
 0001:000de850       ?Restore@idTrigger_Touch@@QAEXPAVidRestoreGame@@@Z 200df850 f   Trigger.obj
 0001:000de880       ?Event_Trigger@idTrigger_Touch@@AAEXPAVidEntity@@@Z 200df880 f   Trigger.obj
 0001:000de8a0       ?Enable@idTrigger_Touch@@UAEXXZ 200df8a0 f   Trigger.obj
 0001:000de8b0       ?Disable@idTrigger_Touch@@UAEXXZ 200df8b0 f   Trigger.obj
 0001:000de8c0       ?Enable@idTrigger@@UAEXXZ  200df8c0 f   Trigger.obj
 0001:000de8f0       ?Disable@idTrigger@@UAEXXZ 200df8f0 f   Trigger.obj
 0001:000de920       ?CallScript@idTrigger@@IAEXPAVidEntity@@@Z 200df920 f   Trigger.obj
 0001:000de980       ?GetScriptFunction@idTrigger@@QBEPBVfunction_t@@XZ 200df980 f   Trigger.obj
 0001:000de9a0       ?Save@idTrigger@@QBEXPAVidSaveGame@@@Z 200df9a0 f   Trigger.obj
 0001:000de9f0       ?Save@idTrigger_Multi@@QBEXPAVidSaveGame@@@Z 200df9f0 f   Trigger.obj
 0001:000deac0       ?CheckFacing@idTrigger_Multi@@AAE_NPAVidEntity@@@Z 200dfac0 f   Trigger.obj
 0001:000dec70       ?TriggerAction@idTrigger_Multi@@AAEXPAVidEntity@@@Z 200dfc70 f   Trigger.obj
 0001:000dedc0       ?Event_TriggerAction@idTrigger_Multi@@AAEXPAVidEntity@@@Z 200dfdc0 f   Trigger.obj
 0001:000dedd0       ?Event_Trigger@idTrigger_Multi@@AAEXPAVidEntity@@@Z 200dfdd0 f   Trigger.obj
 0001:000deef0       ?Save@idTrigger_EntityName@@QBEXPAVidSaveGame@@@Z 200dfef0 f   Trigger.obj
 0001:000def70       ?Spawn@idTrigger_EntityName@@QAEXXZ 200dff70 f   Trigger.obj
 0001:000df1a0       ?TriggerAction@idTrigger_EntityName@@AAEXPAVidEntity@@@Z 200e01a0 f   Trigger.obj
 0001:000df290       ?Event_TriggerAction@idTrigger_EntityName@@AAEXPAVidEntity@@@Z 200e0290 f   Trigger.obj
 0001:000df2a0       ?Event_Trigger@idTrigger_EntityName@@AAEXPAVidEntity@@@Z 200e02a0 f   Trigger.obj
 0001:000df430       ?Event_Touch@idTrigger_EntityName@@AAEXPAVidEntity@@PAUtrace_t@@@Z 200e0430 f   Trigger.obj
 0001:000df5b0       ?Save@idTrigger_Timer@@QBEXPAVidSaveGame@@@Z 200e05b0 f   Trigger.obj
 0001:000df620       ?Spawn@idTrigger_Timer@@QAEXXZ 200e0620 f   Trigger.obj
 0001:000df760       ?Event_Timer@idTrigger_Timer@@AAEXXZ 200e0760 f   Trigger.obj
 0001:000df7e0       ?Event_Use@idTrigger_Timer@@AAEXPAVidEntity@@@Z 200e07e0 f   Trigger.obj
 0001:000df880       ?Event_Trigger@idTrigger_Count@@AAEXPAVidEntity@@@Z 200e0880 f   Trigger.obj
 0001:000df910       ?Event_TriggerAction@idTrigger_Count@@AAEXPAVidEntity@@@Z 200e0910 f   Trigger.obj
 0001:000df950       ?Event_Touch@idTrigger_Hurt@@AAEXPAVidEntity@@PAUtrace_t@@@Z 200e0950 f   Trigger.obj
 0001:000dfa30       ?Event_Trigger@idTrigger_Fade@@AAEXPAVidEntity@@@Z 200e0a30 f   Trigger.obj
 0001:000dfb00       ?DrawDebugInfo@idTrigger@@SAXXZ 200e0b00 f   Trigger.obj
 0001:000e02e0       ?Spawn@idTrigger_Multi@@QAEXXZ 200e12e0 f   Trigger.obj
 0001:000e0720       ?HandleControlZoneTrigger@idTrigger_Multi@@AAEXXZ 200e1720 f   Trigger.obj
 0001:000e09d0       ?Think@idTrigger_Multi@@UAEXXZ 200e19d0 f   Trigger.obj
 0001:000e09e0       ?Spawn@idTrigger_Touch@@QAEXXZ 200e19e0 f   Trigger.obj
 0001:000e0ba0       ?TouchEntities@idTrigger_Touch@@QAEXXZ 200e1ba0 f   Trigger.obj
 0001:000e0ea0       ?Think@idTrigger_Touch@@UAEXXZ 200e1ea0 f   Trigger.obj
 0001:000e0ec0       ?Event_Touch@idTrigger_Multi@@AAEXPAVidEntity@@PAUtrace_t@@@Z 200e1ec0 f   Trigger.obj
 0001:000e1350       ?Event_EarthQuake@idTrigger_Multi@@AAEXM@Z 200e2350 f   Trigger.obj
 0001:000e1430       ?Restore@idTrigger@@QAEXPAVidRestoreGame@@@Z 200e2430 f   Trigger.obj
 0001:000e1610       ??0idTrigger@@QAE@XZ       200e2610 f   Trigger.obj
 0001:000e1670       ?Spawn@idTrigger@@QAEXXZ   200e2670 f   Trigger.obj
 0001:000e1b50       ??0idTrigger_Multi@@QAE@XZ 200e2b50 f   Trigger.obj
 0001:000e1c10       ??0idTrigger_EntityName@@QAE@XZ 200e2c10 f   Trigger.obj
 0001:000e1c70       ??0idTrigger_Timer@@QAE@XZ 200e2c70 f   Trigger.obj
 0001:000e1ce0       ??0idTrigger_Count@@QAE@XZ 200e2ce0 f   Trigger.obj
 0001:000e1d10       ??0idTrigger_Hurt@@QAE@XZ  200e2d10 f   Trigger.obj
 0001:000e1d40       ??0idTrigger_Touch@@QAE@XZ 200e2d40 f   Trigger.obj
 0001:000e1d60       ??1idTrigger_Touch@@UAE@XZ 200e2d60 f   Trigger.obj
 0001:000e1df0       ?CreateInstance@idTrigger@@SAPAVidClass@@XZ 200e2df0 f   Trigger.obj
 0001:000e1e90       ?CreateInstance@idTrigger_Multi@@SAPAVidClass@@XZ 200e2e90 f   Trigger.obj
 0001:000e1f30       ?CreateInstance@idTrigger_EntityName@@SAPAVidClass@@XZ 200e2f30 f   Trigger.obj
 0001:000e1fd0       ?CreateInstance@idTrigger_Timer@@SAPAVidClass@@XZ 200e2fd0 f   Trigger.obj
 0001:000e2070       ?CreateInstance@idTrigger_Count@@SAPAVidClass@@XZ 200e3070 f   Trigger.obj
 0001:000e2110       ?CreateInstance@idTrigger_Hurt@@SAPAVidClass@@XZ 200e3110 f   Trigger.obj
 0001:000e21b0       ?CreateInstance@idTrigger_Fade@@SAPAVidClass@@XZ 200e31b0 f   Trigger.obj
 0001:000e2260       ?CreateInstance@idTrigger_Touch@@SAPAVidClass@@XZ 200e3260 f   Trigger.obj
 0001:000e2300       ?RegisterClassA@idTrigger@@SAXXZ 200e3300 f   Trigger.obj
 0001:000e2390       ?Register_idTrigger@@YAXXZ 200e3390 f   Trigger.obj
 0001:000e23a0       ?RegisterClassA@idTrigger_Multi@@SAXXZ 200e33a0 f   Trigger.obj
 0001:000e2430       ?Register_idTrigger_Multi@@YAXXZ 200e3430 f   Trigger.obj
 0001:000e2440       ?RegisterClassA@idTrigger_EntityName@@SAXXZ 200e3440 f   Trigger.obj
 0001:000e24d0       ?Register_idTrigger_EntityName@@YAXXZ 200e34d0 f   Trigger.obj
 0001:000e24e0       ?RegisterClassA@idTrigger_Timer@@SAXXZ 200e34e0 f   Trigger.obj
 0001:000e2570       ?Register_idTrigger_Timer@@YAXXZ 200e3570 f   Trigger.obj
 0001:000e2580       ?RegisterClassA@idTrigger_Count@@SAXXZ 200e3580 f   Trigger.obj
 0001:000e2610       ?Register_idTrigger_Count@@YAXXZ 200e3610 f   Trigger.obj
 0001:000e2620       ?RegisterClassA@idTrigger_Hurt@@SAXXZ 200e3620 f   Trigger.obj
 0001:000e26b0       ?Register_idTrigger_Hurt@@YAXXZ 200e36b0 f   Trigger.obj
 0001:000e26c0       ?RegisterClassA@idTrigger_Fade@@SAXXZ 200e36c0 f   Trigger.obj
 0001:000e2750       ?Register_idTrigger_Fade@@YAXXZ 200e3750 f   Trigger.obj
 0001:000e2760       ?RegisterClassA@idTrigger_Touch@@SAXXZ 200e3760 f   Trigger.obj
 0001:000e27f0       ?Register_idTrigger_Touch@@YAXXZ 200e37f0 f   Trigger.obj
 0001:000e2800       ??1idTrigger@@UAE@XZ       200e3800 f i Trigger.obj
 0001:000e28a0       ??1idTrigger_Multi@@UAE@XZ 200e38a0 f i Trigger.obj
 0001:000e2940       ??_EidTrigger_Multi@@UAEPAXI@Z 200e3940 f i Trigger.obj
 0001:000e2940       ??_GidTrigger_Multi@@UAEPAXI@Z 200e3940 f i Trigger.obj
 0001:000e2970       ??_GidTrigger_EntityName@@UAEPAXI@Z 200e3970 f i Trigger.obj
 0001:000e2970       ??_EidTrigger_EntityName@@UAEPAXI@Z 200e3970 f i Trigger.obj
 0001:000e29e0       ??_EidTrigger_Timer@@UAEPAXI@Z 200e39e0 f i Trigger.obj
 0001:000e29e0       ??_GidTrigger_Timer@@UAEPAXI@Z 200e39e0 f i Trigger.obj
 0001:000e2a50       ??_EidTrigger_Fade@@UAEPAXI@Z 200e3a50 f i Trigger.obj
 0001:000e2a50       ??_GidTrigger@@UAEPAXI@Z   200e3a50 f i Trigger.obj
 0001:000e2a50       ??_EidTrigger@@UAEPAXI@Z   200e3a50 f i Trigger.obj
 0001:000e2a50       ??_EidTrigger_Hurt@@UAEPAXI@Z 200e3a50 f i Trigger.obj
 0001:000e2a50       ??_GidTrigger_Fade@@UAEPAXI@Z 200e3a50 f i Trigger.obj
 0001:000e2a50       ??_GidTrigger_Hurt@@UAEPAXI@Z 200e3a50 f i Trigger.obj
 0001:000e2a50       ??_EidTrigger_Count@@UAEPAXI@Z 200e3a50 f i Trigger.obj
 0001:000e2a50       ??_GidTrigger_Count@@UAEPAXI@Z 200e3a50 f i Trigger.obj
 0001:000e2a80       ??_GidTrigger_Touch@@UAEPAXI@Z 200e3a80 f i Trigger.obj
 0001:000e2a80       ??_EidTrigger_Touch@@UAEPAXI@Z 200e3a80 f i Trigger.obj
 0001:000e2ab0       ?GetClassType@idWorldspawn@@SAAAVidTypeInfo@@XZ 200e3ab0 f   WorldSpawn.obj
 0001:000e2ac0       ?GetType@idWorldspawn@@UBEPAVidTypeInfo@@XZ 200e3ac0 f   WorldSpawn.obj
 0001:000e2ad0       ?Save@idWorldspawn@@QAEXPAVidRestoreGame@@@Z 200e3ad0 f   WorldSpawn.obj
 0001:000e2ae0       ??1idWorldspawn@@UAE@XZ    200e3ae0 f   WorldSpawn.obj
 0001:000e2b00       ?Event_Remove@idWorldspawn@@AAEXXZ 200e3b00 f   WorldSpawn.obj
 0001:000e2b20       ?CreateInstance@idWorldspawn@@SAPAVidClass@@XZ 200e3b20 f   WorldSpawn.obj
 0001:000e2bd0       ?Spawn@idWorldspawn@@QAEXXZ 200e3bd0 f   WorldSpawn.obj
 0001:000e2d50       ?Restore@idWorldspawn@@QAEXPAVidRestoreGame@@@Z 200e3d50 f   WorldSpawn.obj
 0001:000e2dc0       ?RegisterClassA@idWorldspawn@@SAXXZ 200e3dc0 f   WorldSpawn.obj
 0001:000e2e50       ?Register_idWorldspawn@@YAXXZ 200e3e50 f   WorldSpawn.obj
 0001:000e2e60       ??_EidWorldspawn@@UAEPAXI@Z 200e3e60 f i WorldSpawn.obj
 0001:000e2e60       ??_GidWorldspawn@@UAEPAXI@Z 200e3e60 f i WorldSpawn.obj
 0001:000e2e90       ??1idAAS@@UAE@XZ           200e3e90 f   AAS.obj
 0001:000e2ea0       ?Shutdown@idAASLocal@@UAEXXZ 200e3ea0 f   AAS.obj
 0001:000e2ee0       ?Stats@idAASLocal@@UBEXXZ  200e3ee0 f   AAS.obj
 0001:000e2f30       ?StatsSummary@idAASLocal@@UBEIXZ 200e3f30 f   AAS.obj
 0001:000e2f60       ?GetSettings@idAASLocal@@UBEPBVidAASSettings@@XZ 200e3f60 f   AAS.obj
 0001:000e2f80       ?PointAreaNum@idAASLocal@@UBEHABVidVec3@@@Z 200e3f80 f   AAS.obj
 0001:000e2fa0       ?PointReachableAreaNum@idAASLocal@@UBEHABVidVec3@@ABVidBounds@@H@Z 200e3fa0 f   AAS.obj
 0001:000e2fd0       ?BoundsReachableAreaNum@idAASLocal@@UBEHABVidBounds@@H@Z 200e3fd0 f   AAS.obj
 0001:000e3000       ?PushPointIntoAreaNum@idAASLocal@@UBEXHAAVidVec3@@@Z 200e4000 f   AAS.obj
 0001:000e3020       ?AreaCenter@idAASLocal@@UBE?AVidVec3@@H@Z 200e4020 f   AAS.obj
 0001:000e3080       ?AreaRadius@idAASLocal@@UBEMH@Z 200e4080 f   AAS.obj
 0001:000e30b0       ?AreaBounds@idAASLocal@@UBEAAVidBounds@@H@Z 200e40b0 f   AAS.obj
 0001:000e30d0       ?AreaCeiling@idAASLocal@@UBEMH@Z 200e40d0 f   AAS.obj
 0001:000e30f0       ?AreaFlags@idAASLocal@@UBEHH@Z 200e40f0 f   AAS.obj
 0001:000e3120       ?AreaTravelFlags@idAASLocal@@UBEHH@Z 200e4120 f   AAS.obj
 0001:000e3150       ?Trace@idAASLocal@@UBE_NAAUaasTrace_s@@ABVidVec3@@1@Z 200e4150 f   AAS.obj
 0001:000e3180       ?GetEdgeVertexNumbers@idAASLocal@@UBEXHQAH@Z 200e4180 f   AAS.obj
 0001:000e31e0       ??1idAASCallback@@UAE@XZ   200e41e0 f   AAS.obj
 0001:000e31f0       ?Init@idAASCallback@@UAEXXZ 200e41f0 f   AAS.obj
 0001:000e3200       ?Finish@idAASCallback@@UAEXXZ 200e4200 f   AAS.obj
 0001:000e3210       ?TestArea@idAASCallback@@MAE_NPAVidAAS@@HABUaasArea_s@@@Z 200e4210 f   AAS.obj
 0001:000e3220       ?TestPoint@idAASCallback@@MAE_NPAVidAAS@@ABVidVec3@@M@Z 200e4220 f   AAS.obj
 0001:000e3230       ?Init@idAASLocal@@UAE_NABVidStr@@I@Z 200e4230 f   AAS.obj
 0001:000e3330       ?GetPlane@idAASLocal@@UBEABVidPlane@@H@Z 200e4330 f   AAS.obj
 0001:000e3360       ?GetEdge@idAASLocal@@UBEXHAAVidVec3@@0@Z 200e4360 f   AAS.obj
 0001:000e3400       ?TestPointDistance@idAASCallback@@AAE_NABVidVec3@@0MM@Z 200e4400 f   AAS.obj
 0001:000e34e0       ?Test@idAASCallback@@QAE?AW4testResult_t@1@PAVidAAS@@HABVidVec3@@MMPBV4@AAUaasGoal_s@@@Z 200e44e0 f   AAS.obj
 0001:000e3980       ??0idAASLocal@@QAE@XZ      200e4980 f   AAS.obj
 0001:000e39e0       ??1idAASLocal@@UAE@XZ      200e49e0 f   AAS.obj
 0001:000e3a70       ?Alloc@idAAS@@SAPAV1@XZ    200e4a70 f   AAS.obj
 0001:000e3af0       ??_GrvAASFindGoalOutOfRange@@UAEPAXI@Z 200e4af0 f i AAS_Find.obj
 0001:000e3af0       ??_EidAASCallback@@UAEPAXI@Z 200e4af0 f i AAS.obj
 0001:000e3af0       ??_GidAASCallback@@UAEPAXI@Z 200e4af0 f i AAS.obj
 0001:000e3af0       ??_ErvAASFindGoalOutOfRange@@UAEPAXI@Z 200e4af0 f i AAS_Find.obj
 0001:000e3b40       ?GetSelf@idPhysics_StaticMulti@@UBEPAVidEntity@@XZ 200e4b40 f i Physics_StaticMulti.obj
 0001:000e3b40       ?GetSelf@idPhysics_Static@@UBEPAVidEntity@@XZ 200e4b40 f i Physics_Static.obj
 0001:000e3b40       ?GetFile@idAASLocal@@UAEPAVidAASFile@@XZ 200e4b40 f i AAS.obj
 0001:000e3b40       ?GetSelf@idPhysics_Base@@UBEPAVidEntity@@XZ 200e4b40 f i SplineMover.obj
 0001:000e3b50       ??_EidAASLocal@@UAEPAXI@Z  200e4b50 f i AAS.obj
 0001:000e3b50       ??_GidAASLocal@@UAEPAXI@Z  200e4b50 f i AAS.obj
 0001:000e3ba0       ?DefaultSearchBounds@idAASLocal@@ABEABVidBounds@@XZ 200e4ba0 f   AAS_debug.obj
 0001:000e3bc0       ?DrawSimpleEdge@idAASLocal@@ABEXH@Z 200e4bc0 f   AAS_debug.obj
 0001:000e3c40       ?IsValid@idAASLocal@@UBE_NXZ 200e4c40 f   AAS_debug.obj
 0001:000e3c50       ?DrawCone@idAASLocal@@ABEXABVidVec3@@0MABVidVec4@@@Z 200e4c50 f   AAS_debug.obj
 0001:000e3f40       ?DrawReachability@idAASLocal@@ABEXPBVidReachability@@@Z 200e4f40 f   AAS_debug.obj
 0001:000e4010       ?DrawEdge@idAASLocal@@ABEXH_N@Z 200e5010 f   AAS_debug.obj
 0001:000e41a0       ?DrawFace@idAASLocal@@ABEXH_N@Z 200e51a0 f   AAS_debug.obj
 0001:000e43a0       ?DrawAreaBounds@idAASLocal@@ABEXH@Z 200e53a0 f   AAS_debug.obj
 0001:000e44f0       ?DrawArea@idAASLocal@@ABEXH@Z 200e54f0 f   AAS_debug.obj
 0001:000e46c0       ?ShowArea@idAASLocal@@ABEXABVidVec3@@@Z 200e56c0 f   AAS_debug.obj
 0001:000e48f0       ?ShowFlyPath@idAASLocal@@UBEXABVidVec3@@H0@Z 200e58f0 f   AAS_debug.obj
 0001:000e4a30       ?ShowWallEdges@idAASLocal@@ABEXABVidVec3@@@Z 200e5a30 f   AAS_debug.obj
 0001:000e4c00       ?PullPlayer@idAASLocal@@ABE_NABVidVec3@@H@Z 200e5c00 f   AAS_debug.obj
 0001:000e4f50       ?RandomPullPlayer@idAASLocal@@ABEXABVidVec3@@@Z 200e5f50 f   AAS_debug.obj
 0001:000e5050       ?ShowPushIntoArea@idAASLocal@@ABEXABVidVec3@@@Z 200e6050 f   AAS_debug.obj
 0001:000e50c0       ?DrawSimpleFace@idAASLocal@@ABEXH_N@Z 200e60c0 f   AAS_debug.obj
 0001:000e5540       ?DrawSimpleArea@idAASLocal@@ABEXH@Z 200e6540 f   AAS_debug.obj
 0001:000e56b0       ?ShowWalkPath@idAASLocal@@UBEXABVidVec3@@H0@Z 200e66b0 f   AAS_debug.obj
 0001:000e57f0       ?ShowHideArea@idAASLocal@@ABEXABVidVec3@@H@Z 200e67f0 f   AAS_debug.obj
 0001:000e59c0       ?ShowProblemEdge@idAASLocal@@ABEXH@Z 200e69c0 f   AAS_debug.obj
 0001:000e6120       ?ShowProblemFace@idAASLocal@@ABEXH@Z 200e7120 f   AAS_debug.obj
 0001:000e6180       ?ShowProblemArea@idAASLocal@@ABEXH@Z 200e7180 f   AAS_debug.obj
 0001:000e6330       ?ShowProblemArea@idAASLocal@@ABEXABVidVec3@@@Z 200e7330 f   AAS_debug.obj
 0001:000e6360       ?Test@idAASLocal@@UAEXABVidVec3@@@Z 200e7360 f   AAS_debug.obj
 0001:000e6520       ?ShowAreas@idAASLocal@@UBEXABVidVec3@@_N@Z 200e7520 f   AAS_debug.obj
 0001:000e6750       ??1rvAASFindGoalForHide@@UAE@XZ 200e7750 f   AAS_Find.obj
 0001:000e67b0       ??0rvAASFindGoalOutOfRange@@QAE@PAVidAI@@@Z 200e77b0 f   AAS_Find.obj
 0001:000e67d0       ?TestPoint@rvAASFindGoalOutOfRange@@MAE_NPAVidAAS@@ABVidVec3@@M@Z 200e77d0 f   AAS_Find.obj
 0001:000e67f0       ?Finish@rvAASFindGoalForAttack@@UAEXXZ 200e77f0 f   AAS_Find.obj
 0001:000e6810       ??0rvAASFindGoalForTether@@QAE@PAVidAI@@PAVrvAITether@@@Z 200e7810 f   AAS_Find.obj
 0001:000e6830       ??1rvAASFindGoalForTether@@UAE@XZ 200e7830 f   AAS_Find.obj
 0001:000e6840       ??0rvAASFindGoalForHide@@QAE@ABVidVec3@@@Z 200e7840 f   AAS_Find.obj
 0001:000e6920       ?TestArea@rvAASFindGoalForHide@@MAE_NPAVidAAS@@HABUaasArea_s@@@Z 200e7920 f   AAS_Find.obj
 0001:000e6a00       ?TestArea@rvAASFindGoalForAttack@@EAE_NPAVidAAS@@HABUaasArea_s@@@Z 200e7a00 f   AAS_Find.obj
 0001:000e6b00       ?TestArea@rvAASFindGoalForTether@@MAE_NPAVidAAS@@HABUaasArea_s@@@Z 200e7b00 f   AAS_Find.obj
 0001:000e6b80       ?TestPoint@rvAASFindGoalForTether@@MAE_NPAVidAAS@@ABVidVec3@@M@Z 200e7b80 f   AAS_Find.obj
 0001:000e6c30       ?TestCachedGoal@rvAASFindGoalForAttack@@AAE_NH@Z 200e7c30 f   AAS_Find.obj
 0001:000e6de0       ?TestCachedGoals@rvAASFindGoalForAttack@@QAE_NHAAUaasGoal_s@@@Z 200e7de0 f   AAS_Find.obj
 0001:000e6e50       ??0rvAASFindGoalForAttack@@QAE@PAVidAI@@@Z 200e7e50 f   AAS_Find.obj
 0001:000e6ea0       ??1rvAASFindGoalForAttack@@UAE@XZ 200e7ea0 f   AAS_Find.obj
 0001:000e6f20       ?Init@rvAASFindGoalForAttack@@UAEXXZ 200e7f20 f   AAS_Find.obj
 0001:000e70d0       ?TestPoint@rvAASFindGoalForAttack@@EAE_NPAVidAAS@@ABVidVec3@@M@Z 200e80d0 f   AAS_Find.obj
 0001:000e7500       ??1rvAASFindGoalOutOfRange@@UAE@XZ 200e8500 f i AAS_Find.obj
 0001:000e7510       ??_GrvAASFindGoalForHide@@UAEPAXI@Z 200e8510 f i AAS_Find.obj
 0001:000e7510       ??_ErvAASFindGoalForHide@@UAEPAXI@Z 200e8510 f i AAS_Find.obj
 0001:000e7560       ??_GrvAASFindGoalForTether@@UAEPAXI@Z 200e8560 f i AAS_Find.obj
 0001:000e7560       ??_ErvAASFindGoalForTether@@UAEPAXI@Z 200e8560 f i AAS_Find.obj
 0001:000e75b0       ??_GrvAASFindGoalForAttack@@UAEPAXI@Z 200e85b0 f i AAS_Find.obj
 0001:000e75b0       ??_ErvAASFindGoalForAttack@@UAEPAXI@Z 200e85b0 f i AAS_Find.obj
 0001:000e7600       ?SortWallEdges@idAASLocal@@UBEXPAHH@Z 200e8600 f   AAS_pathing.obj
 0001:000e77b0       ?EdgeSplitPoint@idAASLocal@@ABE_NAAVidVec3@@HABVidPlane@@@Z 200e87b0 f   AAS_pathing.obj
 0001:000e7900       ?FloorEdgeSplitPoint@idAASLocal@@ABE_NAAVidVec3@@HABVidPlane@@1_N@Z 200e8900 f   AAS_pathing.obj
 0001:000e7d50       ?FlyPathValid@idAASLocal@@UBE_NHABVidVec3@@H0HAAV2@AAH@Z 200e8d50 f   AAS_pathing.obj
 0001:000e7de0       ?SubSampleFlyPath@idAASLocal@@ABE?AVidVec3@@HABV2@00HAAH@Z 200e8de0 f   AAS_pathing.obj
 0001:000e7f60       ?FlyPathToGoal@idAASLocal@@UBE_NAAUaasPath_s@@HABVidVec3@@H1H@Z 200e8f60 f   AAS_pathing.obj
 0001:000e81d0       ?GetWallEdges@idAASLocal@@UBEHHABVidBounds@@HPAHH@Z 200e91d0 f   AAS_pathing.obj
 0001:000e84c0       ?WalkPathValid@idAASLocal@@UBE_NHABVidVec3@@H0HAAV2@AAH@Z 200e94c0 f   AAS_pathing.obj
 0001:000e8ec0       ?SubSampleWalkPath@idAASLocal@@ABE?AVidVec3@@HABV2@00HAAH@Z 200e9ec0 f   AAS_pathing.obj
 0001:000e9040       ?WalkPathToGoal@idAASLocal@@UBE_NAAUaasPath_s@@HABVidVec3@@H1H@Z 200ea040 f   AAS_pathing.obj
 0001:000e9390       ?Size@idRoutingCache@@QBEHXZ 200ea390 f   AAS_routing.obj
 0001:000e93a0       ?DeleteAreaTravelTimes@idAASLocal@@AAEXXZ 200ea3a0 f   AAS_routing.obj
 0001:000e93c0       ?SetupRoutingCache@idAASLocal@@AAEXXZ 200ea3c0 f   AAS_routing.obj
 0001:000e9510       ?RoutingStats@idAASLocal@@ABEXXZ 200ea510 f   AAS_routing.obj
 0001:000e9600       ?UnlinkCache@idAASLocal@@ABEXPAVidRoutingCache@@@Z 200ea600 f   AAS_routing.obj
 0001:000e9660       ?GetAreaReachability@idAASLocal@@ABEPAVidReachability@@HH@Z 200ea660 f   AAS_routing.obj
 0001:000e9690       ?UpdateAreaRoutingCache@idAASLocal@@ABEXPAVidRoutingCache@@@Z 200ea690 f   AAS_routing.obj
 0001:000e9930       ?TravelTimeToGoalArea@idAASLocal@@UBEHHABVidVec3@@HH@Z 200ea930 f   AAS_routing.obj
 0001:000e9990       ??0idRoutingCache@@QAE@H@Z 200ea990 f   AAS_routing.obj
 0001:000e9a40       ??1idRoutingCache@@QAE@XZ  200eaa40 f   AAS_routing.obj
 0001:000e9aa0       ?AreaTravelTime@idAASLocal@@ABEGHABVidVec3@@0@Z 200eaaa0 f   AAS_routing.obj
 0001:000e9b60       ?CalculateAreaTravelTimes@idAASLocal@@AAEXXZ 200eab60 f   AAS_routing.obj
 0001:000e9d80       ?DeletePortalCache@idAASLocal@@AAEXXZ 200ead80 f   AAS_routing.obj
 0001:000e9e10       ?SetupRouting@idAASLocal@@AAE_NXZ 200eae10 f   AAS_routing.obj
 0001:000e9e40       ?GetBoundsAreas_r@idAASLocal@@ABEXHABVidBounds@@AAV?$idList@H@@@Z 200eae40 f   AAS_routing.obj
 0001:000ea080       ?LinkCache@idAASLocal@@ABEXPAVidRoutingCache@@@Z 200eb080 f   AAS_routing.obj
 0001:000ea0e0       ?DeleteOldestCache@idAASLocal@@ABEXXZ 200eb0e0 f   AAS_routing.obj
 0001:000ea1d0       ?GetAreaRoutingCache@idAASLocal@@ABEPAVidRoutingCache@@HHH@Z 200eb1d0 f   AAS_routing.obj
 0001:000ea330       ?UpdatePortalRoutingCache@idAASLocal@@ABEXPAVidRoutingCache@@@Z 200eb330 f   AAS_routing.obj
 0001:000ea550       ?GetPortalRoutingCache@idAASLocal@@ABEPAVidRoutingCache@@HHH@Z 200eb550 f   AAS_routing.obj
 0001:000ea650       ?RouteToGoalArea@idAASLocal@@UBE_NHVidVec3@@HHAAHPAPAVidReachability@@@Z 200eb650 f   AAS_routing.obj
 0001:000eaa80       ?DeleteClusterCache@idAASLocal@@AAEXH@Z 200eba80 f   AAS_routing.obj
 0001:000eab30       ?ShutdownRoutingCache@idAASLocal@@AAEXXZ 200ebb30 f   AAS_routing.obj
 0001:000eabe0       ?ShutdownRouting@idAASLocal@@AAEXXZ 200ebbe0 f   AAS_routing.obj
 0001:000eabf0       ?RemoveRoutingCacheUsingArea@idAASLocal@@AAEXH@Z 200ebbf0 f   AAS_routing.obj
 0001:000eac70       ?DisableArea@idAASLocal@@AAEXH@Z 200ebc70 f   AAS_routing.obj
 0001:000eacb0       ?EnableArea@idAASLocal@@AAEXH@Z 200ebcb0 f   AAS_routing.obj
 0001:000eacf0       ?SetAreaState_r@idAASLocal@@AAE_NHABVidBounds@@H_N@Z 200ebcf0 f   AAS_routing.obj
 0001:000eadc0       ?SetAreaState@idAASLocal@@UAE_NABVidBounds@@H_N@Z 200ebdc0 f   AAS_routing.obj
 0001:000eae70       ?SetObstacleState@idAASLocal@@AAEXPBVidRoutingObstacle@@_N@Z 200ebe70 f   AAS_routing.obj
 0001:000eafa0       ?SetReachabilityState@idAASLocal@@UAEXPAVidReachability@@_N@Z 200ebfa0 f   AAS_routing.obj
 0001:000eaff0       ?FindNearestGoal@idAASLocal@@UBE_NAAUaasGoal_s@@HVidVec3@@ABV3@HMMPAUaasObstacle_s@@HAAVidAASCallback@@@Z 200ebff0 f   AAS_routing.obj
 0001:000eb800       ?AddObstacle@idAASLocal@@UAEHABVidBounds@@@Z 200ec800 f   AAS_routing.obj
 0001:000ebac0       ?RemoveAllObstacles@idAASLocal@@UAEXXZ 200ecac0 f   AAS_routing.obj
 0001:000ebbb0       ?RemoveObstacle@idAASLocal@@UAEXH@Z 200ecbb0 f   AAS_routing.obj
 0001:000ebc20       ??_GidRoutingObstacle@@QAEPAXI@Z 200ecc20 f i AAS_routing.obj
 0001:000ebca0       ?Test@rvTest@@QAE_NMM@Z    200ecca0 f i AAS_tactical.obj
 0001:000ebd40       ?Save@rvTestSet@@QAEXPAVidSaveGame@@@Z 200ecd40 f i AAS_tactical.obj
 0001:000ebdf0       ?Restore@rvTestSet@@QAEXPAVidRestoreGame@@@Z 200ecdf0 f i AAS_tactical.obj
 0001:000ebe90       ?Reset@rvTestSet@@QAEXXZ   200ece90 f i AAS_tactical.obj
 0001:000ebed0       ?SearchDebug@rvAASTacticalSensorLocal@@UAEXXZ 200eced0 f   AAS_tactical.obj
 0001:000ebef0       ?SearchComputeWeight@rvAASTacticalSensorLocal@@QAEMXZ 200ecef0 f   AAS_tactical.obj
 0001:000ec020       ?DrawDebugInfo@rvTest@@QAEXVidVec4@@ABVidVec3@@1@Z 200ed020 f   AAS_tactical.obj
 0001:000ec070       ?Normal@aasFeature_s@@QAEAAVidVec3@@XZ 200ed070 f   AAS_tactical.obj
 0001:000ec0e0       ?Origin@aasFeature_s@@QAEAAVidVec3@@XZ 200ed0e0 f   AAS_tactical.obj
 0001:000ec140       ?GetLookPos@aasFeature_s@@QAEHAAVidVec3@@ABV2@M@Z 200ed140 f   AAS_tactical.obj
 0001:000ec420       ?Save@rvAASTacticalSensorLocal@@UAEXPAVidSaveGame@@@Z 200ed420 f   AAS_tactical.obj
 0001:000ec590       ?Reserve@rvAASTacticalSensorLocal@@UAEXPAUaasFeature_s@@@Z 200ed590 f   AAS_tactical.obj
 0001:000ec5e0       ?SearchComputeWeightRange@rvAASTacticalSensorLocal@@QAEMAAM@Z 200ed5e0 f   AAS_tactical.obj
 0001:000ec6c0       ?DrawDebugInfo@aasFeature_s@@QAEXH@Z 200ed6c0 f   AAS_tactical.obj
 0001:000ecbf0       ?DrawDebugInfo@rvTest@@QAEXVidVec4@@ABVidVec3@@@Z 200edbf0 f   AAS_tactical.obj
 0001:000eccb0       ?DrawDebugInfo@rvTestSet@@QAEXABVidVec4@@ABVidVec3@@@Z 200edcb0 f   AAS_tactical.obj
 0001:000ecdd0       ?Clear@rvAASTacticalSensorLocal@@UAEXXZ 200eddd0 f   AAS_tactical.obj
 0001:000ece40       ?Restore@rvAASTacticalSensorLocal@@UAEXPAVidRestoreGame@@@Z 200ede40 f   AAS_tactical.obj
 0001:000ecfd0       ?TestSetupCurrentValues@rvAASTacticalSensorLocal@@QAEXXZ 200edfd0 f   AAS_tactical.obj
 0001:000ed1f0       ?TestValidWithCurrentState@rvAASTacticalSensorLocal@@UAE_NPAUaasFeature_s@@@Z 200ee1f0 f   AAS_tactical.obj
 0001:000ed250       ?TestValid@rvAASTacticalSensorLocal@@UAE_NPAUaasFeature_s@@M@Z 200ee250 f   AAS_tactical.obj
 0001:000ed590       ?SearchReset@rvAASTacticalSensorLocal@@QAEXPAVidEntity@@MM@Z 200ee590 f   AAS_tactical.obj
 0001:000ed950       ?DrawDebugInfo@rvAASTacticalSensorLocal@@QAEXXZ 200ee950 f   AAS_tactical.obj
 0001:000edfe0       ??0rvAASTacticalSensorLocal@@QAE@XZ 200eefe0 f   AAS_tactical.obj
 0001:000ee100       ??1rvAASTacticalSensorLocal@@QAE@XZ 200ef100 f   AAS_tactical.obj
 0001:000ee1a0       ?Update@rvAASTacticalSensorLocal@@UAEXXZ 200ef1a0 f   AAS_tactical.obj
 0001:000eea80       ?CREATE_SENSOR@rvAASTacticalSensor@@SAPAU1@PAVidActor@@@Z 200efa80 f   AAS_tactical.obj
 0001:000eeb20       ?Search@rvAASTacticalSensorLocal@@QAEXXZ 200efb20 f   AAS_tactical.obj
 0001:000ef940       ?SearchRadius@rvAASTacticalSensorLocal@@UAEXABVidVec3@@MM@Z 200f0940 f   AAS_tactical.obj
 0001:000efa20       ?SearchCover@rvAASTacticalSensorLocal@@UAEXMM@Z 200f0a20 f   AAS_tactical.obj
 0001:000efa60       ?SearchHide@rvAASTacticalSensorLocal@@UAEXPAVidEntity@@@Z 200f0a60 f   AAS_tactical.obj
 0001:000efae0       ?SearchFlank@rvAASTacticalSensorLocal@@UAEXXZ 200f0ae0 f   AAS_tactical.obj
 0001:000efb40       ?SearchAdvance@rvAASTacticalSensorLocal@@UAEXXZ 200f0b40 f   AAS_tactical.obj
 0001:000efb90       ?SearchRetreat@rvAASTacticalSensorLocal@@UAEXXZ 200f0b90 f   AAS_tactical.obj
 0001:000efbe0       ?SearchAmbush@rvAASTacticalSensorLocal@@UAEXXZ 200f0be0 f   AAS_tactical.obj
 0001:000efc40       ?rvSortFeature@@YAHPBQAUaasFeature_s@@0@Z 200f0c40 f i AAS_tactical.obj
 0001:000efc60       ?WeightRange@rvTestSet@@QAEMAAM@Z 200f0c60 f i AAS_tactical.obj
 0001:000efce0       ?Test@rvTestSet@@QAE_NPAUaasFeature_s@@M@Z 200f0ce0 f i AAS_tactical.obj
 0001:000eff60       ?SetupOriginAndFacing@rvTestSet@@QAEXPBVidEntity@@PBVidVec3@@1@Z 200f0f60 f i AAS_tactical.obj
 0001:000f0090       ?Dist@idVec3@@QBEMABV1@@Z  200f1090 f i AAS_tactical.obj
 0001:000f0130       ?Near@rvAASTacticalSensorLocal@@UBEPAUaasFeature_s@@XZ 200f1130 f i AAS_tactical.obj
 0001:000f0140       ?Look@rvAASTacticalSensorLocal@@UBEPAUaasFeature_s@@XZ 200f1140 f i AAS_tactical.obj
 0001:000f0150       ?Reserved@rvAASTacticalSensorLocal@@UBEPAUaasFeature_s@@XZ 200f1150 f i AAS_tactical.obj
 0001:000f0160       ?ReservedOrigin@rvAASTacticalSensorLocal@@UBEABVidVec3@@XZ 200f1160 f i AAS_tactical.obj
 0001:000f0170       ?FeatureCount@rvAASTacticalSensorLocal@@UAEHXZ 200f1170 f i AAS_tactical.obj
 0001:000f0180       ?Feature@rvAASTacticalSensorLocal@@UAEPAUaasFeature_s@@H@Z 200f1180 f i AAS_tactical.obj
 0001:000f01a0       ?OnStateChange@idAI@@MAEXH@Z 200f11a0 f   AI.obj
 0001:000f01b0       ?OverrideFlag@idAI@@QAEXW4aiFlagOverride_t@@_N@Z 200f11b0 f   AI.obj
 0001:000f02f0       ?RestoreFlag@idAI@@QAEXW4aiFlagOverride_t@@@Z 200f12f0 f   AI.obj
 0001:000f0390       ?GetTalkState@idAI@@QBE?AW4talkState_t@@XZ 200f1390 f   AI.obj
 0001:000f03e0       ?Hide@idAI@@UAEXXZ         200f13e0 f   AI.obj
 0001:000f0440       ?RadiusDamageFromJoint@idAI@@QAEXPBD0@Z 200f1440 f   AI.obj
 0001:000f04f0       ?BecomeNonSolid@idAI@@QAEXXZ 200f14f0 f   AI.obj
 0001:000f0530       ?ExecScriptFunction@idAI@@QAEXAAVrvScriptFuncUtility@@PAVidEntity@@@Z 200f1530 f   AI.obj
 0001:000f0570       ?OnWakeUp@idAI@@MAEXXZ     200f1570 f   AI.obj
 0001:000f0580       ?OnUpdatePlayback@idAI@@MAEXABVrvDeclPlaybackData@@@Z 200f1580 f   AI.obj
 0001:000f0590       ?OnTacticalChange@idAI@@MAEXW4aiTactical_t@@@Z 200f1590 f   AI.obj
 0001:000f05b0       ?OnFriendlyFire@idAI@@MAEXPAVidActor@@@Z 200f15b0 f   AI.obj
 0001:000f05c0       ?OnStartMoving@idAI@@MAEXXZ 200f15c0 f   AI.obj
 0001:000f05d0       ?OnStopMoving@idAI@@MAEXW4aiMoveCommand_t@@@Z 200f15d0 f   AI.obj
 0001:000f05e0       ?OnStartAction@idAI@@MAEXXZ 200f15e0 f   AI.obj
 0001:000f05f0       ?OnStopAction@idAI@@MAEXXZ 200f15f0 f   AI.obj
 0001:000f0600       ?OnEnemyVisiblityChange@idAI@@MAEX_N@Z 200f1600 f   AI.obj
 0001:000f0610       ?OnCoverNotFacingEnemy@idAI@@MAEXXZ 200f1610 f   AI.obj
 0001:000f0640       ?SkipCurrentDestination@idAI@@UBE_NXZ 200f1640 f   AI.obj
 0001:000f0650       ?GetTurnDelta@idAI@@QAEMXZ 200f1650 f   AI.obj
 0001:000f0710       ?UpdateThreat@idAI@@MAEXXZ 200f1710 f   AI.obj
 0001:000f0770       ?CheckBlink@idAI@@UAEXXZ   200f1770 f   AI.obj
 0001:000f0780       ?ScriptedEnd@idAI@@AAEXXZ  200f1780 f   AI.obj
 0001:000f07a0       ?ScriptedStop@idAI@@QAEXXZ 200f17a0 f   AI.obj
 0001:000f07c0       ?FootStep@idAI@@UAEXXZ     200f17c0 f   AI.obj
 0001:000f07e0       ?SetTalkState@idAI@@QAEXW4talkState_t@@@Z 200f17e0 f   AI.obj
 0001:000f0820       ?IsCrouching@idAI@@UBE_NXZ 200f1820 f   AI.obj
 0001:000f0830       ?Save@idAI@@QBEXPAVidSaveGame@@@Z 200f1830 f   AI.obj
 0001:000f1000       ?InitNonPersistentSpawnArgs@idAI@@QAEXXZ 200f2000 f   AI.obj
 0001:000f1110       ?Begin@idAI@@QAEXXZ        200f2110 f   AI.obj
 0001:000f1260       ?DormantBegin@idAI@@UAEXXZ 200f2260 f   AI.obj
 0001:000f1280       ?ValidateCover@idAI@@QAE_NXZ 200f2280 f   AI.obj
 0001:000f1360       ?ReactionTo@idAI@@QAEHPBVidEntity@@@Z 200f2360 f   AI.obj
 0001:000f1420       ?AdjustHealthByDamage@idAI@@UAEXH@Z 200f2420 f   AI.obj
 0001:000f1460       ?LastKnownPosition@idAI@@QAEABVidVec3@@PBVidEntity@@@Z 200f2460 f   AI.obj
 0001:000f14b0       ?SetSpawner@idAI@@QAEXPAVrvSpawner@@@Z 200f24b0 f   AI.obj
 0001:000f14e0       ?CreateProjectileClipModel@idAI@@QBEXXZ 200f24e0 f   AI.obj
 0001:000f15f0       ?GetPredictedAimDirOffset@idAI@@QBEXABVidVec3@@0M0AAV2@@Z 200f25f0 f   AI.obj
 0001:000f17d0       ?GetAimDir@idAI@@QBE_NABVidVec3@@PBVidEntity@@PBVidDict@@PAV3@AAV2@MM@Z 200f27d0 f   AI.obj
 0001:000f1e80       ?CreateProjectile@idAI@@QAEPAVidProjectile@@PBVidDict@@ABVidVec3@@1@Z 200f2e80 f   AI.obj
 0001:000f1fc0       ?RemoveProjectile@idAI@@QAEXXZ 200f2fc0 f   AI.obj
 0001:000f2010       ?Attack@idAI@@UAE_NPBDW4jointHandle_t@@PAVidEntity@@ABVidVec3@@@Z 200f3010 f   AI.obj
 0001:000f2120       ?DamageFeedback@idAI@@UAEXPAVidEntity@@0AAH@Z 200f3120 f   AI.obj
 0001:000f21a0       ?DirectDamage@idAI@@QAEXPBDPAVidEntity@@@Z 200f31a0 f   AI.obj
 0001:000f2480       ?PushWithAF@idAI@@QAEXXZ   200f3480 f   AI.obj
 0001:000f2630       ?GetMuzzle@idAI@@QAEXW4jointHandle_t@@AAVidVec3@@AAVidMat3@@@Z 200f3630 f   AI.obj
 0001:000f27c0       ?Show@idAI@@UAEXXZ         200f37c0 f   AI.obj
 0001:000f2890       ?CanPlayChatterSounds@idAI@@MBE_NXZ 200f3890 f   AI.obj
 0001:000f2910       ?AttackProjectile@idAI@@UAEPAVidProjectile@@PBVidDict@@ABVidVec3@@ABVidAngles@@@Z 200f3910 f   AI.obj
 0001:000f2c70       ?CanBecomeSolid@idAI@@QAE_NXZ 200f3c70 f   AI.obj
 0001:000f2d10       ?BecomeSolid@idAI@@QAEXXZ  200f3d10 f   AI.obj
 0001:000f2de0       ?ChooseAnim@idAI@@QAEPBDHPBD@Z 200f3de0 f   AI.obj
 0001:000f2e80       ?OnLeaderChange@idAI@@MAEXPAVidEntity@@@Z 200f3e80 f   AI.obj
 0001:000f2eb0       ?OnSetKey@idAI@@MAEXPBD0@Z 200f3eb0 f   AI.obj
 0001:000f3000       ?OnCoverInvalidated@idAI@@MAEXXZ 200f4000 f   AI.obj
 0001:000f3030       ?SkipImpulse@idAI@@UAE_NPAVidEntity@@H@Z 200f4030 f   AI.obj
 0001:000f3070       ?GetIdleAnimName@idAI@@UAEPBDXZ 200f4070 f   AI.obj
 0001:000f30c0       ?CalculateEnemyThreat@idAI@@MAEMPAVidEntity@@@Z 200f40c0 f   AI.obj
 0001:000f3220       ?StopSpeaking@idAI@@QAEX_N@Z 200f4220 f   AI.obj
 0001:000f32d0       ?SetScript@idAI@@QAEXPBD0@Z 200f42d0 f   AI.obj
 0001:000f34b0       ?GetPassiveAnimPrefix@idAI@@IAE_NPBDAAVidStr@@@Z 200f44b0 f   AI.obj
 0001:000f3560       ?CheckDeathCausesMissionFailure@idAI@@QAE_NXZ 200f4560 f   AI.obj
 0001:000f3630       ?DormantEnd@idAI@@UAEXXZ   200f4630 f   AI.obj
 0001:000f36b0       ?UpdateFocus@idAI@@QAEXABVidMat3@@@Z 200f46b0 f   AI.obj
 0001:000f43c0       ?UpdateStates@idAI@@QAEXXZ 200f53c0 f   AI.obj
 0001:000f4450       ?UpdateEnemyPosition@idAI@@QAEX_N@Z 200f5450 f   AI.obj
 0001:000f4640       ?UpdateEnemyVisibility@idAI@@QAEXXZ 200f5640 f   AI.obj
 0001:000f4700       ?GetSpawner@idAI@@QAEPAVrvSpawner@@XZ 200f5700 f   AI.obj
 0001:000f4730       ?TestMelee@idAI@@QBE_NXZ   200f5730 f   AI.obj
 0001:000f49e0       ?AttackMelee@idAI@@UAE_NPBDPBVidDict@@@Z 200f59e0 f   AI.obj
 0001:000f4fd0       ?HeardSound@idAI@@QAEPAVidEntity@@H@Z 200f5fd0 f   AI.obj
 0001:000f51a0       ?SetLeader@idAI@@QAEXPAVidEntity@@@Z 200f61a0 f   AI.obj
 0001:000f5270       ?UpdateAnimationControllers@idAI@@UAE_NXZ 200f6270 f   AI.obj
 0001:000f6a00       ?Postthink@idAI@@UAEXXZ    200f7a00 f   AI.obj
 0001:000f6be0       ?OnDeath@idAI@@MAEXXZ      200f7be0 f   AI.obj
 0001:000f6c80       ?CanHitEnemy@idAI@@QAE_NXZ 200f7c80 f   AI.obj
 0001:000f6eb0       ?CanHitEnemyFromJoint@idAI@@QAE_NPBD@Z 200f7eb0 f   AI.obj
 0001:000f7160       ?FindEnemy@idAI@@QAEPAVidEntity@@_N0M@Z 200f8160 f   AI.obj
 0001:000f73f0       ?Speak@idAI@@QAE_NPBD_N@Z  200f83f0 f   AI.obj
 0001:000f7510       ?CanHitEnemyFromAnim@idAI@@QAE_NHVidVec3@@@Z 200f8510 f   AI.obj
 0001:000f7920       ?UpdateHelper@idAI@@QAEXXZ 200f8920 f   AI.obj
 0001:000f7a00       ?GetActiveHelper@idAI@@QAEPAVrvAIHelper@@XZ 200f8a00 f   AI.obj
 0001:000f7a60       ?SetTether@idAI@@UAEXPAVrvAITether@@@Z 200f8a60 f   AI.obj
 0001:000f7bd0       ?GetTether@idAI@@QAEPAVrvAITether@@XZ 200f8bd0 f   AI.obj
 0001:000f7c00       ?IsTethered@idAI@@UBE_NXZ  200f8c00 f   AI.obj
 0001:000f7d20       ?IsWithinTether@idAI@@QBE_NXZ 200f8d20 f   AI.obj
 0001:000f7d90       ?SetPassivePrefix@idAI@@QAEXPBD@Z 200f8d90 f   AI.obj
 0001:000f7e80       ?IsMeleeNeeded@idAI@@QAE_NXZ 200f8e80 f   AI.obj
 0001:000f7f20       ?Restore@idAI@@QAEXPAVidRestoreGame@@@Z 200f8f20 f   AI.obj
 0001:000f8e40       ?List_f@idAI@@SAXABVidCmdArgs@@@Z 200f9e40 f   AI.obj
 0001:000f9590       ?DoDormantTests@idAI@@UAE_NXZ 200fa590 f   AI.obj
 0001:000f9620       ?TalkTo@idAI@@UAEXPAVidActor@@@Z 200fa620 f   AI.obj
 0001:000f99b0       ?ClearEnemy@idAI@@QAEX_N@Z 200fa9b0 f   AI.obj
 0001:000f9b10       ?UpdateEnemy@idAI@@QAEXXZ  200fab10 f   AI.obj
 0001:000fa200       ?SetEnemy@idAI@@QAE_NPAVidEntity@@@Z 200fb200 f   AI.obj
 0001:000fa320       ?CalculateAttackOffsets@idAI@@QAEXXZ 200fb320 f   AI.obj
 0001:000fa720       ?UpdateChatter@idAI@@IAEXXZ 200fb720 f   AI.obj
 0001:000fa840       ?Prethink@idAI@@UAEXXZ     200fb840 f   AI.obj
 0001:000fa9c0       ?OnEnemyChange@idAI@@MAEXPAVidEntity@@@Z 200fb9c0 f   AI.obj
 0001:000faaf0       ?CheckForTeammateEnemy@idAI@@QAE_NXZ 200fbaf0 f   AI.obj
 0001:000fac70       ?CheckForCloserEnemy@idAI@@QAE_NXZ 200fbc70 f   AI.obj
 0001:000fae60       ?CheckForReplaceEnemy@idAI@@QAE_NPAVidEntity@@@Z 200fbe60 f   AI.obj
 0001:000fb030       ?ReactToShotAt@idAI@@QAEXPAVidEntity@@ABVidVec3@@1@Z 200fc030 f   AI.obj
 0001:000fb270       ?ReactToPain@idAI@@QAEXPAVidEntity@@H@Z 200fc270 f   AI.obj
 0001:000fb280       ??1idAI@@UAE@XZ            200fc280 f   AI.obj
 0001:000fb520       ?Spawn@idAI@@QAEXXZ        200fc520 f   AI.obj
 0001:000fcf70       ?WakeUp@idAI@@QAEXXZ       200fdf70 f   AI.obj
 0001:000fd200       ?Think@idAI@@UAEXXZ        200fe200 f   AI.obj
 0001:000fd5e0       ?Pain@idAI@@UAE_NPAVidEntity@@0HABVidVec3@@H@Z 200fe5e0 f   AI.obj
 0001:000fd820       ?Killed@idAI@@UAEXPAVidEntity@@0HABVidVec3@@H@Z 200fe820 f   AI.obj
 0001:000fdee0       ?Activate@idAI@@QAEXPAVidEntity@@@Z 200feee0 f   AI.obj
 0001:000fdfc0       ?TouchedByFlashlight@idAI@@QAEXPAVidActor@@@Z 200fefc0 f   AI.obj
 0001:000fdfe0       ?AttackRanged@idAI@@UAEPAVidProjectile@@PBDPBVidDict@@W4jointHandle_t@@PAVidEntity@@ABVidVec3@@@Z 200fefe0 f   AI.obj
 0001:000fec80       ?OnTouch@idAI@@MAEXPAVidEntity@@PAUtrace_t@@@Z 200ffc80 f   AI.obj
 0001:000fede0       ?CheckForEnemy@idAI@@QAE_N_N0@Z 200ffde0 f   AI.obj
 0001:000feee0       ?ScriptedBegin@idAI@@AAE_N_N0@Z 200ffee0 f   AI.obj
 0001:000fef50       ?ScriptedMove@idAI@@QAEXPAVidEntity@@M_N@Z 200fff50 f   AI.obj
 0001:000fefe0       ?ScriptedFace@idAI@@QAEXPAVidEntity@@_N@Z 200fffe0 f   AI.obj
 0001:000ff050       ?ScriptedAnim@idAI@@QAEXPBDH_N1@Z 20100050 f   AI.obj
 0001:000ff100       ?ScriptedPlaybackAim@idAI@@QAEXPBDHH@Z 20100100 f   AI.obj
 0001:000ff170       ?ScriptedAction@idAI@@QAEXPAVidEntity@@_N@Z 20100170 f   AI.obj
 0001:000ff220       ??0idAI@@QAE@XZ            20100220 f   AI.obj
 0001:000ff7d0       ??1rvAIPassive_s@@QAE@XZ   201007d0 f i AI.obj
 0001:000ff850       ??1rvAIPain_s@@QAE@XZ      20100850 f i AI.obj
 0001:000ff860       ??0rvAIFuncs_s@@QAE@XZ     20100860 f i AI.obj
 0001:000ff920       ??1rvAIFuncs_s@@QAE@XZ     20100920 f i AI.obj
 0001:000ff9e0       ?CanTakeDamage@idAI@@UBE_NXZ 201009e0 f i AI.obj
 0001:000ff9e0       ?CanTakeDamage@idEntity@@UBE_NXZ 201009e0 f i Actor.obj
 0001:000ff9f0       ?CanTakePain@idAI@@UBE_NXZ 201009f0 f i AI.obj
 0001:000ffa00       ?CanTurn@idAI@@UBE_NXZ     20100a00 f i AI.obj
 0001:000ffa30       ?CanMove@idAI@@UBE_NXZ     20100a30 f i AI.obj
 0001:000ffa60       ?CanAnnounce@idAI@@UBE_NM@Z 20100a60 f i AI.obj
 0001:000ffae0       ??0rvAIActionTimer@@QAE@XZ 20100ae0 f   AI_Actions.obj
 0001:000ffaf0       ?Save@rvAIActionTimer@@QBEXPAVidSaveGame@@@Z 20100af0 f   AI_Actions.obj
 0001:000ffb20       ?Restore@rvAIActionTimer@@QAEXPAVidRestoreGame@@@Z 20100b20 f   AI_Actions.obj
 0001:000ffb50       ?Clear@rvAIActionTimer@@QAEXH@Z 20100b50 f   AI_Actions.obj
 0001:000ffb60       ?CheckAction_EvadeLeft@idAI@@UAE_NPAVrvAIAction@@H@Z 20100b60 f   AI_Actions.obj
 0001:000ffbb0       ?CheckAction_EvadeRight@idAI@@UAE_NPAVrvAIAction@@H@Z 20100bb0 f   AI_Actions.obj
 0001:000ffc00       ?CheckAction_JumpBack@idAI@@UAE_NPAVrvAIAction@@H@Z 20100c00 f   AI_Actions.obj
 0001:000ffc30       ?UpdateAction@idAI@@IAE_NXZ 20100c30 f   AI_Actions.obj
 0001:000ffc50       ?PerformAction@idAI@@IAEXPBDH_N@Z 20100c50 f   AI_Actions.obj
 0001:000ffcf0       ?Init@rvAIActionTimer@@QAE_NABVidDict@@PBD@Z 20100cf0 f   AI_Actions.obj
 0001:000ffd50       ?Reset@rvAIActionTimer@@QAEXHMM@Z 20100d50 f   AI_Actions.obj
 0001:000ffdc0       ?Add@rvAIActionTimer@@QAEXHM@Z 20100dc0 f   AI_Actions.obj
 0001:000ffe20       ?Save@rvAIAction@@QBEXPAVidSaveGame@@@Z 20100e20 f   AI_Actions.obj
 0001:000fff00       ?CheckPainActions@idAI@@MAE_NXZ 20100f00 f   AI_Actions.obj
 0001:000fff90       ?CheckAction_RangedAttack@idAI@@UAE_NPAVrvAIAction@@H@Z 20100f90 f   AI_Actions.obj
 0001:00100120       ?CheckAction_MeleeAttack@idAI@@UAE_NPAVrvAIAction@@H@Z 20101120 f   AI_Actions.obj
 0001:001001a0       ?CheckAction_LeapAttack@idAI@@QAE_NPAVrvAIAction@@H@Z 201011a0 f   AI_Actions.obj
 0001:00100280       ?PerformAction@idAI@@IAE_NPAVrvAIAction@@P81@AE_N0H@ZPAVrvAIActionTimer@@@Z 20101280 f   AI_Actions.obj
 0001:001008d0       ??0rvAIAction@@QAE@XZ      201018d0 f   AI_Actions.obj
 0001:00100910       ?Init@rvAIAction@@QAE_NABVidDict@@PBD1H@Z 20101910 f   AI_Actions.obj
 0001:00101000       ?Restore@rvAIAction@@QAEXPAVidRestoreGame@@@Z 20102000 f   AI_Actions.obj
 0001:001012c0       ?CheckActions@idAI@@MAE_NXZ 201022c0 f   AI_Actions.obj
 0001:00101410       ??_9idAI@@$BCIM@AE         20102410 f i AI_Actions.obj
 0001:00101420       ??_9idAI@@$BCIA@AE         20102420 f i AI_Actions.obj
 0001:00101430       ??_9idAI@@$BCJA@AE         20102430 f i AI_Actions.obj
 0001:00101440       ??_9idAI@@$BCIE@AE         20102440 f i AI_Actions.obj
 0001:00101450       ?AnnounceKill@idAI@@QAEXPAVidActor@@@Z 20102450 f   AI_Announcements.obj
 0001:001014a0       ?AnnounceSuppressed@idAI@@QAEXPAVidActor@@@Z 201024a0 f   AI_Announcements.obj
 0001:001014b0       ?AnnounceSuppressing@idAI@@QAEXXZ 201024b0 f   AI_Announcements.obj
 0001:001014c0       ?AnnounceInjured@idAI@@QAEXXZ 201024c0 f   AI_Announcements.obj
 0001:001014f0       ?AnnounceGrenade@idAI@@QAEXXZ 201024f0 f   AI_Announcements.obj
 0001:00101540       ?AnnounceGrenadeThrow@idAI@@QAEXXZ 20102540 f   AI_Announcements.obj
 0001:00101590       ?AnnounceTactical@idAI@@QAEXW4aiTactical_t@@@Z 20102590 f   AI_Announcements.obj
 0001:00101640       ?AnnounceDeath@rvAIManager@@QAEXPAVidAI@@PAVidEntity@@@Z 20102640 f   AI_Announcements.obj
 0001:001017f0       ?AnnounceNewEnemy@idAI@@QAEXXZ 201027f0 f   AI_Announcements.obj
 0001:00101c60       ?AnnounceFriendlyFire@idAI@@QAEXPAVidActor@@@Z 20102c60 f   AI_Announcements.obj
 0001:00101dd0       ?AnnounceKill@rvAIManager@@QAEXPAVidAI@@PAVidEntity@@1@Z 20102dd0 f   AI_Announcements.obj
 0001:00101f50       ?AnnounceFlinch@idAI@@QAEXPAVidEntity@@@Z 20102f50 f   AI_Announcements.obj
 0001:00102050       ?DrawRoute@idAI@@QBEXXZ    20103050 f   AI_Debug.obj
 0001:001020e0       ?GetDebugInfo@idAI@@UAEXP6AXPBD00PAX@Z1@Z 201030e0 f   AI_Debug.obj
 0001:00102ab0       ?DrawTactical@idAI@@QAEXXZ 20103ab0 f   AI_Debug.obj
 0001:001038e0       ?Event_Activate@idAI@@AAEXPAVidEntity@@@Z 201048e0 f   AI_events.obj
 0001:001038f0       ?Event_Touch@idAI@@AAEXPAVidEntity@@PAUtrace_t@@@Z 201048f0 f   AI_events.obj
 0001:00103900       ?Event_SetEnemy@idAI@@AAEXPAVidEntity@@@Z 20104900 f   AI_events.obj
 0001:00103920       ?Event_DirectDamage@idAI@@AAEXPAVidEntity@@PBD@Z 20104920 f   AI_events.obj
 0001:00103940       ?Event_RadiusDamageFromJoint@idAI@@AAEXPBD0@Z 20104940 f   AI_events.obj
 0001:00103950       ?Event_CanBecomeSolid@idAI@@AAEXXZ 20104950 f   AI_events.obj
 0001:00103980       ?Event_BecomeSolid@idAI@@AAEXXZ 20104980 f   AI_events.obj
 0001:00103990       ?Event_BecomeNonSolid@idAI@@AAEXXZ 20104990 f   AI_events.obj
 0001:001039a0       ?Event_BecomeRagdoll@idAI@@AAEXXZ 201049a0 f   AI_events.obj
 0001:001039b0       ?Event_StopRagdoll@idAI@@AAEXXZ 201049b0 f   AI_events.obj
 0001:001039d0       ?Event_SetHealth@idAI@@AAEXM@Z 201049d0 f   AI_events.obj
 0001:00103a10       ?Event_FaceEnemy@idAI@@AAEXXZ 20104a10 f   AI_events.obj
 0001:00103a20       ?Event_FaceEntity@idAI@@AAEXPAVidEntity@@@Z 20104a20 f   AI_events.obj
 0001:00103a30       ?Event_SetTalkState@idAI@@AAEXH@Z 20104a30 f   AI_events.obj
 0001:00103a40       ?Event_Speak@idAI@@AAEXPBD@Z 20104a40 f   AI_events.obj
 0001:00103a60       ?Event_SpeakRandom@idAI@@AAEXPBD@Z 20104a60 f   AI_events.obj
 0001:00103a80       ?Event_SetLeader@idAI@@AAEXPAVidEntity@@@Z 20104a80 f   AI_events.obj
 0001:00103a90       ?Event_TakeDamage@idAI@@AAEXM@Z 20104a90 f   AI_events.obj
 0001:00103ac0       ?Event_SetUndying@idAI@@AAEXM@Z 20104ac0 f   AI_events.obj
 0001:00103b00       ?Event_IsTethered@idAI@@AAEXXZ 20104b00 f   AI_events.obj
 0001:00103b30       ?Event_IsWithinTether@idAI@@AAEXXZ 20104b30 f   AI_events.obj
 0001:00103b60       ?Event_IsMoving@idAI@@AAEXXZ 20104b60 f   AI_events.obj
 0001:00103b90       ?CreateInstance@idAI@@SAPAVidClass@@XZ 20104b90 f   AI_events.obj
 0001:00103c30       ?GetClassType@idAI@@SAAAVidTypeInfo@@XZ 20104c30 f   AI_events.obj
 0001:00103c40       ?GetType@idAI@@UBEPAVidTypeInfo@@XZ 20104c40 f   AI_events.obj
 0001:00103c50       ?Event_TestMeleeAttack@idAI@@AAEXXZ 20104c50 f   AI_events.obj
 0001:00103c60       ?Event_LockEnemyOrigin@idAI@@AAEXXZ 20104c60 f   AI_events.obj
 0001:00103c70       ?Event_JumpFrame@idAI@@AAEXXZ 20104c70 f   AI_events.obj
 0001:00103c80       ?Event_EnableGravity@idAI@@AAEXXZ 20104c80 f   AI_events.obj
 0001:00103c90       ?Event_DisableGravity@idAI@@AAEXXZ 20104c90 f   AI_events.obj
 0001:00103ca0       ?Event_EnableAFPush@idAI@@AAEXXZ 20104ca0 f   AI_events.obj
 0001:00103cb0       ?Event_DisableAFPush@idAI@@AAEXXZ 20104cb0 f   AI_events.obj
 0001:00103cc0       ?Event_EnableDamage@idAI@@AAEXXZ 20104cc0 f   AI_events.obj
 0001:00103cd0       ?Event_DisableDamage@idAI@@AAEXXZ 20104cd0 f   AI_events.obj
 0001:00103ce0       ?Event_DisablePain@idAI@@AAEXXZ 20104ce0 f   AI_events.obj
 0001:00103cf0       ?Event_EnablePain@idAI@@AAEXXZ 20104cf0 f   AI_events.obj
 0001:00103d00       ?Event_EnableTarget@idAI@@AAEXXZ 20104d00 f   AI_events.obj
 0001:00103d10       ?Event_DisableTarget@idAI@@AAEXXZ 20104d10 f   AI_events.obj
 0001:00103d20       ?Event_EnableAutoBlink@idAI@@AAEXXZ 20104d20 f   AI_events.obj
 0001:00103d30       ?Event_DisableAutoBlink@idAI@@AAEXXZ 20104d30 f   AI_events.obj
 0001:00103d40       ?Event_Kill@idAI@@AAEXXZ   20104d40 f   AI_events.obj
 0001:00103d50       ?Event_RemoveUpdateSpawner@idAI@@AAEXXZ 20104d50 f   AI_events.obj
 0001:00103d90       ?Event_ScriptedMove@idAI@@AAEXPAVidEntity@@M_N@Z 20104d90 f   AI_events.obj
 0001:00103db0       ?Event_ScriptedFace@idAI@@AAEXPAVidEntity@@_N@Z 20104db0 f   AI_events.obj
 0001:00103dc0       ?Event_ScriptedAnim@idAI@@AAEXPBDH_N1@Z 20104dc0 f   AI_events.obj
 0001:00103dd0       ?Event_ScriptedAction@idAI@@AAEXPAVidEntity@@_N@Z 20104dd0 f   AI_events.obj
 0001:00103de0       ?Event_ScriptedPlaybackMove@idAI@@AAEXPBDHH@Z 20104de0 f   AI_events.obj
 0001:00103df0       ?Event_ScriptedPlaybackAim@idAI@@AAEXPBDHH@Z 20104df0 f   AI_events.obj
 0001:00103e00       ?Event_ScriptedDone@idAI@@AAEXXZ 20104e00 f   AI_events.obj
 0001:00103e30       ?Event_ScriptedStop@idAI@@AAEXXZ 20104e30 f   AI_events.obj
 0001:00103e40       ?Event_AllowHiddenMovement@idAI@@AAEXH@Z 20104e40 f   AI_events.obj
 0001:00103e70       ?Event_SetScript@idAI@@AAEXPBD0@Z 20104e70 f   AI_events.obj
 0001:00103e80       ?Event_SetMoveSpeed@idAI@@AAEXH@Z 20104e80 f   AI_events.obj
 0001:00103ed0       ?Event_SetPassivePrefix@idAI@@AAEXPBD@Z 20104ed0 f   AI_events.obj
 0001:00103ee0       ?Event_ScriptedJumpDown@idAI@@AAEXM@Z 20104ee0 f   AI_events.obj
 0001:00103f20       ?Event_FindEnemy@idAI@@AAEXM@Z 20104f20 f   AI_events.obj
 0001:00103f40       ?Event_SetKey@idAI@@AAEXPBD0@Z 20104f40 f   AI_events.obj
 0001:00103f70       ?Event_GetEnemy@idAI@@AAEXXZ 20104f70 f   AI_events.obj
 0001:00103fb0       ?Event_IsSpeaking@idAI@@AAEXXZ 20104fb0 f   AI_events.obj
 0001:00103ff0       ?RegisterClassA@idAI@@SAXXZ 20104ff0 f   AI_events.obj
 0001:00104080       ?Register_idAI@@YAXXZ      20105080 f   AI_events.obj
 0001:00104090       ?Event_TestAnimMoveTowardEnemy@idAI@@AAEXPBD@Z 20105090 f   AI_events.obj
 0001:001043b0       ?Event_TestAnimMove@idAI@@AAEXPBD@Z 201053b0 f   AI_events.obj
 0001:00104650       ?Event_TestMoveToPosition@idAI@@AAEXABVidVec3@@@Z 20105650 f   AI_events.obj
 0001:001047b0       ?Event_TestAnimAttack@idAI@@AAEXPBD@Z 201057b0 f   AI_events.obj
 0001:001048b0       ?Event_StopThinking@idAI@@AAEXXZ 201058b0 f   AI_events.obj
 0001:001048d0       ?Event_EnableClip@idAI@@AAEXXZ 201058d0 f   AI_events.obj
 0001:00104900       ?Event_DisableClip@idAI@@AAEXXZ 20105900 f   AI_events.obj
 0001:00104920       ?Event_BecomeAggressive@idAI@@AAEXXZ 20105920 f   AI_events.obj
 0001:00104960       ?Event_BecomePassive@idAI@@AAEXH@Z 20105960 f   AI_events.obj
 0001:001049c0       ?Event_LookAt@idAI@@AAEXPAVidEntity@@@Z 201059c0 f   AI_events.obj
 0001:001049f0       ?LookAtEntity@idAI@@QAEXPAVidEntity@@M@Z 201059f0 f   AI_events.obj
 0001:00104ab0       ?Event_ThrowMoveable@idAI@@AAEXXZ 20105ab0 f   AI_events.obj
 0001:00104b30       ?Event_ThrowAF@idAI@@AAEXXZ 20105b30 f   AI_events.obj
 0001:00104bb0       ?Event_SetAngles@idAI@@AAEXABVidAngles@@@Z 20105bb0 f   AI_events.obj
 0001:00104c40       ?Event_GetAngles@idAI@@AAEXXZ 20105c40 f   AI_events.obj
 0001:00104c70       ?Event_RealKill@idAI@@AAEXXZ 20105c70 f   AI_events.obj
 0001:00104cc0       ?Event_FindActorsInBounds@idAI@@AAEXABVidVec3@@0@Z 20105cc0 f   AI_events.obj
 0001:00104da0       ?Event_EntityInAttackCone@idAI@@AAEXPAVidEntity@@@Z 20105da0 f   AI_events.obj
 0001:00104fd0       ?Event_CanReachPosition@idAI@@AAEXABVidVec3@@@Z 20105fd0 f   AI_events.obj
 0001:00105080       ?Event_CanReachEntity@idAI@@AAEXPAVidEntity@@@Z 20106080 f   AI_events.obj
 0001:001051a0       ?Event_CanReachEnemy@idAI@@AAEXXZ 201061a0 f   AI_events.obj
 0001:001052f0       ?Event_GetReachableEntityPosition@idAI@@AAEXPAVidEntity@@@Z 201062f0 f   AI_events.obj
 0001:001053d0       ?Event_Attack@idAI@@AAEXPBD0@Z 201063d0 f   AI_events.obj
 0001:00105430       ?Event_AttackMelee@idAI@@AAEXPBD@Z 20106430 f   AI_events.obj
 0001:001054b0       ?Event_PostSpawn@idAI@@MAEXXZ 201064b0 f   AI_events.obj
 0001:00105540       ?Event_GetLeader@idAI@@AAEXXZ 20106540 f   AI_events.obj
 0001:00105580       ?Event_PredictEnemyPos@idAI@@AAEXM@Z 20106580 f   AI_events.obj
 0001:00105660       ?Event_ClosestReachableEnemyOfEntity@idAI@@AAEXPAVidEntity@@@Z 20106660 f   AI_events.obj
 0001:00105800       ?IsActive@rvAIManager@@QAE_NXZ 20106800 f   AI_Manager.obj
 0001:00105810       ?UnMarkAllReachBlocked@rvAIManager@@QAEXXZ 20106810 f   AI_Manager.obj
 0001:00105850       ?ReMarkAllReachBlocked@rvAIManager@@QAEXXZ 20106850 f   AI_Manager.obj
 0001:00105890       ?Save@rvAIManager@@QBEXPAVidSaveGame@@@Z 20106890 f   AI_Manager.obj
 0001:001059b0       ?RemoveTeammate@rvAIManager@@QAEXPAVidActor@@@Z 201069b0 f   AI_Manager.obj
 0001:001059d0       ?GetEnemyTeam@rvAIManager@@QAEPAVidActor@@W4aiTeam_t@@@Z 201069d0 f   AI_Manager.obj
 0001:00105a10       ?GetAllyTeam@rvAIManager@@QAEPAVidActor@@W4aiTeam_t@@@Z 20106a10 f   AI_Manager.obj
 0001:00105a50       ?NearestTeammateToPoint@rvAIManager@@QAEPAVidActor@@PAV2@VidVec3@@_NM22@Z 20106a50 f   AI_Manager.obj
 0001:00105bc0       ?ActorIsBehindActor@rvAIManager@@QAE_NPAVidActor@@0@Z 20106bc0 f   AI_Manager.obj
 0001:00105cd0       ?FindClosestHelper@rvAIManager@@QAEPAVrvAIHelper@@ABVidVec3@@@Z 20106cd0 f   AI_Manager.obj
 0001:00105df0       ?DebugDrawHelpers@rvAIManager@@IAEXXZ 20106df0 f   AI_Manager.obj
 0001:00105e40       ?ReactToPlayerAttack@rvAIManager@@QAEXPAVidPlayer@@ABVidVec3@@1@Z 20106e40 f   AI_Manager.obj
 0001:00105fb0       ?AddTeammate@rvAIManager@@QAEXPAVidActor@@@Z 20106fb0 f   AI_Manager.obj
 0001:00105fe0       ?IsSimpleThink@rvAIManager@@QAE_NPAVidAI@@@Z 20106fe0 f   AI_Manager.obj
 0001:00106020       ?ValidateDestination@rvAIManager@@QBE_NPAVidAI@@ABVidVec3@@_NPAVidActor@@@Z 20107020 f   AI_Manager.obj
 0001:001063d0       ?NearestTeammateEnemy@rvAIManager@@QAEPAVidEntity@@PAVidActor@@M_N1PAPAV3@@Z 201073d0 f   AI_Manager.obj
 0001:001065b0       ?LocalTeamHasEnemies@rvAIManager@@QAE_NPAVidAI@@MM_N@Z 201075b0 f   AI_Manager.obj
 0001:00106830       ?UpdateHelpers@rvAIManager@@IAEXXZ 20107830 f   AI_Manager.obj
 0001:001068b0       ?DebugDraw@rvAIManager@@IAEXXZ 201078b0 f   AI_Manager.obj
 0001:00106940       ?RegisterHelper@rvAIManager@@QAEXPAVrvAIHelper@@@Z 20107940 f   AI_Manager.obj
 0001:00106970       ?UnregisterHelper@rvAIManager@@QAEXPAVrvAIHelper@@@Z 20107970 f   AI_Manager.obj
 0001:00106990       ?RunFrame@rvAIManager@@QAEXXZ 20107990 f   AI_Manager.obj
 0001:00106dd0       ?Clear@rvAIManager@@QAEXXZ 20107dd0 f   AI_Manager.obj
 0001:00106ea0       ?Restore@rvAIManager@@QAEXPAVidRestoreGame@@@Z 20107ea0 f   AI_Manager.obj
 0001:001070e0       ??0rvAIManager@@QAE@XZ     201080e0 f   AI_Manager.obj
 0001:001071a0       ?MarkReachBlocked@rvAIManager@@QAEXPAVidAAS@@PAVidReachability@@ABV?$idList@PAVidEntity@@@@@Z 201081a0 f   AI_Manager.obj
 0001:001079e0       ??0aiBlocked_s@@QAE@XZ     201089e0 f i AI_Manager.obj
 0001:00107a30       ??1aiBlocked_s@@QAE@XZ     20108a30 f i AI_Manager.obj
 0001:00107ae0       ??4aiBlocked_s@@QAEAAU0@ABU0@@Z 20108ae0 f i AI_Manager.obj
 0001:00107cc0       ??1?$idList@UaiBlocked_s@@@@QAE@XZ 20108cc0 f i AI_Manager.obj
 0001:00107d20       ??1rvAIManager@@QAE@XZ     20108d20 f i AI_Manager.obj
 0001:00107e20       ?GetClassType@rvAIMedic@@SAAAVidTypeInfo@@XZ 20108e20 f   AI_Medic.obj
 0001:00107e30       ?GetType@rvAIMedic@@UBEPAVidTypeInfo@@XZ 20108e30 f   AI_Medic.obj
 0001:00107e40       ?Event_EnableHeal@rvAIMedic@@AAEXXZ 20108e40 f   AI_Medic.obj
 0001:00107e50       ?Event_DisableHeal@rvAIMedic@@AAEXXZ 20108e50 f   AI_Medic.obj
 0001:00107e60       ?Event_EnableMovement@rvAIMedic@@AAEXXZ 20108e60 f   AI_Medic.obj
 0001:00107e70       ?Event_DisableMovement@rvAIMedic@@AAEXXZ 20108e70 f   AI_Medic.obj
 0001:00107e80       ?SetHealValues@rvAIMedic@@AAEXPAVidPlayer@@@Z 20108e80 f   AI_Medic.obj
 0001:00107ed0       ?InitSpawnArgsVariables@rvAIMedic@@QAEXXZ 20108ed0 f   AI_Medic.obj
 0001:00108020       ?Spawn@rvAIMedic@@QAEXXZ   20109020 f   AI_Medic.obj
 0001:00108120       ?Show@rvAIMedic@@UAEXXZ    20109120 f   AI_Medic.obj
 0001:00108160       ?Save@rvAIMedic@@QBEXPAVidSaveGame@@@Z 20109160 f   AI_Medic.obj
 0001:00108230       ?Restore@rvAIMedic@@QAEXPAVidRestoreGame@@@Z 20109230 f   AI_Medic.obj
 0001:00108300       ?GetDebugInfo@rvAIMedic@@UAEXP6AXPBD00PAX@Z1@Z 20109300 f   AI_Medic.obj
 0001:00108690       ?IsTethered@rvAIMedic@@UBE_NXZ 20109690 f   AI_Medic.obj
 0001:001086e0       ?TakePatient@rvAIMedic@@AAEXPAVidPlayer@@@Z 201096e0 f   AI_Medic.obj
 0001:00108920       ?DropPatient@rvAIMedic@@AAEXXZ 20109920 f   AI_Medic.obj
 0001:00108a40       ?CheckTakePatient@rvAIMedic@@AAE_NPAVidPlayer@@@Z 20109a40 f   AI_Medic.obj
 0001:00108c70       ?SituationAllowsPatient@rvAIMedic@@AAE_NXZ 20109c70 f   AI_Medic.obj
 0001:00108ed0       ?AvailableToTakePatient@rvAIMedic@@AAE_NXZ 20109ed0 f   AI_Medic.obj
 0001:00108f20       ?Think@rvAIMedic@@UAEXXZ   20109f20 f   AI_Medic.obj
 0001:00108fa0       ?OnStateThreadClear@rvAIMedic@@UAEXPBDH@Z 20109fa0 f   AI_Medic.obj
 0001:00109050       ?OnStartMoving@rvAIMedic@@MAEXXZ 2010a050 f   AI_Medic.obj
 0001:001090f0       ?Pain@rvAIMedic@@UAE_NPAVidEntity@@0HABVidVec3@@H@Z 2010a0f0 f   AI_Medic.obj
 0001:00109180       ?State_Medic@rvAIMedic@@AAE?AW4stateResult_t@@ABUstateParms_t@@@Z 2010a180 f   AI_Medic.obj
 0001:00109a30       ?TalkTo@rvAIMedic@@UAEXPAVidActor@@@Z 2010aa30 f   AI_Medic.obj
 0001:00109b30       ??0rvAIMedic@@QAE@XZ       2010ab30 f   AI_Medic.obj
 0001:00109bc0       ?CreateInstance@rvAIMedic@@SAPAVidClass@@XZ 2010abc0 f   AI_Medic.obj
 0001:00109c60       ?RegisterClassA@rvAIMedic@@SAXXZ 2010ac60 f   AI_Medic.obj
 0001:00109cf0       ?Register_rvAIMedic@@YAXXZ 2010acf0 f   AI_Medic.obj
 0001:00109d00       ??1rvAITactical@@UAE@XZ    2010ad00 f i AI_Medic.obj
 0001:00109d60       ??_ErvAIMedic@@UAEPAXI@Z   2010ad60 f i AI_Medic.obj
 0001:00109d60       ??_GrvAIMedic@@UAEPAXI@Z   2010ad60 f i AI_Medic.obj
 0001:00109df0       ?SetMoveType@idAI@@QAEXW4moveType_t@@@Z 2010adf0 f   AI_Move.obj
 0001:00109ea0       ?BlockedFailSafe@idAI@@QAEXXZ 2010aea0 f   AI_Move.obj
 0001:00109eb0       ?FacingIdeal@idAI@@QAE_NXZ 2010aeb0 f   AI_Move.obj
 0001:00109fa0       ?AnimTurn@idAI@@IAEXM_N@Z  2010afa0 f   AI_Move.obj
 0001:0010a130       ?ApplyImpulse@idAI@@UAEXPAVidEntity@@HABVidVec3@@1_N@Z 2010b130 f   AI_Move.obj
 0001:0010a160       ?Seek@@YA?AVidVec3@@AAV1@ABV1@1M@Z 2010b160 f   AI_Move.obj
 0001:0010a210       ?FlySeekGoal@idAI@@QAEXAAVidVec3@@0@Z 2010b210 f   AI_Move.obj
 0001:0010a2b0       ?CustomMove@idAI@@UAEXXZ   2010b2b0 f   AI_Move.obj
 0001:0010a2c0       ?LineIntersection2D@@YA_NABVidVec3@@000AAV1@@Z 2010b2c0 f   AI_Move.obj
 0001:0010a410       ?Spawn@idMoveState@@QAEXAAVidDict@@@Z 2010b410 f   AI_Move.obj
 0001:0010a8c0       ?Save@idMoveState@@QBEXPAVidSaveGame@@@Z 2010b8c0 f   AI_Move.obj
 0001:0010ac60       ?Restore@idMoveState@@QAEXPAVidRestoreGame@@@Z 2010bc60 f   AI_Move.obj
 0001:0010afc0       ?KickObstacles@idAI@@QAEXABVidVec3@@MPAVidEntity@@@Z 2010bfc0 f   AI_Move.obj
 0001:0010b580       ?ValidForBounds@@YA_NPBVidAASSettings@@ABVidBounds@@@Z 2010c580 f   AI_Move.obj
 0001:0010b5d0       ?PointReachableAreaNum@idAI@@QBEHABVidVec3@@M@Z 2010c5d0 f   AI_Move.obj
 0001:0010b6a0       ?PathToGoal@idAI@@QBE_NAAUaasPath_s@@HABVidVec3@@H1@Z 2010c6a0 f   AI_Move.obj
 0001:0010b800       ?ScriptedPlaybackMove@idAI@@QAEXPBDHH@Z 2010c800 f   AI_Move.obj
 0001:0010b8a0       ?StopMove@idAI@@IAEXW4moveStatus_t@@@Z 2010c8a0 f   AI_Move.obj
 0001:0010b9d0       ?SlideToPosition@idAI@@QAE_NABVidVec3@@M@Z 2010c9d0 f   AI_Move.obj
 0001:0010bb70       ?TurnToward@idAI@@QAE_NM@Z 2010cb70 f   AI_Move.obj
 0001:0010bc10       ?TurnToward@idAI@@QAE_NABVidVec3@@@Z 2010cc10 f   AI_Move.obj
 0001:0010bdb0       ?DirectionalTurnToward@idAI@@QAE_NABVidVec3@@@Z 2010cdb0 f   AI_Move.obj
 0001:0010c240       ?Turn@idAI@@QAEXXZ         2010d240 f   AI_Move.obj
 0001:0010c760       ?GetAnimMoveDelta@idAI@@QAEXABVidMat3@@0AAVidVec3@@@Z 2010d760 f   AI_Move.obj
 0001:0010c9a0       ?TestTeammateCollisions@@YAXPAVidAI@@@Z 2010d9a0 f   AI_Move.obj
 0001:0010cea0       ?TestAnimMove@idAI@@QAE_NHPAVidEntity@@PAVidVec3@@@Z 2010dea0 f   AI_Move.obj
 0001:0010d140       ?DeadMove@idAI@@UAEXXZ     2010e140 f   AI_Move.obj
 0001:0010d1c0       ?AdjustFlyingAngles@idAI@@QAEXXZ 2010e1c0 f   AI_Move.obj
 0001:0010d430       ?AddFlyBob@idAI@@QAEXAAVidVec3@@@Z 2010e430 f   AI_Move.obj
 0001:0010d5e0       ?AdjustFlySpeed@idAI@@QAEXAAVidVec3@@@Z 2010e5e0 f   AI_Move.obj
 0001:0010d810       ?FlyTurn@idAI@@QAEXXZ      2010e810 f   AI_Move.obj
 0001:0010d940       ?StaticMove@idAI@@QAEXXZ   2010e940 f   AI_Move.obj
 0001:0010dbc0       ??0idMoveState@@QAE@XZ     2010ebc0 f   AI_Move.obj
 0001:0010dd00       ?SetAAS@idAI@@QAEXXZ       2010ed00 f   AI_Move.obj
 0001:0010de60       ?ReachedPos@idAI@@IBE_NABVidVec3@@W4aiMoveCommand_t@@M@Z 2010ee60 f   AI_Move.obj
 0001:0010e1e0       ?TravelDistance@idAI@@QBEMABVidVec3@@0@Z 2010f1e0 f   AI_Move.obj
 0001:0010e560       ?TravelDistance@idAI@@QBEMPAVidEntity@@@Z 2010f560 f   AI_Move.obj
 0001:0010e5b0       ?TravelDistance@idAI@@QBEMPAVidEntity@@0@Z 2010f5b0 f   AI_Move.obj
 0001:0010e600       ?TravelDistance@idAI@@QBEMABVidVec3@@@Z 2010f600 f   AI_Move.obj
 0001:0010e630       ?FaceEnemy@idAI@@QAE_NXZ   2010f630 f   AI_Move.obj
 0001:0010e700       ?FaceEntity@idAI@@QAE_NPAVidEntity@@@Z 2010f700 f   AI_Move.obj
 0001:0010e7e0       ?StartMove@idAI@@IAE_NW4aiMoveCommand_t@@ABVidVec3@@HPAVidEntity@@PAUaasFeature_s@@M@Z 2010f7e0 f   AI_Move.obj
 0001:0010e940       ?MoveToAttack@idAI@@IAE_NPAVidEntity@@H@Z 2010f940 f   AI_Move.obj
 0001:0010ec80       ?MoveToEnemy@idAI@@MAE_NXZ 2010fc80 f   AI_Move.obj
 0001:0010efb0       ?MoveToEntity@idAI@@IAE_NPAVidEntity@@M@Z 2010ffb0 f   AI_Move.obj
 0001:0010f220       ?MoveOutOfRange@idAI@@IAE_NPAVidEntity@@MM@Z 20110220 f   AI_Move.obj
 0001:0010f3c0       ?MoveTo@idAI@@IAE_NABVidVec3@@M@Z 201103c0 f   AI_Move.obj
 0001:0010f4a0       ?MoveToCover@idAI@@IAE_NMMW4aiTactical_t@@@Z 201104a0 f   AI_Move.obj
 0001:0010f630       ?MoveToHide@idAI@@IAE_NXZ  20110630 f   AI_Move.obj
 0001:0010f840       ?StepDirection@idAI@@QAE_NM@Z 20110840 f   AI_Move.obj
 0001:0010fba0       ?NewWanderDir@idAI@@QAE_NABVidVec3@@@Z 20110ba0 f   AI_Move.obj
 0001:00110020       ?TurnTowardLeader@idAI@@QAE_N_N@Z 20111020 f   AI_Move.obj
 0001:00110560       ?AdjustFlyHeight@idAI@@QAEXAAVidVec3@@ABV2@@Z 20111560 f   AI_Move.obj
 0001:00110930       ?UpdatePlayback@idAI@@QAEXAAVidVec3@@00AAVidMat3@@@Z 20111930 f   AI_Move.obj
 0001:00110b00       ?PlaybackMove@idAI@@QAEXXZ 20111b00 f   AI_Move.obj
 0001:00110ea0       ?AI_MoveInitialize@@YAXXZ  20111ea0 f   AI_Move.obj
 0001:00110ec0       ?Event_SaveMove@idAI@@AAEXXZ 20111ec0 f   AI_Move.obj
 0001:00110ee0       ?MoveToTether@idAI@@IAE_NPAVrvAITether@@@Z 20111ee0 f   AI_Move.obj
 0001:00110fb0       ?WanderAround@idAI@@QAE_NXZ 20111fb0 f   AI_Move.obj
 0001:001110e0       ?GetMovePos@idAI@@QAE_NAAVidVec3@@PAPAVidReachability@@@Z 201120e0 f   AI_Move.obj
 0001:00111710       ?AI_EntityMoved@@YAXPAVidEntity@@@Z 20112710 f   AI_Move.obj
 0001:00111730       ?CheckObstacleAvoidance@idAI@@QAEXABVidVec3@@AAV2@PAVidReachability@@@Z 20112730 f   AI_Move.obj
 0001:00111b80       ?FlyMove@idAI@@QAEXXZ      20112b80 f   AI_Move.obj
 0001:00112300       ?SlideMove@idAI@@QAEXXZ    20113300 f   AI_Move.obj
 0001:00112ac0       ?RVMasterMove@idAI@@QAEXXZ 20113ac0 f   AI_Move.obj
 0001:00113840       ?Event_RestoreMove@idAI@@AAEXXZ 20114840 f   AI_Move.obj
 0001:00113a50       ?AnimMove@idAI@@QAEXXZ     20114a50 f   AI_Move.obj
 0001:001141d0       ?Move@idAI@@QAEXXZ         201151d0 f   AI_Move.obj
 0001:001142f0       ?IsLeftOf@idVec3@@QBE_NABV1@0@Z 201152f0 f i AI_Move.obj
 0001:00114350       ?Initialize@rvWindingBox@@QAEXXZ 20115350 f i AI_Move.obj
 0001:001143e0       ?LineIntersection@rvWindingBox@@QBE_NABVidVec3@@0AAV2@AAH2@Z 201153e0 f i AI_Move.obj
 0001:00114480       ?PointInside@rvWindingBox@@QBE_NABVidVec3@@@Z 20115480 f i AI_Move.obj
 0001:00114500       ?DrawDebugGraphics@rvWindingBox@@QBE_NXZ 20115500 f i AI_Move.obj
 0001:001145c0       ?visitSort@rvPathFinder@@SAHPBX0@Z 201155c0 f i AI_Move.obj
 0001:001145f0       ?XYLineIntersection@rvPathFinder@@QAE_NABVidVec3@@000AAV2@@Z 201155f0 f i AI_Move.obj
 0001:00114780       ?GetSeekPosition@rvPathFinder@@QAEABVidVec3@@PAVidReachability@@H@Z 20115780 f i AI_Move.obj
 0001:001147c0       ?SelectNextVisitedNode@rvPathFinder@@QAEPAUvisitNode@1@XZ 201157c0 f i AI_Move.obj
 0001:00114840       ?Open@rvPathFinder@@QAEXPAUvisitNode@1@@Z 20115840 f i AI_Move.obj
 0001:001148e0       ?UpdateOpenList@rvPathFinder@@QAEXXZ 201158e0 f i AI_Move.obj
 0001:00114960       ?clear@?$rvIndexPool@UrvObstacle@@$0DC@$0BAAA@@@QAEXXZ 20115960 f i AI_Move.obj
 0001:001149b0       ?alloc@?$rvIndexPool@UrvObstacle@@$0DC@$0BAAA@@@QAEPAUrvObstacle@@H@Z 201159b0 f i AI_Move.obj
 0001:001149f0       ?DistXY@idVec3@@QBEMABV1@@Z 201159f0 f i AI_Move.obj
 0001:00114a90       ?FromBounds@rvWindingBox@@QAEXABVidBounds@@@Z 20115a90 f i AI_Move.obj
 0001:00114ae0       ?PointInsideArea@rvObstacle@@QAE_NABVidVec3@@PAUaasArea_s@@@Z 20115ae0 f i AI_Move.obj
 0001:00114ba0       ?DrawDebugGraphics@rvObstacleFinder@@QAEXXZ 20115ba0 f i AI_Move.obj
 0001:00114c20       ?RecordContact@rvObstacleFinder@@QAEXMABVidVec3@@PAUrvObstacle@@0HH@Z 20115c20 f i AI_Move.obj
 0001:00114cb0       ?RayTrace@rvObstacleFinder@@QAE_NMPBUaasArea_s@@ABVidVec3@@1HPBVidEntity@@22@Z 20115cb0 f i AI_Move.obj
 0001:001151d0       ?Initialize@rvPathFinder@@QAEXXZ 201161d0 f i AI_Move.obj
 0001:00115250       ?DrawVisitTree@rvPathFinder@@QAEXXZ 20116250 f i AI_Move.obj
 0001:00115340       ?Success@rvPathFinder@@QAE_NPAUvisitNode@1@@Z 20116340 f i AI_Move.obj
 0001:00115730       ?WasVisited@rvPathFinder@@QAEPAUvisitNode@1@PAVidReachability@@@Z 20116730 f i AI_Move.obj
 0001:001157a0       ?WasVisited@rvPathFinder@@QAEPAUvisitNode@1@H@Z 201167a0 f i AI_Move.obj
 0001:00115810       ?TravelCost@rvPathFinder@@QAEMPAVidReachability@@HPAUvisitNode@1@@Z 20116810 f i AI_Move.obj
 0001:00115950       ?Visit@rvPathFinder@@QAEXPAVidReachability@@HPAUvisitNode@1@@Z 20116950 f i AI_Move.obj
 0001:00115b80       ?VisitReach@rvPathFinder@@QAEXPAVidReachability@@PAUvisitNode@1@@Z 20116b80 f i AI_Move.obj
 0001:00115d20       ?VisitArea@rvPathFinder@@QAEXHPAUvisitNode@1@@Z 20116d20 f i AI_Move.obj
 0001:00115da0       ?FindPath@rvPathFinder@@QAE_NPAVidAAS@@AAVidMoveState@@M_NPAVidEntity@@3@Z 20116da0 f i AI_Move.obj
 0001:00116010       ??4idMoveState@@QAEAAV0@AAV0@@Z 20117010 f i AI_Move.obj
 0001:00116480       ?DistToLineSeg@idVec3@@QBEMABV1@0AAM@Z 20117480 f i AI_Move.obj
 0001:001165e0       ?Initialize@rvObstacle@@QAEXPAVidEntity@@@Z 201175e0 f i AI_Move.obj
 0001:001166f0       ?RemoveMarkers@rvObstacle@@QAEXXZ 201176f0 f i AI_Move.obj
 0001:001167c0       ?Initialize@rvObstacleFinder@@QAEXXZ 201177c0 f i AI_Move.obj
 0001:001168c0       ?AddMarkers@rvObstacle@@QAEXXZ 201178c0 f i AI_Move.obj
 0001:00116b70       ??1rvObstacle@@QAE@XZ      20117b70 f i AI_Move.obj
 0001:00116c30       ?MarkEntityForUpdate@rvObstacleFinder@@QAEXPAVidEntity@@@Z 20117c30 f i AI_Move.obj
 0001:00116e70       ??0rvObstacle@@QAE@XZ      20117e70 f i AI_Move.obj
 0001:00116ee0       ?SearchAreas_r@rvObstacle@@QAEXH@Z 20117ee0 f i AI_Move.obj
 0001:00117190       ?Update@rvObstacle@@QAE_NXZ 20118190 f i AI_Move.obj
 0001:00117de0       ?UpdateObstacles@rvObstacleFinder@@QAEXXZ 20118de0 f i AI_Move.obj
 0001:00117e80       ?PointInsideObstacle@@YAHPBUobstacle_s@@HABVidVec2@@_N@Z 20118e80 f   AI_pathing.obj
 0001:00117f10       ?HeightForTrajectory@@YAMABVidVec3@@MM@Z 20118f10 f   AI_pathing.obj
 0001:00117f50       ?Init@pathNode_s@@QAEXXZ   20118f50 f   AI_pathing.obj
 0001:00117f80       ?LineIntersectsPath@@YA_NABVidVec2@@0PBUpathNode_s@@@Z 20118f80 f   AI_pathing.obj
 0001:00118090       ?GetPointOutsideObstacles@@YAXPBUobstacle_s@@HAAVidVec2@@PAH2@Z 20119090 f   AI_pathing.obj
 0001:001185b0       ?GetFirstBlockingObstacle@@YA_NPBUobstacle_s@@HHABVidVec2@@1AAMAAH3@Z 201195b0 f   AI_pathing.obj
 0001:00118750       ?FreePathTree_r@@YAXPAUpathNode_s@@@Z 20119750 f   AI_pathing.obj
 0001:00118790       ?DrawPathTree@@YAXPBUpathNode_s@@M@Z 20119790 f   AI_pathing.obj
 0001:00118830       ?GetPathNodeDelta@@YA_NPAUpathNode_s@@PBUobstacle_s@@ABVidVec2@@_N@Z 20119830 f   AI_pathing.obj
 0001:00118a60       ?PrunePathTree@@YAXPAUpathNode_s@@ABVidVec2@@@Z 20119a60 f   AI_pathing.obj
 0001:00118b50       ?OptimizePath@@YAHPBUpathNode_s@@0PBUobstacle_s@@HQAVidVec2@@@Z 20119b50 f   AI_pathing.obj
 0001:00118db0       ?PathLength@@YAMQAVidVec2@@HABV1@@Z 20119db0 f   AI_pathing.obj
 0001:00119040       ?FindOptimalPath@@YA_NPBVidActor@@PBUpathNode_s@@PBUobstacle_s@@HMABVidVec3@@AAV4@@Z 2011a040 f   AI_pathing.obj
 0001:001194f0       ?GetObstacles@@YAHPBVidActor@@PBVidPhysics@@PBVidAAS@@PBVidEntity@@HABVidVec3@@4PAUobstacle_s@@HAAVidBounds@@@Z 2011a4f0 f   AI_pathing.obj
 0001:0011a4d0       ?FreeObstacleAvoidanceNodes@idAI@@SAXXZ 2011b4d0 f   AI_pathing.obj
 0001:0011a4e0       ?TestTrajectory@idAI@@SA_NABVidVec3@@0MMMMPBVidClipModel@@HPBVidEntity@@2H@Z 2011b4e0 f   AI_pathing.obj
 0001:0011a900       ?PredictTrajectory@idAI@@SA_NABVidVec3@@0M0PBVidClipModel@@HMPBVidEntity@@2HAAV2@@Z 2011b900 f   AI_pathing.obj
 0001:0011b020       ?PathTrace@@YA_NPBVidEntity@@PBVidAAS@@ABVidVec3@@2HAAUpathTrace_s@@AAUpredictedPath_s@@0@Z 2011c020 f   AI_pathing.obj
 0001:0011b2e0       ?PredictPath@idAI@@SA_NPBVidEntity@@PBVidAAS@@ABVidVec3@@2HHHAAUpredictedPath_s@@0@Z 2011c2e0 f   AI_pathing.obj
 0001:0011bd10       ?BuildPathTree@@YAPAUpathNode_s@@PBUobstacle_s@@HABVidBounds@@ABVidVec2@@2AAUobstaclePath_s@@@Z 2011cd10 f   AI_pathing.obj
 0001:0011c2b0       ?FindPathAroundObstacles@idAI@@SA_NPBVidPhysics@@PBVidAAS@@PBVidEntity@@ABVidVec3@@3AAUobstaclePath_s@@@Z 2011d2b0 f   AI_pathing.obj
 0001:0011c9f0       ?Free@?$idBlockAlloc@V?$idBTreeNode@V?$idDynamicBlock@E@@H@@$0IA@$01@@QAEXPAV?$idBTreeNode@V?$idDynamicBlock@E@@H@@@Z 2011d9f0 f i Event.obj
 0001:0011c9f0       ?Free@?$idBlockAlloc@UclipLink_s@@$0EAA@$0BM@@@QAEXPAUclipLink_s@@@Z 2011d9f0 f i Clip.obj
 0001:0011c9f0       ?Free@?$idBlockAlloc@Usnapshot_s@@$0EA@$0BL@@@QAEXPAUsnapshot_s@@@Z 2011d9f0 f i Game_network.obj
 0001:0011c9f0       ?Free@?$idBlockAlloc@UpathNode_s@@$0IA@$0BN@@@QAEXPAUpathNode_s@@@Z 2011d9f0 f i AI_pathing.obj
 0001:0011c9f0       ?Free@?$idBlockAlloc@UentityNetEvent_s@@$0CA@$0BE@@@QAEXPAUentityNetEvent_s@@@Z 2011d9f0 f i Game_network.obj
 0001:0011c9f0       ?Free@?$idBlockAlloc@UentityState_s@@$0BAA@$0BL@@@QAEXPAUentityState_s@@@Z 2011d9f0 f i Game_network.obj
 0001:0011ca10       ??0?$idQueueTemplate@UpathNode_s@@$0DA@@@QAE@XZ 2011da10 f i AI_pathing.obj
 0001:0011ca20       ?Add@?$idQueueTemplate@UpathNode_s@@$0DA@@@QAEXPAUpathNode_s@@@Z 2011da20 f i AI_pathing.obj
 0001:0011ca50       ?Get@?$idQueueTemplate@UpathNode_s@@$0DA@@@QAEPAUpathNode_s@@XZ 2011da50 f i AI_pathing.obj
 0001:0011ca70       ??4idBox@@QAEAAV0@ABV0@@Z  2011da70 f i AI_pathing.obj
 0001:0011cae0       ?Shutdown@?$idBlockAlloc@UpathNode_s@@$0IA@$0BN@@@QAEXXZ 2011dae0 f i AI_pathing.obj
 0001:0011cb50       ??1?$idBlockAlloc@UpathNode_s@@$0IA@$0BN@@@QAE@XZ 2011db50 f i AI_pathing.obj
 0001:0011cb60       ?Alloc@?$idBlockAlloc@UpathNode_s@@$0IA@$0BN@@@QAEPAUpathNode_s@@XZ 2011db60 f i AI_pathing.obj
 0001:0011cbf0       ?State_Remove@idAI@@IAE?AW4stateResult_t@@ABUstateParms_t@@@Z 2011dbf0 f   AI_States.obj
 0001:0011cc10       ?State_Torso_ScriptedAnim@idAI@@IAE?AW4stateResult_t@@ABUstateParms_t@@@Z 2011dc10 f   AI_States.obj
 0001:0011cc50       ?State_ScriptedMove@idAI@@IAE?AW4stateResult_t@@ABUstateParms_t@@@Z 2011dc50 f   AI_States.obj
 0001:0011cc70       ?State_ScriptedFace@idAI@@IAE?AW4stateResult_t@@ABUstateParms_t@@@Z 2011dc70 f   AI_States.obj
 0001:0011cc90       ?State_Torso_CustomCycle@idAI@@IAE?AW4stateResult_t@@ABUstateParms_t@@@Z 2011dc90 f   AI_States.obj
 0001:0011cca0       ?State_Torso_Action@idAI@@IAE?AW4stateResult_t@@ABUstateParms_t@@@Z 2011dca0 f   AI_States.obj
 0001:0011cd00       ?State_Torso_FinishAction@idAI@@IAE?AW4stateResult_t@@ABUstateParms_t@@@Z 2011dd00 f   AI_States.obj
 0001:0011cd50       ?State_Head_Idle@idAI@@IAE?AW4stateResult_t@@ABUstateParms_t@@@Z 2011dd50 f   AI_States.obj
 0001:0011cd60       ?State_Legs_Idle@idAI@@IAE?AW4stateResult_t@@ABUstateParms_t@@@Z 2011dd60 f   AI_States.obj
 0001:0011ce40       ?State_Legs_TurnLeft@idAI@@IAE?AW4stateResult_t@@ABUstateParms_t@@@Z 2011de40 f   AI_States.obj
 0001:0011ce90       ?State_Legs_TurnRight@idAI@@IAE?AW4stateResult_t@@ABUstateParms_t@@@Z 2011de90 f   AI_States.obj
 0001:0011cee0       ?State_Legs_MoveThink@idAI@@IAE?AW4stateResult_t@@ABUstateParms_t@@@Z 2011dee0 f   AI_States.obj
 0001:0011cf80       ?State_Legs_ChangeDirection@idAI@@IAE?AW4stateResult_t@@ABUstateParms_t@@@Z 2011df80 f   AI_States.obj
 0001:0011cfc0       ?State_Wait_Activated@idAI@@IAE?AW4stateResult_t@@ABUstateParms_t@@@Z 2011dfc0 f   AI_States.obj
 0001:0011cfe0       ?State_Wait_Action@idAI@@IAE?AW4stateResult_t@@ABUstateParms_t@@@Z 2011dfe0 f   AI_States.obj
 0001:0011d020       ?State_Wait_ActionNoPain@idAI@@IAE?AW4stateResult_t@@ABUstateParms_t@@@Z 2011e020 f   AI_States.obj
 0001:0011d040       ?State_Wait_ScriptedDone@idAI@@IAE?AW4stateResult_t@@ABUstateParms_t@@@Z 2011e040 f   AI_States.obj
 0001:0011d060       ?State_TriggerAnim@idAI@@IAE?AW4stateResult_t@@ABUstateParms_t@@@Z 2011e060 f   AI_States.obj
 0001:0011d0f0       ?State_WakeUp@idAI@@IAE?AW4stateResult_t@@ABUstateParms_t@@@Z 2011e0f0 f   AI_States.obj
 0001:0011d220       ?State_Wander@idAI@@IAE?AW4stateResult_t@@ABUstateParms_t@@@Z 2011e220 f   AI_States.obj
 0001:0011d290       ?State_Killed@idAI@@IAE?AW4stateResult_t@@ABUstateParms_t@@@Z 2011e290 f   AI_States.obj
 0001:0011d360       ?State_Dead@idAI@@IAE?AW4stateResult_t@@ABUstateParms_t@@@Z 2011e360 f   AI_States.obj
 0001:0011d4e0       ?State_LightningDeath@idAI@@IAE?AW4stateResult_t@@ABUstateParms_t@@@Z 2011e4e0 f   AI_States.obj
 0001:0011d620       ?State_ScriptedPlaybackMove@idAI@@IAE?AW4stateResult_t@@ABUstateParms_t@@@Z 2011e620 f   AI_States.obj
 0001:0011d650       ?State_ScriptedPlaybackAim@idAI@@IAE?AW4stateResult_t@@ABUstateParms_t@@@Z 2011e650 f   AI_States.obj
 0001:0011d680       ?State_Torso_Idle@idAI@@IAE?AW4stateResult_t@@ABUstateParms_t@@@Z 2011e680 f   AI_States.obj
 0001:0011d740       ?State_Torso_PassiveFidget@idAI@@IAE?AW4stateResult_t@@ABUstateParms_t@@@Z 2011e740 f   AI_States.obj
 0001:0011d8c0       ?State_ScriptedJumpDown@idAI@@IAE?AW4stateResult_t@@ABUstateParms_t@@@Z 2011e8c0 f   AI_States.obj
 0001:0011dae0       ?State_Torso_Sight@idAI@@IAE?AW4stateResult_t@@ABUstateParms_t@@@Z 2011eae0 f   AI_States.obj
 0001:0011dce0       ?State_Torso_Pain@idAI@@IAE?AW4stateResult_t@@ABUstateParms_t@@@Z 2011ece0 f   AI_States.obj
 0001:0011e000       ?WakeUpTargets@idAI@@QAEXXZ 2011f000 f   AI_States.obj
 0001:0011e110       ?State_Burn@idAI@@IAE?AW4stateResult_t@@ABUstateParms_t@@@Z 2011f110 f   AI_States.obj
 0001:0011e2a0       ?State_Torso_PassiveIdle@idAI@@IAE?AW4stateResult_t@@ABUstateParms_t@@@Z 2011f2a0 f   AI_States.obj
 0001:0011e8c0       ?State_Legs_Move@idAI@@IAE?AW4stateResult_t@@ABUstateParms_t@@@Z 2011f8c0 f   AI_States.obj
 0001:0011eb30       ?UpdateRunStatus@idAI@@UAE_NXZ 2011fb30 f   AI_States.obj
 0001:0011ee80       ?UpdateTactical_r@idAI@@QAE_NXZ 2011fe80 f   AI_States.obj
 0001:0011f310       ?FilterTactical@idAI@@UAEHH@Z 20120310 f   AI_States.obj
 0001:0011f6a0       ?CheckTactical@idAI@@UAE?AW4aiCTResult_t@@W4aiTactical_t@@@Z 201206a0 f   AI_States.obj
 0001:0011fc80       ?UpdateTactical@idAI@@QAE_NH@Z 20120c80 f   AI_States.obj
 0001:0011ffd0       ?State_Passive@idAI@@IAE?AW4stateResult_t@@ABUstateParms_t@@@Z 20120fd0 f   AI_States.obj
 0001:001200f0       ?State_Combat@idAI@@IAE?AW4stateResult_t@@ABUstateParms_t@@@Z 201210f0 f   AI_States.obj
 0001:001201e0       ?State_CombatCover@idAI@@IAE?AW4stateResult_t@@ABUstateParms_t@@@Z 201211e0 f   AI_States.obj
 0001:00120420       ?State_CombatMelee@idAI@@IAE?AW4stateResult_t@@ABUstateParms_t@@@Z 20121420 f   AI_States.obj
 0001:00120510       ?State_CombatRanged@idAI@@IAE?AW4stateResult_t@@ABUstateParms_t@@@Z 20121510 f   AI_States.obj
 0001:00120870       ?State_CombatTurret@idAI@@IAE?AW4stateResult_t@@ABUstateParms_t@@@Z 20121870 f   AI_States.obj
 0001:00120a90       ?State_CombatHide@idAI@@MAE?AW4stateResult_t@@ABUstateParms_t@@@Z 20121a90 f   AI_States.obj
 0001:00120b00       ?State_MoveTether@idAI@@IAE?AW4stateResult_t@@ABUstateParms_t@@@Z 20121b00 f   AI_States.obj
 0001:00120d90       ?State_MoveFollow@idAI@@IAE?AW4stateResult_t@@ABUstateParms_t@@@Z 20121d90 f   AI_States.obj
 0001:00121000       ?State_MovePlayerPush@idAI@@IAE?AW4stateResult_t@@ABUstateParms_t@@@Z 20122000 f   AI_States.obj
 0001:001210b0       ?State_ScriptedStop@idAI@@IAE?AW4stateResult_t@@ABUstateParms_t@@@Z 201220b0 f   AI_States.obj
 0001:00121110       ?GetClassType@rvAITactical@@SAAAVidTypeInfo@@XZ 20122110 f   AI_Tactical.obj
 0001:00121120       ?GetType@rvAITactical@@UBEPAVidTypeInfo@@XZ 20122120 f   AI_Tactical.obj
 0001:00121130       ?Save@rvAITactical@@QBEXPAVidSaveGame@@@Z 20122130 f   AI_Tactical.obj
 0001:001211e0       ?CheckAction_Reload@rvAITactical@@AAE_NPAVrvAIAction@@H@Z 201221e0 f   AI_Tactical.obj
 0001:001211f0       ?GetIdleAnimName@rvAITactical@@MAEPBDXZ 201221f0 f   AI_Tactical.obj
 0001:00121200       ?UpdateAnimPrefix@rvAITactical@@IAEXXZ 20122200 f   AI_Tactical.obj
 0001:00121230       ?InitPostureInfo@rvAITactical@@IAEXXZ 20122230 f   AI_Tactical.obj
 0001:001212e0       ?OnPostureChange@rvAITactical@@MAEXXZ 201222e0 f   AI_Tactical.obj
 0001:001212f0       ?OnSetKey@rvAITactical@@MAEXPBD0@Z 201222f0 f   AI_Tactical.obj
 0001:00121300       ?UseAmmo@rvAITactical@@IAEXH@Z 20122300 f   AI_Tactical.obj
 0001:00121330       ?GetDebugInfo@rvAITactical@@UAEXP6AXPBD00PAX@Z1@Z 20122330 f   AI_Tactical.obj
 0001:00121460       ?State_Torso_Cover_LeanLeftAttack@rvAITactical@@AAE?AW4stateResult_t@@ABUstateParms_t@@@Z 20122460 f   AI_Tactical.obj
 0001:00121490       ?State_Torso_Cover_LeanRightAttack@rvAITactical@@AAE?AW4stateResult_t@@ABUstateParms_t@@@Z 20122490 f   AI_Tactical.obj
 0001:001214c0       ?State_Torso_Cover_Peek@rvAITactical@@AAE?AW4stateResult_t@@ABUstateParms_t@@@Z 201224c0 f   AI_Tactical.obj
 0001:00121530       ?State_Frame_Peek@rvAITactical@@AAE?AW4stateResult_t@@ABUstateParms_t@@@Z 20122530 f   AI_Tactical.obj
 0001:00121540       ?Event_ForcePosture@rvAITactical@@AAEXH@Z 20122540 f   AI_Tactical.obj
 0001:00121550       ?IsCrouching@rvAITactical@@UBE_NXZ 20122550 f   AI_Tactical.obj
 0001:00121580       ?InitSpawnArgsVariables@rvAITactical@@QAEXXZ 20122580 f   AI_Tactical.obj
 0001:001216a0       ?Restore@rvAITactical@@QAEXPAVidRestoreGame@@@Z 201226a0 f   AI_Tactical.obj
 0001:00121770       ?CanTurn@rvAITactical@@UBE_NXZ 20122770 f   AI_Tactical.obj
 0001:001217c0       ?CanMove@rvAITactical@@UBE_NXZ 201227c0 f   AI_Tactical.obj
 0001:00121800       ?CheckRelaxed@rvAITactical@@IBE_NXZ 20122800 f   AI_Tactical.obj
 0001:00121860       ?OnStopMoving@rvAITactical@@MAEXW4aiMoveCommand_t@@@Z 20122860 f   AI_Tactical.obj
 0001:001219c0       ?CalculateShots@rvAITactical@@IAEXPBD@Z 201229c0 f   AI_Tactical.obj
 0001:00121a90       ?State_Torso_SetPosture@rvAITactical@@AAE?AW4stateResult_t@@ABUstateParms_t@@@Z 20122a90 f   AI_Tactical.obj
 0001:00121d00       ?State_Torso_RangedAttack@rvAITactical@@AAE?AW4stateResult_t@@ABUstateParms_t@@@Z 20122d00 f   AI_Tactical.obj
 0001:00121ed0       ?State_Torso_MovingRangedAttack@rvAITactical@@AAE?AW4stateResult_t@@ABUstateParms_t@@@Z 20122ed0 f   AI_Tactical.obj
 0001:00121fa0       ?State_Torso_Reload@rvAITactical@@AAE?AW4stateResult_t@@ABUstateParms_t@@@Z 20122fa0 f   AI_Tactical.obj
 0001:00122040       ?State_Torso_Cover_LeanAttack@rvAITactical@@AAE?AW4stateResult_t@@ABUstateParms_t@@@Z 20123040 f   AI_Tactical.obj
 0001:00122190       ?Event_PostSpawn@rvAITactical@@EAEXXZ 20123190 f   AI_Tactical.obj
 0001:00122230       ?CheckActions@rvAITactical@@UAE_NXZ 20123230 f   AI_Tactical.obj
 0001:00122570       ?UpdatePosture@rvAITactical@@IAE_NXZ 20123570 f   AI_Tactical.obj
 0001:001229e0       ?Spawn@rvAITactical@@QAEXXZ 201239e0 f   AI_Tactical.obj
 0001:00122b00       ?Think@rvAITactical@@UAEXXZ 20123b00 f   AI_Tactical.obj
 0001:00122e80       ??0rvAITactical@@QAE@XZ    20123e80 f   AI_Tactical.obj
 0001:00122f00       ?CreateInstance@rvAITactical@@SAPAVidClass@@XZ 20123f00 f   AI_Tactical.obj
 0001:00122fa0       ?RegisterClassA@rvAITactical@@SAXXZ 20123fa0 f   AI_Tactical.obj
 0001:00123030       ?Register_rvAITactical@@YAXXZ 20124030 f   AI_Tactical.obj
 0001:00123040       ??_9rvAITactical@@$BCHM@AE 20124040 f i AI_Tactical.obj
 0001:00123040       ??_9idAI@@$BCHM@AE         20124040 f i AI_events.obj
 0001:00123050       ??_GrvAITactical@@UAEPAXI@Z 20124050 f i AI_Tactical.obj
 0001:00123050       ??_ErvAITactical@@UAEPAXI@Z 20124050 f i AI_Tactical.obj
 0001:001230c0       ?GetClassType@rvAIHelper@@SAAAVidTypeInfo@@XZ 201240c0 f   AI_Util.obj
 0001:001230d0       ?GetType@rvAIHelper@@UBEPAVidTypeInfo@@XZ 201240d0 f   AI_Util.obj
 0001:001230e0       ?IsCombat@rvAIHelper@@UBE_NXZ 201240e0 f   AI_Util.obj
 0001:001230f0       ?OnActivate@rvAIHelper@@MAEX_N@Z 201240f0 f   AI_Util.obj
 0001:00123110       ?ValidateDestination@rvAIHelper@@UBE_NPBVidAI@@ABVidVec3@@@Z 20124110 f   AI_Util.obj
 0001:00123120       ?GetClassType@rvAICombatHelper@@SAAAVidTypeInfo@@XZ 20124120 f   AI_Util.obj
 0001:00123130       ?GetType@rvAICombatHelper@@UBEPAVidTypeInfo@@XZ 20124130 f   AI_Util.obj
 0001:00123140       ?Spawn@rvAICombatHelper@@QAEXXZ 20124140 f   AI_Util.obj
 0001:00123150       ?IsCombat@rvAICombatHelper@@UBE_NXZ 20124150 f   AI_Util.obj
 0001:00123160       ?GetClassType@rvAIAvoid@@SAAAVidTypeInfo@@XZ 20124160 f   AI_Util.obj
 0001:00123170       ?GetType@rvAIAvoid@@UBEPAVidTypeInfo@@XZ 20124170 f   AI_Util.obj
 0001:00123180       ??0rvAIAvoid@@QAE@XZ       20124180 f   AI_Util.obj
 0001:001231a0       ?GetClassType@rvAITrigger@@SAAAVidTypeInfo@@XZ 201241a0 f   AI_Util.obj
 0001:001231b0       ?GetType@rvAITrigger@@UBEPAVidTypeInfo@@XZ 201241b0 f   AI_Util.obj
 0001:001231c0       ?GetClassType@rvAITether@@SAAAVidTypeInfo@@XZ 201241c0 f   AI_Util.obj
 0001:001231d0       ?GetType@rvAITether@@UBEPAVidTypeInfo@@XZ 201241d0 f   AI_Util.obj
 0001:001231e0       ?ValidateAAS@rvAITether@@UAE_NPAVidAI@@@Z 201241e0 f   AI_Util.obj
 0001:00123200       ?ValidateBounds@rvAITether@@UAE_NABVidBounds@@@Z 20124200 f   AI_Util.obj
 0001:00123210       ?GetClassType@rvAITetherBehind@@SAAAVidTypeInfo@@XZ 20124210 f   AI_Util.obj
 0001:00123220       ?GetType@rvAITetherBehind@@UBEPAVidTypeInfo@@XZ 20124220 f   AI_Util.obj
 0001:00123230       ?GetClassType@rvAITetherRadius@@SAAAVidTypeInfo@@XZ 20124230 f   AI_Util.obj
 0001:00123240       ?GetType@rvAITetherRadius@@UBEPAVidTypeInfo@@XZ 20124240 f   AI_Util.obj
 0001:00123250       ?GetClassType@rvAITetherClear@@SAAAVidTypeInfo@@XZ 20124250 f   AI_Util.obj
 0001:00123260       ?GetType@rvAITetherClear@@UBEPAVidTypeInfo@@XZ 20124260 f   AI_Util.obj
 0001:00123270       ?GetClassType@rvAIBecomePassive@@SAAAVidTypeInfo@@XZ 20124270 f   AI_Util.obj
 0001:00123280       ?GetType@rvAIBecomePassive@@UBEPAVidTypeInfo@@XZ 20124280 f   AI_Util.obj
 0001:00123290       ?GetClassType@rvAIBecomeAggressive@@SAAAVidTypeInfo@@XZ 20124290 f   AI_Util.obj
 0001:001232a0       ?GetType@rvAIBecomeAggressive@@UBEPAVidTypeInfo@@XZ 201242a0 f   AI_Util.obj
 0001:001232b0       ?Spawn@rvAIHelper@@QAEXXZ  201242b0 f   AI_Util.obj
 0001:00123300       ?Event_Activate@rvAIHelper@@AAEXPAVidEntity@@@Z 20124300 f   AI_Util.obj
 0001:00123350       ?GetDirection@rvAIHelper@@QBE?AVidVec3@@PBVidAI@@@Z 20124350 f   AI_Util.obj
 0001:001233b0       ?OnActivate@rvAICombatHelper@@MAEX_N@Z 201243b0 f   AI_Util.obj
 0001:00123440       ?CreateInstance@rvAIAvoid@@SAPAVidClass@@XZ 20124440 f   AI_Util.obj
 0001:001234e0       ?Spawn@rvAITrigger@@QAEXXZ 201244e0 f   AI_Util.obj
 0001:00123690       ?Save@rvAITrigger@@QBEXPAVidSaveGame@@@Z 20124690 f   AI_Util.obj
 0001:00123760       ?InitNonPersistentSpawnArgs@rvAITether@@QAEXXZ 20124760 f   AI_Util.obj
 0001:00123930       ?Spawn@rvAITether@@QAEXXZ  20124930 f   AI_Util.obj
 0001:00123950       ?Event_TetherGetLocation@rvAITether@@AAEXXZ 20124950 f   AI_Util.obj
 0001:00123a30       ?Save@rvAITether@@QBEXPAVidSaveGame@@@Z 20124a30 f   AI_Util.obj
 0001:00123a50       ?Restore@rvAITether@@QAEXPAVidRestoreGame@@@Z 20124a50 f   AI_Util.obj
 0001:00123a80       ?FindGoal@rvAITether@@UAE_NPAVidAI@@AAUaasGoal_s@@@Z 20124a80 f   AI_Util.obj
 0001:00123ba0       ?DebugDraw@rvAITether@@UAEXXZ 20124ba0 f   AI_Util.obj
 0001:00123e40       ?InitNonPersistentSpawnArgs@rvAITetherBehind@@QAEXXZ 20124e40 f   AI_Util.obj
 0001:00123e90       ?Spawn@rvAITetherBehind@@QAEXXZ 20124e90 f   AI_Util.obj
 0001:00123ea0       ?Restore@rvAITetherBehind@@QAEXPAVidRestoreGame@@@Z 20124ea0 f   AI_Util.obj
 0001:00123eb0       ?ValidateBounds@rvAITetherBehind@@UAE_NABVidBounds@@@Z 20124eb0 f   AI_Util.obj
 0001:00123f60       ?DebugDraw@rvAITetherBehind@@UAEXXZ 20124f60 f   AI_Util.obj
 0001:001241e0       ?InitNonPersistentSpawnArgs@rvAITetherRadius@@QAEXXZ 201251e0 f   AI_Util.obj
 0001:00124240       ?Spawn@rvAITetherRadius@@QAEXXZ 20125240 f   AI_Util.obj
 0001:00124250       ?Restore@rvAITetherRadius@@QAEXPAVidRestoreGame@@@Z 20125250 f   AI_Util.obj
 0001:00124260       ?ValidateBounds@rvAITetherRadius@@UAE_NABVidBounds@@@Z 20125260 f   AI_Util.obj
 0001:001242d0       ?DebugDraw@rvAITetherRadius@@UAEXXZ 201252d0 f   AI_Util.obj
 0001:00124340       ?CreateInstance@rvAIBecomePassive@@SAPAVidClass@@XZ 20125340 f   AI_Util.obj
 0001:001243f0       ?CreateInstance@rvAIBecomeAggressive@@SAPAVidClass@@XZ 201253f0 f   AI_Util.obj
 0001:001244a0       ?ValidateDestination@rvAICombatHelper@@UBE_NPBVidAI@@ABVidVec3@@@Z 201254a0 f   AI_Util.obj
 0001:001246d0       ??0rvAITether@@QAE@XZ      201256d0 f   AI_Util.obj
 0001:00124730       ?Event_TetherSetupLocation@rvAITether@@AAEXXZ 20125730 f   AI_Util.obj
 0001:001248f0       ?ValidateDestination@rvAITether@@UAE_NPAVidAI@@ABVidVec3@@@Z 201258f0 f   AI_Util.obj
 0001:001249b0       ?Event_Activate@rvAITether@@AAEXPAVidEntity@@@Z 201259b0 f   AI_Util.obj
 0001:00124c40       ?ValidateDestination@rvAITetherBehind@@UAE_NPAVidAI@@ABVidVec3@@@Z 20125c40 f   AI_Util.obj
 0001:00124e70       ?ValidateDestination@rvAITetherRadius@@UAE_NPAVidAI@@ABVidVec3@@@Z 20125e70 f   AI_Util.obj
 0001:00124f30       ?RegisterClassA@rvAIBecomePassive@@SAXXZ 20125f30 f   AI_Util.obj
 0001:00124fc0       ?Register_rvAIBecomePassive@@YAXXZ 20125fc0 f   AI_Util.obj
 0001:00124fd0       ?Event_Activate@rvAIBecomePassive@@AAEXPAVidEntity@@@Z 20125fd0 f   AI_Util.obj
 0001:00125100       ?RegisterClassA@rvAIBecomeAggressive@@SAXXZ 20126100 f   AI_Util.obj
 0001:00125190       ?Register_rvAIBecomeAggressive@@YAXXZ 20126190 f   AI_Util.obj
 0001:001251a0       ?Event_Activate@rvAIBecomeAggressive@@AAEXPAVidEntity@@@Z 201261a0 f   AI_Util.obj
 0001:00125290       ??0rvAIHelper@@QAE@XZ      20126290 f   AI_Util.obj
 0001:001252c0       ??0rvAICombatHelper@@QAE@XZ 201262c0 f   AI_Util.obj
 0001:001252e0       ??0rvAITrigger@@QAE@XZ     201262e0 f   AI_Util.obj
 0001:00125350       ?Restore@rvAITrigger@@QAEXPAVidRestoreGame@@@Z 20126350 f   AI_Util.obj
 0001:00125750       ?Think@rvAITrigger@@UAEXXZ 20126750 f   AI_Util.obj
 0001:00125980       ?FindTargets@rvAITrigger@@UAEXXZ 20126980 f   AI_Util.obj
 0001:00126120       ?Event_Activate@rvAITrigger@@AAEXPAVidEntity@@@Z 20127120 f   AI_Util.obj
 0001:001264b0       ?Event_AppendFromSpawner@rvAITrigger@@AAEXPAVrvSpawner@@PAVidEntity@@@Z 201274b0 f   AI_Util.obj
 0001:00126800       ?CreateInstance@rvAITether@@SAPAVidClass@@XZ 20127800 f   AI_Util.obj
 0001:001268a0       ?CreateInstance@rvAITetherBehind@@SAPAVidClass@@XZ 201278a0 f   AI_Util.obj
 0001:00126950       ?CreateInstance@rvAITetherRadius@@SAPAVidClass@@XZ 20127950 f   AI_Util.obj
 0001:00126a00       ?CreateInstance@rvAITetherClear@@SAPAVidClass@@XZ 20127a00 f   AI_Util.obj
 0001:00126ab0       ?CreateInstance@rvAIHelper@@SAPAVidClass@@XZ 20127ab0 f   AI_Util.obj
 0001:00126b50       ?CreateInstance@rvAICombatHelper@@SAPAVidClass@@XZ 20127b50 f   AI_Util.obj
 0001:00126bf0       ?Spawn@rvAIAvoid@@QAEXXZ   20127bf0 f   AI_Util.obj
 0001:00126f00       ?CreateInstance@rvAITrigger@@SAPAVidClass@@XZ 20127f00 f   AI_Util.obj
 0001:00126fa0       ?RegisterClassA@rvAITether@@SAXXZ 20127fa0 f   AI_Util.obj
 0001:00127030       ?Register_rvAITether@@YAXXZ 20128030 f   AI_Util.obj
 0001:00127040       ?RegisterClassA@rvAITetherBehind@@SAXXZ 20128040 f   AI_Util.obj
 0001:001270d0       ?Register_rvAITetherBehind@@YAXXZ 201280d0 f   AI_Util.obj
 0001:001270e0       ?RegisterClassA@rvAITetherRadius@@SAXXZ 201280e0 f   AI_Util.obj
 0001:00127170       ?Register_rvAITetherRadius@@YAXXZ 20128170 f   AI_Util.obj
 0001:00127180       ?RegisterClassA@rvAITetherClear@@SAXXZ 20128180 f   AI_Util.obj
 0001:00127210       ?Register_rvAITetherClear@@YAXXZ 20128210 f   AI_Util.obj
 0001:00127220       ?RegisterClassA@rvAIHelper@@SAXXZ 20128220 f   AI_Util.obj
 0001:001272b0       ?Register_rvAIHelper@@YAXXZ 201282b0 f   AI_Util.obj
 0001:001272c0       ?RegisterClassA@rvAICombatHelper@@SAXXZ 201282c0 f   AI_Util.obj
 0001:00127350       ?Register_rvAICombatHelper@@YAXXZ 20128350 f   AI_Util.obj
 0001:00127360       ?RegisterClassA@rvAIAvoid@@SAXXZ 20128360 f   AI_Util.obj
 0001:001273f0       ?Register_rvAIAvoid@@YAXXZ 201283f0 f   AI_Util.obj
 0001:00127400       ?RegisterClassA@rvAITrigger@@SAXXZ 20128400 f   AI_Util.obj
 0001:00127490       ?Register_rvAITrigger@@YAXXZ 20128490 f   AI_Util.obj
 0001:001274a0       ??1rvAITether@@UAE@XZ      201284a0 f i AI_Util.obj
 0001:00127530       ?GetOriginReachedRange@rvAITether@@UAEMXZ 20128530 f i AI_Util.obj
 0001:00127540       ??_GrvAITetherClear@@UAEPAXI@Z 20128540 f i AI_Util.obj
 0001:00127540       ??_GrvAITetherBehind@@UAEPAXI@Z 20128540 f i AI_Util.obj
 0001:00127540       ??_ErvAITether@@UAEPAXI@Z  20128540 f i AI_Util.obj
 0001:00127540       ??_ErvAITetherBehind@@UAEPAXI@Z 20128540 f i AI_Util.obj
 0001:00127540       ??_GrvAITether@@UAEPAXI@Z  20128540 f i AI_Util.obj
 0001:00127540       ??_ErvAITetherRadius@@UAEPAXI@Z 20128540 f i AI_Util.obj
 0001:00127540       ??_GrvAITetherRadius@@UAEPAXI@Z 20128540 f i AI_Util.obj
 0001:00127540       ??_ErvAITetherClear@@UAEPAXI@Z 20128540 f i AI_Util.obj
 0001:00127570       ??1rvAITrigger@@UAE@XZ     20128570 f i AI_Util.obj
 0001:00127640       ??_ErvAIHelper@@UAEPAXI@Z  20128640 f i AI_Util.obj
 0001:00127640       ??_GrvAIHelper@@UAEPAXI@Z  20128640 f i AI_Util.obj
 0001:00127640       ??_ErvAICombatHelper@@UAEPAXI@Z 20128640 f i AI_Util.obj
 0001:00127640       ??_GrvAICombatHelper@@UAEPAXI@Z 20128640 f i AI_Util.obj
 0001:00127670       ??_ErvAITrigger@@UAEPAXI@Z 20128670 f i AI_Util.obj
 0001:00127670       ??_GrvAITrigger@@UAEPAXI@Z 20128670 f i AI_Util.obj
 0001:001276a0       ?GetClassType@rvMonsterBerserker@@SAAAVidTypeInfo@@XZ 201286a0 f   Monster_Berserker.obj
 0001:001276b0       ?GetType@rvMonsterBerserker@@UBEPAVidTypeInfo@@XZ 201286b0 f   Monster_Berserker.obj
 0001:001276c0       ?Save@rvMonsterBerserker@@QBEXPAVidSaveGame@@@Z 201286c0 f   Monster_Berserker.obj
 0001:00127710       ?Restore@rvMonsterBerserker@@QAEXPAVidRestoreGame@@@Z 20128710 f   Monster_Berserker.obj
 0001:00127760       ?FilterTactical@rvMonsterBerserker@@MAEHH@Z 20128760 f   Monster_Berserker.obj
 0001:001277c0       ?OnTacticalChange@rvMonsterBerserker@@MAEXW4aiTactical_t@@@Z 201287c0 f   Monster_Berserker.obj
 0001:001277f0       ?GetDebugInfo@rvMonsterBerserker@@UAEXP6AXPBD00PAX@Z1@Z 201287f0 f   Monster_Berserker.obj
 0001:00127850       ?State_Torso_ChargeAttack@rvMonsterBerserker@@AAE?AW4stateResult_t@@ABUstateParms_t@@@Z 20128850 f   Monster_Berserker.obj
 0001:00127900       ?State_Torso_Pain@rvMonsterBerserker@@AAE?AW4stateResult_t@@ABUstateParms_t@@@Z 20128900 f   Monster_Berserker.obj
 0001:00127930       ?State_Killed@rvMonsterBerserker@@AAE?AW4stateResult_t@@ABUstateParms_t@@@Z 20128930 f   Monster_Berserker.obj
 0001:00127970       ?Spawn@rvMonsterBerserker@@QAEXXZ 20128970 f   Monster_Berserker.obj
 0001:00127a40       ?Berz_CanHitEnemyFromAnim@rvMonsterBerserker@@AAE_NH@Z 20128a40 f   Monster_Berserker.obj
 0001:00127d10       ?Pain@rvMonsterBerserker@@UAE_NPAVidEntity@@0HABVidVec3@@H@Z 20128d10 f   Monster_Berserker.obj
 0001:00127d50       ?CheckPainActions@rvMonsterBerserker@@MAE_NXZ 20128d50 f   Monster_Berserker.obj
 0001:00127df0       ?Frame_DoBlastAttack@rvMonsterBerserker@@AAE?AW4stateResult_t@@ABUstateParms_t@@@Z 20128df0 f   Monster_Berserker.obj
 0001:00127ee0       ?CheckAction_ChargeAttack@rvMonsterBerserker@@AAE_NPAVrvAIAction@@H@Z 20128ee0 f   Monster_Berserker.obj
 0001:001280f0       ?CheckAction_RangedAttack@rvMonsterBerserker@@EAE_NPAVrvAIAction@@H@Z 201290f0 f   Monster_Berserker.obj
 0001:00128260       ?CheckActions@rvMonsterBerserker@@MAE_NXZ 20129260 f   Monster_Berserker.obj
 0001:001283c0       ?Frame_ChargeGroundImpact@rvMonsterBerserker@@AAE?AW4stateResult_t@@ABUstateParms_t@@@Z 201293c0 f   Monster_Berserker.obj
 0001:00128490       ??0rvMonsterBerserker@@QAE@XZ 20129490 f   Monster_Berserker.obj
 0001:00128500       ?CreateInstance@rvMonsterBerserker@@SAPAVidClass@@XZ 20129500 f   Monster_Berserker.obj
 0001:001285a0       ?RegisterClassA@rvMonsterBerserker@@SAXXZ 201295a0 f   Monster_Berserker.obj
 0001:00128630       ?Register_rvMonsterBerserker@@YAXXZ 20129630 f   Monster_Berserker.obj
 0001:00128640       ??_9idAI@@$BCII@AE         20129640 f i AI_Actions.obj
 0001:00128640       ??_9rvMonsterBerserker@@$BCII@AE 20129640 f i Monster_Berserker.obj
 0001:00128650       ??_GrvMonsterBerserker@@UAEPAXI@Z 20129650 f i Monster_Berserker.obj
 0001:00128650       ??_ErvMonsterBerserker@@UAEPAXI@Z 20129650 f i Monster_Berserker.obj
 0001:001286c0       ?Save@rvMonsterBossBuddy@@QBEXPAVidSaveGame@@@Z 201296c0 f   Monster_BossBuddy.obj
 0001:001287a0       ?GetDebugInfo@rvMonsterBossBuddy@@UAEXP6AXPBD00PAX@Z1@Z 201297a0 f   Monster_BossBuddy.obj
 0001:00128830       ?GetClassType@rvMonsterBossBuddy@@SAAAVidTypeInfo@@XZ 20129830 f   Monster_BossBuddy.obj
 0001:00128840       ?GetType@rvMonsterBossBuddy@@UBEPAVidTypeInfo@@XZ 20129840 f   Monster_BossBuddy.obj
 0001:00128850       ?Event_RechargeShields@rvMonsterBossBuddy@@AAEXM@Z 20129850 f   Monster_BossBuddy.obj
 0001:001288c0       ?AdjustShieldState@rvMonsterBossBuddy@@IAEX_N@Z 201298c0 f   Monster_BossBuddy.obj
 0001:00128960       ?OnWakeUp@rvMonsterBossBuddy@@UAEXXZ 20129960 f   Monster_BossBuddy.obj
 0001:001289c0       ?State_Torso_SlashAttack@rvMonsterBossBuddy@@AAE?AW4stateResult_t@@ABUstateParms_t@@@Z 201299c0 f   Monster_BossBuddy.obj
 0001:00128a60       ?State_Torso_TurnRight90@rvMonsterBossBuddy@@AAE?AW4stateResult_t@@ABUstateParms_t@@@Z 20129a60 f   Monster_BossBuddy.obj
 0001:00128b10       ?State_Torso_TurnLeft90@rvMonsterBossBuddy@@AAE?AW4stateResult_t@@ABUstateParms_t@@@Z 20129b10 f   Monster_BossBuddy.obj
 0001:00128bc0       ?InitSpawnArgsVariables@rvMonsterBossBuddy@@QAEXXZ 20129bc0 f   Monster_BossBuddy.obj
 0001:00128c20       ?Spawn@rvMonsterBossBuddy@@QAEXXZ 20129c20 f   Monster_BossBuddy.obj
 0001:00128d10       ?Restore@rvMonsterBossBuddy@@QAEXPAVidRestoreGame@@@Z 20129d10 f   Monster_BossBuddy.obj
 0001:00128df0       ?ReduceShields@rvMonsterBossBuddy@@IAEXH@Z 20129df0 f   Monster_BossBuddy.obj
 0001:00128eb0       ?Think@rvMonsterBossBuddy@@UAEXXZ 20129eb0 f   Monster_BossBuddy.obj
 0001:00128fb0       ?Damage@rvMonsterBossBuddy@@UAEXPAVidEntity@@0ABVidVec3@@PBDMH@Z 20129fb0 f   Monster_BossBuddy.obj
 0001:001290d0       ?Pain@rvMonsterBossBuddy@@UAE_NPAVidEntity@@0HABVidVec3@@H@Z 2012a0d0 f   Monster_BossBuddy.obj
 0001:001291e0       ?CheckActions@rvMonsterBossBuddy@@MAE_NXZ 2012a1e0 f   Monster_BossBuddy.obj
 0001:00129280       ?CanTurn@rvMonsterBossBuddy@@UBE_NXZ 2012a280 f   Monster_BossBuddy.obj
 0001:001292b0       ?State_Torso_RocketAttack@rvMonsterBossBuddy@@AAE?AW4stateResult_t@@ABUstateParms_t@@@Z 2012a2b0 f   Monster_BossBuddy.obj
 0001:00129530       ??0rvMonsterBossBuddy@@QAE@XZ 2012a530 f   Monster_BossBuddy.obj
 0001:00129610       ?CreateInstance@rvMonsterBossBuddy@@SAPAVidClass@@XZ 2012a610 f   Monster_BossBuddy.obj
 0001:001296b0       ?RegisterClassA@rvMonsterBossBuddy@@SAXXZ 2012a6b0 f   Monster_BossBuddy.obj
 0001:00129740       ?Register_rvMonsterBossBuddy@@YAXXZ 2012a740 f   Monster_BossBuddy.obj
 0001:00129750       ??1rvMonsterBossBuddy@@UAE@XZ 2012a750 f i Monster_BossBuddy.obj
 0001:00129810       ??_ErvMonsterBossBuddy@@UAEPAXI@Z 2012a810 f i Monster_BossBuddy.obj
 0001:00129810       ??_GrvMonsterBossBuddy@@UAEPAXI@Z 2012a810 f i Monster_BossBuddy.obj
 0001:00129840       ?GetClassType@rvMonsterBossMakron@@SAAAVidTypeInfo@@XZ 2012a840 f   Monster_BossMakron.obj
 0001:00129850       ?GetType@rvMonsterBossMakron@@UBEPAVidTypeInfo@@XZ 2012a850 f   Monster_BossMakron.obj
 0001:00129860       ?BuildActionArray@rvMonsterBossMakron@@QAEXXZ 2012a860 f   Monster_BossMakron.obj
 0001:001298f0       ?PerformAction@rvMonsterBossMakron@@IAEXPBDH_N@Z 2012a8f0 f   Monster_BossMakron.obj
 0001:00129970       ?PerformAction@rvMonsterBossMakron@@IAE_NPAVrvAIAction@@P8idAI@@AE_N0H@ZPAVrvAIActionTimer@@@Z 2012a970 f   Monster_BossMakron.obj
 0001:00129980       ?OnStopAction@rvMonsterBossMakron@@MAEXXZ 2012a980 f   Monster_BossMakron.obj
 0001:00129990       ?Damage@rvMonsterBossMakron@@MAEXPAVidEntity@@0ABVidVec3@@PBDMH@Z 2012a990 f   Monster_BossMakron.obj
 0001:001299c0       ?CompleteSeparation@rvMonsterBossMakron@@IAEXXZ 2012a9c0 f   Monster_BossMakron.obj
 0001:00129a70       ?Event_AllowMoreSpawns@rvMonsterBossMakron@@IAEXXZ 2012aa70 f   Monster_BossMakron.obj
 0001:00129a80       ?Event_EnablePatternMode@rvMonsterBossMakron@@IAEXXZ 2012aa80 f   Monster_BossMakron.obj
 0001:00129aa0       ?Event_DisablePatternMode@rvMonsterBossMakron@@IAEXXZ 2012aaa0 f   Monster_BossMakron.obj
 0001:00129ab0       ?Event_FlyingRotate@rvMonsterBossMakron@@IAEXAAVidVec3@@@Z 2012aab0 f   Monster_BossMakron.obj
 0001:00129af0       ?Event_SetNextAction@rvMonsterBossMakron@@IAEXPBD@Z 2012aaf0 f   Monster_BossMakron.obj
 0001:00129d50       ?State_Torso_DMGAttack@rvMonsterBossMakron@@IAE?AW4stateResult_t@@ABUstateParms_t@@@Z 2012ad50 f   Monster_BossMakron.obj
 0001:00129db0       ?State_Torso_Charge@rvMonsterBossMakron@@IAE?AW4stateResult_t@@ABUstateParms_t@@@Z 2012adb0 f   Monster_BossMakron.obj
 0001:00129e10       ?State_Torso_FirstDeath@rvMonsterBossMakron@@IAE?AW4stateResult_t@@ABUstateParms_t@@@Z 2012ae10 f   Monster_BossMakron.obj
 0001:00129e70       ?State_Torso_StompAttack@rvMonsterBossMakron@@IAE?AW4stateResult_t@@ABUstateParms_t@@@Z 2012ae70 f   Monster_BossMakron.obj
 0001:00129ef0       ?State_Torso_Teleport@rvMonsterBossMakron@@IAE?AW4stateResult_t@@ABUstateParms_t@@@Z 2012aef0 f   Monster_BossMakron.obj
 0001:00129f80       ?State_Torso_GrenadeAttack@rvMonsterBossMakron@@IAE?AW4stateResult_t@@ABUstateParms_t@@@Z 2012af80 f   Monster_BossMakron.obj
 0001:0012a010       ?State_Torso_Recharge@rvMonsterBossMakron@@IAE?AW4stateResult_t@@ABUstateParms_t@@@Z 2012b010 f   Monster_BossMakron.obj
 0001:0012a030       ?State_Torso_MeleeAttack@rvMonsterBossMakron@@IAE?AW4stateResult_t@@ABUstateParms_t@@@Z 2012b030 f   Monster_BossMakron.obj
 0001:0012a090       ?State_Torso_TurnRight90@rvMonsterBossMakron@@IAE?AW4stateResult_t@@ABUstateParms_t@@@Z 2012b090 f   Monster_BossMakron.obj
 0001:0012a140       ?State_Torso_TurnLeft90@rvMonsterBossMakron@@IAE?AW4stateResult_t@@ABUstateParms_t@@@Z 2012b140 f   Monster_BossMakron.obj
 0001:0012a1f0       ?State_Torso_KillPlayer@rvMonsterBossMakron@@IAE?AW4stateResult_t@@ABUstateParms_t@@@Z 2012b1f0 f   Monster_BossMakron.obj
 0001:0012a300       ?State_Torso_CannonSweepAttack@rvMonsterBossMakron@@IAE?AW4stateResult_t@@ABUstateParms_t@@@Z 2012b300 f   Monster_BossMakron.obj
 0001:0012a360       ?Frame_BeginLightningSweep2@rvMonsterBossMakron@@IAE?AW4stateResult_t@@ABUstateParms_t@@@Z 2012b360 f   Monster_BossMakron.obj
 0001:0012a390       ?Frame_EndLightningSweep2@rvMonsterBossMakron@@IAE?AW4stateResult_t@@ABUstateParms_t@@@Z 2012b390 f   Monster_BossMakron.obj
 0001:0012a3a0       ?Frame_Teleport@rvMonsterBossMakron@@IAE?AW4stateResult_t@@ABUstateParms_t@@@Z 2012b3a0 f   Monster_BossMakron.obj
 0001:0012a3d0       ?Event_ToggleCornerState@rvMonsterBossMakron@@IAEXM@Z 2012b3d0 f   Monster_BossMakron.obj
 0001:0012a400       ?Save@rvMonsterBossMakron@@QBEXPAVidSaveGame@@@Z 2012b400 f   Monster_BossMakron.obj
 0001:0012a6a0       ?InitSpawnArgsVariables@rvMonsterBossMakron@@QAEXXZ 2012b6a0 f   Monster_BossMakron.obj
 0001:0012a7d0       ?Spawn@rvMonsterBossMakron@@QAEXXZ 2012b7d0 f   Monster_BossMakron.obj
 0001:0012aa40       ?CheckTurnActions@rvMonsterBossMakron@@IAE_NXZ 2012ba40 f   Monster_BossMakron.obj
 0001:0012ab70       ?PerformPatternedAction@rvMonsterBossMakron@@IAEXXZ 2012bb70 f   Monster_BossMakron.obj
 0001:0012aca0       ?CanTurn@rvMonsterBossMakron@@UBE_NXZ 2012bca0 f   Monster_BossMakron.obj
 0001:0012ad20       ?State_ScriptedFace@rvMonsterBossMakron@@IAE?AW4stateResult_t@@ABUstateParms_t@@@Z 2012bd20 f   Monster_BossMakron.obj
 0001:0012ad80       ?State_Torso_Resurrection@rvMonsterBossMakron@@IAE?AW4stateResult_t@@ABUstateParms_t@@@Z 2012bd80 f   Monster_BossMakron.obj
 0001:0012aea0       ?State_Torso_RotateToAngle@rvMonsterBossMakron@@IAE?AW4stateResult_t@@ABUstateParms_t@@@Z 2012bea0 f   Monster_BossMakron.obj
 0001:0012b0d0       ?State_Killed@rvMonsterBossMakron@@IAE?AW4stateResult_t@@ABUstateParms_t@@@Z 2012c0d0 f   Monster_BossMakron.obj
 0001:0012b200       ?Frame_StompAttack@rvMonsterBossMakron@@IAE?AW4stateResult_t@@ABUstateParms_t@@@Z 2012c200 f   Monster_BossMakron.obj
 0001:0012b2e0       ?Restore@rvMonsterBossMakron@@QAEXPAVidRestoreGame@@@Z 2012c2e0 f   Monster_BossMakron.obj
 0001:0012b580       ?StopAllBoltEffects@rvMonsterBossMakron@@IAEXXZ 2012c580 f   Monster_BossMakron.obj
 0001:0012b700       ?CheckActions@rvMonsterBossMakron@@MAE_NXZ 2012c700 f   Monster_BossMakron.obj
 0001:0012b860       ?LightningSweep@rvMonsterBossMakron@@IAEXVidVec3@@AAV?$rvClientEntityPtr@VrvClientEffect@@@@1@Z 2012c860 f   Monster_BossMakron.obj
 0001:0012be00       ?State_Torso_CannonAttack@rvMonsterBossMakron@@IAE?AW4stateResult_t@@ABUstateParms_t@@@Z 2012ce00 f   Monster_BossMakron.obj
 0001:0012c020       ?Event_StompAttack@rvMonsterBossMakron@@IAEXAAVidVec3@@@Z 2012d020 f   Monster_BossMakron.obj
 0001:0012c2d0       ?StopAllEffects@rvMonsterBossMakron@@IAEXXZ 2012d2d0 f   Monster_BossMakron.obj
 0001:0012c340       ?InitBoltSweep@rvMonsterBossMakron@@IAEXVidVec3@@@Z 2012d340 f   Monster_BossMakron.obj
 0001:0012c740       ?MaintainBoltSweep@rvMonsterBossMakron@@IAEXXZ 2012d740 f   Monster_BossMakron.obj
 0001:0012cbe0       ?Killed@rvMonsterBossMakron@@MAEXPAVidEntity@@0HABVidVec3@@H@Z 2012dbe0 f   Monster_BossMakron.obj
 0001:0012cd20       ?BeginSeparation@rvMonsterBossMakron@@IAEXXZ 2012dd20 f   Monster_BossMakron.obj
 0001:0012cf90       ?Event_Separate@rvMonsterBossMakron@@IAEXXZ 2012df90 f   Monster_BossMakron.obj
 0001:0012cfc0       ?State_Torso_Lightning2Attack@rvMonsterBossMakron@@IAE?AW4stateResult_t@@ABUstateParms_t@@@Z 2012dfc0 f   Monster_BossMakron.obj
 0001:0012d150       ?State_Torso_Lightning1Attack@rvMonsterBossMakron@@IAE?AW4stateResult_t@@ABUstateParms_t@@@Z 2012e150 f   Monster_BossMakron.obj
 0001:0012d2f0       ??0rvMonsterBossMakron@@QAE@XZ 2012e2f0 f   Monster_BossMakron.obj
 0001:0012d440       ?CreateInstance@rvMonsterBossMakron@@SAPAVidClass@@XZ 2012e440 f   Monster_BossMakron.obj
 0001:0012d4e0       ?RegisterClassA@rvMonsterBossMakron@@SAXXZ 2012e4e0 f   Monster_BossMakron.obj
 0001:0012d570       ?Register_rvMonsterBossMakron@@YAXXZ 2012e570 f   Monster_BossMakron.obj
 0001:0012d580       ??1rvMonsterBossMakron@@UAE@XZ 2012e580 f i Monster_BossMakron.obj
 0001:0012d6a0       ??_GrvMonsterBossMakron@@UAEPAXI@Z 2012e6a0 f i Monster_BossMakron.obj
 0001:0012d6a0       ??_ErvMonsterBossMakron@@UAEPAXI@Z 2012e6a0 f i Monster_BossMakron.obj
 0001:0012d6d0       ?GetClassType@rvMonsterConvoyGround@@SAAAVidTypeInfo@@XZ 2012e6d0 f   Monster_ConvoyGround.obj
 0001:0012d6e0       ?GetType@rvMonsterConvoyGround@@UBEPAVidTypeInfo@@XZ 2012e6e0 f   Monster_ConvoyGround.obj
 0001:0012d6f0       ?Postthink@rvMonsterConvoyGround@@UAEXXZ 2012e6f0 f   Monster_ConvoyGround.obj
 0001:0012d700       ?Save@rvMonsterConvoyGround@@QBEXPAVidSaveGame@@@Z 2012e700 f   Monster_ConvoyGround.obj
 0001:0012d790       ?CheckPainActions@rvMonsterConvoyGround@@UAE_NXZ 2012e790 f   Monster_ConvoyGround.obj
 0001:0012d7b0       ?GetIdleAnimName@rvMonsterConvoyGround@@MAEPBDXZ 2012e7b0 f   Monster_ConvoyGround.obj
 0001:0012d7d0       ?FilterTactical@rvMonsterConvoyGround@@MAEHH@Z 2012e7d0 f   Monster_ConvoyGround.obj
 0001:0012d7e0       ?GetDebugInfo@rvMonsterConvoyGround@@UAEXP6AXPBD00PAX@Z1@Z 2012e7e0 f   Monster_ConvoyGround.obj
 0001:0012d870       ?State_Torso_Open@rvMonsterConvoyGround@@AAE?AW4stateResult_t@@ABUstateParms_t@@@Z 2012e870 f   Monster_ConvoyGround.obj
 0001:0012d8e0       ?InitSpawnArgsVariables@rvMonsterConvoyGround@@QAEXXZ 2012e8e0 f   Monster_ConvoyGround.obj
 0001:0012d9e0       ?Spawn@rvMonsterConvoyGround@@QAEXXZ 2012e9e0 f   Monster_ConvoyGround.obj
 0001:0012da20       ?Pain@rvMonsterConvoyGround@@UAE_NPAVidEntity@@0HABVidVec3@@H@Z 2012ea20 f   Monster_ConvoyGround.obj
 0001:0012da60       ?Restore@rvMonsterConvoyGround@@QAEXPAVidRestoreGame@@@Z 2012ea60 f   Monster_ConvoyGround.obj
 0001:0012daf0       ?CanMove@rvMonsterConvoyGround@@UBE_NXZ 2012eaf0 f   Monster_ConvoyGround.obj
 0001:0012db30       ?CanTurn@rvMonsterConvoyGround@@UBE_NXZ 2012eb30 f   Monster_ConvoyGround.obj
 0001:0012db70       ?OnDeath@rvMonsterConvoyGround@@MAEXXZ 2012eb70 f   Monster_ConvoyGround.obj
 0001:0012dd20       ?AdjustHealthByDamage@rvMonsterConvoyGround@@UAEXH@Z 2012ed20 f   Monster_ConvoyGround.obj
 0001:0012dda0       ?Damage@rvMonsterConvoyGround@@UAEXPAVidEntity@@0ABVidVec3@@PBDMH@Z 2012eda0 f   Monster_ConvoyGround.obj
 0001:0012de20       ?CheckActions@rvMonsterConvoyGround@@MAE_NXZ 2012ee20 f   Monster_ConvoyGround.obj
 0001:0012df10       ?State_Fall@rvMonsterConvoyGround@@AAE?AW4stateResult_t@@ABUstateParms_t@@@Z 2012ef10 f   Monster_ConvoyGround.obj
 0001:0012e1c0       ?State_Torso_Close@rvMonsterConvoyGround@@AAE?AW4stateResult_t@@ABUstateParms_t@@@Z 2012f1c0 f   Monster_ConvoyGround.obj
 0001:0012e260       ?State_Torso_Pain@rvMonsterConvoyGround@@AAE?AW4stateResult_t@@ABUstateParms_t@@@Z 2012f260 f   Monster_ConvoyGround.obj
 0001:0012e370       ?State_Legs_Move@rvMonsterConvoyGround@@AAE?AW4stateResult_t@@ABUstateParms_t@@@Z 2012f370 f   Monster_ConvoyGround.obj
 0001:0012e6f0       ?State_Torso_BlasterAttack@rvMonsterConvoyGround@@AAE?AW4stateResult_t@@ABUstateParms_t@@@Z 2012f6f0 f   Monster_ConvoyGround.obj
 0001:0012e800       ??0rvMonsterConvoyGround@@QAE@XZ 2012f800 f   Monster_ConvoyGround.obj
 0001:0012e870       ?CreateInstance@rvMonsterConvoyGround@@SAPAVidClass@@XZ 2012f870 f   Monster_ConvoyGround.obj
 0001:0012e910       ?RegisterClassA@rvMonsterConvoyGround@@SAXXZ 2012f910 f   Monster_ConvoyGround.obj
 0001:0012e9a0       ?Register_rvMonsterConvoyGround@@YAXXZ 2012f9a0 f   Monster_ConvoyGround.obj
 0001:0012e9b0       ??_GrvMonsterConvoyGround@@UAEPAXI@Z 2012f9b0 f i Monster_ConvoyGround.obj
 0001:0012e9b0       ??_ErvMonsterConvoyGround@@UAEPAXI@Z 2012f9b0 f i Monster_ConvoyGround.obj
 0001:0012ea20       ?GetClassType@rvMonsterConvoyHover@@SAAAVidTypeInfo@@XZ 2012fa20 f   Monster_ConvoyHover.obj
 0001:0012ea30       ?GetType@rvMonsterConvoyHover@@UBEPAVidTypeInfo@@XZ 2012fa30 f   Monster_ConvoyHover.obj
 0001:0012ea40       ??1rvMonsterConvoyHover@@UAE@XZ 2012fa40 f   Monster_ConvoyHover.obj
 0001:0012eaa0       ?Save@rvMonsterConvoyHover@@QBEXPAVidSaveGame@@@Z 2012faa0 f   Monster_ConvoyHover.obj
 0001:0012eb40       ?Think_Pathing@rvMonsterConvoyHover@@AAEXXZ 2012fb40 f   Monster_ConvoyHover.obj
 0001:0012eb50       ??0rvMonsterConvoyHover@@QAE@XZ 2012fb50 f   Monster_ConvoyHover.obj
 0001:0012eba0       ?InitSpawnArgsVariables@rvMonsterConvoyHover@@QAEXXZ 2012fba0 f   Monster_ConvoyHover.obj
 0001:0012ee80       ?Spawn@rvMonsterConvoyHover@@QAEXXZ 2012fe80 f   Monster_ConvoyHover.obj
 0001:0012f1e0       ?OnDeath@rvMonsterConvoyHover@@EAEXXZ 201301e0 f   Monster_ConvoyHover.obj
 0001:0012f340       ?CalcDampening@rvMonsterConvoyHover@@AAEXABVidAngles@@AAV2@@Z 20130340 f   Monster_ConvoyHover.obj
 0001:0012f5a0       ?CreateInstance@rvMonsterConvoyHover@@SAPAVidClass@@XZ 201305a0 f   Monster_ConvoyHover.obj
 0001:0012f640       ?Restore@rvMonsterConvoyHover@@QAEXPAVidRestoreGame@@@Z 20130640 f   Monster_ConvoyHover.obj
 0001:0012f7a0       ?Think_Random@rvMonsterConvoyHover@@AAEXXZ 201307a0 f   Monster_ConvoyHover.obj
 0001:0012fc90       ?AttackBlaster@rvMonsterConvoyHover@@AAEXXZ 20130c90 f   Monster_ConvoyHover.obj
 0001:0012fe30       ?AttackBeam@rvMonsterConvoyHover@@AAEXXZ 20130e30 f   Monster_ConvoyHover.obj
 0001:0012ffd0       ?State_Idle@rvMonsterConvoyHover@@AAE?AW4stateResult_t@@ABUstateParms_t@@@Z 20130fd0 f   Monster_ConvoyHover.obj
 0001:001300c0       ?State_BlasterAttack@rvMonsterConvoyHover@@AAE?AW4stateResult_t@@ABUstateParms_t@@@Z 201310c0 f   Monster_ConvoyHover.obj
 0001:00130150       ?State_BeamAttack@rvMonsterConvoyHover@@AAE?AW4stateResult_t@@ABUstateParms_t@@@Z 20131150 f   Monster_ConvoyHover.obj
 0001:001301e0       ?RegisterClassA@rvMonsterConvoyHover@@SAXXZ 201311e0 f   Monster_ConvoyHover.obj
 0001:00130270       ?Register_rvMonsterConvoyHover@@YAXXZ 20131270 f   Monster_ConvoyHover.obj
 0001:00130280       ?Think@rvMonsterConvoyHover@@UAEXXZ 20131280 f   Monster_ConvoyHover.obj
 0001:001309a0       ??_GrvMonsterConvoyHover@@UAEPAXI@Z 201319a0 f i Monster_ConvoyHover.obj
 0001:001309a0       ??_ErvMonsterConvoyHover@@UAEPAXI@Z 201319a0 f i Monster_ConvoyHover.obj
 0001:001309d0       ??$SpawnSafeEntityDef@VidProjectile@@@idGameLocal@@QAEPAVidProjectile@@PBDPBVidDict@@@Z 201319d0 f i Monster_ConvoyHover.obj
 0001:00130a30       ?SetInput@rvVehicle@@UAEXHABVusercmd_t@@ABVidAngles@@@Z 20131a30 f i Monster_ConvoyHover.obj
 0001:00130a60       ?IsDriving@rvVehicleAI@@QAE_NXZ 20131a60 f i Monster_ConvoyHover.obj
 0001:00130ac0       ?GetClassType@rvMonsterFailedTransfer@@SAAAVidTypeInfo@@XZ 20131ac0 f   Monster_FailedTransfer.obj
 0001:00130ad0       ?GetType@rvMonsterFailedTransfer@@UBEPAVidTypeInfo@@XZ 20131ad0 f   Monster_FailedTransfer.obj
 0001:00130ae0       ??0rvMonsterFailedTransfer@@QAE@XZ 20131ae0 f   Monster_FailedTransfer.obj
 0001:00130b00       ?Spawn@rvMonsterFailedTransfer@@QAEXXZ 20131b00 f   Monster_FailedTransfer.obj
 0001:00130b30       ?Save@rvMonsterFailedTransfer@@QBEXPAVidSaveGame@@@Z 20131b30 f   Monster_FailedTransfer.obj
 0001:00130b50       ?Restore@rvMonsterFailedTransfer@@QAEXPAVidRestoreGame@@@Z 20131b50 f   Monster_FailedTransfer.obj
 0001:00130b70       ?Killed@rvMonsterFailedTransfer@@UAEXPAVidEntity@@0HABVidVec3@@H@Z 20131b70 f   Monster_FailedTransfer.obj
 0001:00130bd0       ?CreateInstance@rvMonsterFailedTransfer@@SAPAVidClass@@XZ 20131bd0 f   Monster_FailedTransfer.obj
 0001:00130c70       ?RegisterClassA@rvMonsterFailedTransfer@@SAXXZ 20131c70 f   Monster_FailedTransfer.obj
 0001:00130d00       ?Register_rvMonsterFailedTransfer@@YAXXZ 20131d00 f   Monster_FailedTransfer.obj
 0001:00130d10       ?OnDeath@rvMonsterFailedTransfer@@MAEXXZ 20131d10 f   Monster_FailedTransfer.obj
 0001:00131090       ?GetClassType@rvMonsterFatty@@SAAAVidTypeInfo@@XZ 20132090 f   Monster_Fatty.obj
 0001:001310a0       ?GetType@rvMonsterFatty@@UBEPAVidTypeInfo@@XZ 201320a0 f   Monster_Fatty.obj
 0001:001310b0       ?AddDamageEffect@rvMonsterFatty@@UAEXABUtrace_t@@ABVidVec3@@PBDPAVidEntity@@@Z 201320b0 f   Monster_Fatty.obj
 0001:001310c0       ?InitSpawnArgsVariables@rvMonsterFatty@@QAEXXZ 201320c0 f   Monster_Fatty.obj
 0001:001311d0       ?Spawn@rvMonsterFatty@@QAEXXZ 201321d0 f   Monster_Fatty.obj
 0001:00131210       ?Save@rvMonsterFatty@@QBEXPAVidSaveGame@@@Z 20132210 f   Monster_Fatty.obj
 0001:00131260       ?Restore@rvMonsterFatty@@QAEXPAVidRestoreGame@@@Z 20132260 f   Monster_Fatty.obj
 0001:001312b0       ?CheckAction_WhipAttack@rvMonsterFatty@@AAE_NPAVrvAIAction@@H@Z 201322b0 f   Monster_Fatty.obj
 0001:001312e0       ?CheckActions@rvMonsterFatty@@MAE_NXZ 201322e0 f   Monster_Fatty.obj
 0001:00131310       ?PlayAttackAnim@rvMonsterFatty@@IAEXABVidVec3@@H@Z 20132310 f   Monster_Fatty.obj
 0001:00131560       ?ChainOut@rvMonsterFatty@@IAEXH@Z 20132560 f   Monster_Fatty.obj
 0001:001316a0       ?ChainIn@rvMonsterFatty@@IAEXH@Z 201326a0 f   Monster_Fatty.obj
 0001:00131710       ?ResetAllChains@rvMonsterFatty@@IAEXXZ 20132710 f   Monster_Fatty.obj
 0001:00131740       ?Frame_LeftChainOut@rvMonsterFatty@@AAE?AW4stateResult_t@@ABUstateParms_t@@@Z 20132740 f   Monster_Fatty.obj
 0001:00131750       ?Frame_LeftChainIn@rvMonsterFatty@@AAE?AW4stateResult_t@@ABUstateParms_t@@@Z 20132750 f   Monster_Fatty.obj
 0001:00131760       ?Frame_RightChainOut@rvMonsterFatty@@AAE?AW4stateResult_t@@ABUstateParms_t@@@Z 20132760 f   Monster_Fatty.obj
 0001:00131770       ?Frame_RightChainIn@rvMonsterFatty@@AAE?AW4stateResult_t@@ABUstateParms_t@@@Z 20132770 f   Monster_Fatty.obj
 0001:00131780       ?UpdateAnimationControllers@rvMonsterFatty@@UAE_NXZ 20132780 f   Monster_Fatty.obj
 0001:00131a90       ?State_Torso_WhipAttack@rvMonsterFatty@@AAE?AW4stateResult_t@@ABUstateParms_t@@@Z 20132a90 f   Monster_Fatty.obj
 0001:00131b40       ??1rvMonsterFatty@@UAE@XZ  20132b40 f   Monster_Fatty.obj
 0001:00131ba0       ?CreateInstance@rvMonsterFatty@@SAPAVidClass@@XZ 20132ba0 f   Monster_Fatty.obj
 0001:00131c50       ?RegisterClassA@rvMonsterFatty@@SAXXZ 20132c50 f   Monster_Fatty.obj
 0001:00131ce0       ?Register_rvMonsterFatty@@YAXXZ 20132ce0 f   Monster_Fatty.obj
 0001:00131cf0       ??_GrvMonsterFatty@@UAEPAXI@Z 20132cf0 f i Monster_Fatty.obj
 0001:00131cf0       ??_ErvMonsterFatty@@UAEPAXI@Z 20132cf0 f i Monster_Fatty.obj
 0001:00131d20       ?GetClassType@rvMonsterGladiator@@SAAAVidTypeInfo@@XZ 20132d20 f   Monster_Gladiator.obj
 0001:00131d30       ?GetType@rvMonsterGladiator@@UBEPAVidTypeInfo@@XZ 20132d30 f   Monster_Gladiator.obj
 0001:00131d40       ?UpdateRunStatus@rvMonsterGladiator@@UAE_NXZ 20132d40 f   Monster_Gladiator.obj
 0001:00131da0       ?GetDebugInfo@rvMonsterGladiator@@UAEXP6AXPBD00PAX@Z1@Z 20132da0 f   Monster_Gladiator.obj
 0001:00131de0       ?State_Torso_RailgunAttack@rvMonsterGladiator@@AAE?AW4stateResult_t@@ABUstateParms_t@@@Z 20132de0 f   Monster_Gladiator.obj
 0001:00131ec0       ?State_Torso_TurnRight90@rvMonsterGladiator@@AAE?AW4stateResult_t@@ABUstateParms_t@@@Z 20132ec0 f   Monster_Gladiator.obj
 0001:00131fb0       ?State_Torso_TurnLeft90@rvMonsterGladiator@@AAE?AW4stateResult_t@@ABUstateParms_t@@@Z 20132fb0 f   Monster_Gladiator.obj
 0001:001320a0       ?InitSpawnArgsVariables@rvMonsterGladiator@@QAEXXZ 201330a0 f   Monster_Gladiator.obj
 0001:00132150       ?Spawn@rvMonsterGladiator@@QAEXXZ 20133150 f   Monster_Gladiator.obj
 0001:00132200       ?CheckActions@rvMonsterGladiator@@MAE_NXZ 20133200 f   Monster_Gladiator.obj
 0001:00132640       ?DestroyRailgun@rvMonsterGladiator@@IAEXXZ 20133640 f   Monster_Gladiator.obj
 0001:001328a0       ?FilterTactical@rvMonsterGladiator@@UAEHH@Z 201338a0 f   Monster_Gladiator.obj
 0001:00132920       ?AddDamageEffect@rvMonsterGladiator@@UAEXABUtrace_t@@ABVidVec3@@PBDPAVidEntity@@@Z 20133920 f   Monster_Gladiator.obj
 0001:001329a0       ?GetDamageForLocation@rvMonsterGladiator@@UAEHHH@Z 201339a0 f   Monster_Gladiator.obj
 0001:00132a00       ?CanTurn@rvMonsterGladiator@@UBE_NXZ 20133a00 f   Monster_Gladiator.obj
 0001:00132a50       ?Save@rvMonsterGladiator@@QBEXPAVidSaveGame@@@Z 20133a50 f   Monster_Gladiator.obj
 0001:00132b30       ?Restore@rvMonsterGladiator@@QAEXPAVidRestoreGame@@@Z 20133b30 f   Monster_Gladiator.obj
 0001:00132c10       ?State_Torso_BlasterAttack@rvMonsterGladiator@@AAE?AW4stateResult_t@@ABUstateParms_t@@@Z 20133c10 f   Monster_Gladiator.obj
 0001:00132e20       ?HideShield@rvMonsterGladiator@@IAEXH@Z 20133e20 f   Monster_Gladiator.obj
 0001:00132f30       ?Damage@rvMonsterGladiator@@UAEXPAVidEntity@@0ABVidVec3@@PBDMH@Z 20133f30 f   Monster_Gladiator.obj
 0001:001331e0       ?State_Killed@rvMonsterGladiator@@AAE?AW4stateResult_t@@ABUstateParms_t@@@Z 201341e0 f   Monster_Gladiator.obj
 0001:00133200       ?State_Torso_ShieldEnd@rvMonsterGladiator@@AAE?AW4stateResult_t@@ABUstateParms_t@@@Z 20134200 f   Monster_Gladiator.obj
 0001:00133350       ?State_Torso_ShieldFire@rvMonsterGladiator@@AAE?AW4stateResult_t@@ABUstateParms_t@@@Z 20134350 f   Monster_Gladiator.obj
 0001:00133540       ?ShowShield@rvMonsterGladiator@@IAEXXZ 20134540 f   Monster_Gladiator.obj
 0001:00133a90       ?State_Torso_ShieldStart@rvMonsterGladiator@@AAE?AW4stateResult_t@@ABUstateParms_t@@@Z 20134a90 f   Monster_Gladiator.obj
 0001:00133b80       ??0rvMonsterGladiator@@QAE@XZ 20134b80 f   Monster_Gladiator.obj
 0001:00133bf0       ?CreateInstance@rvMonsterGladiator@@SAPAVidClass@@XZ 20134bf0 f   Monster_Gladiator.obj
 0001:00133c90       ?RegisterClassA@rvMonsterGladiator@@SAXXZ 20134c90 f   Monster_Gladiator.obj
 0001:00133d20       ?Register_rvMonsterGladiator@@YAXXZ 20134d20 f   Monster_Gladiator.obj
 0001:00133d30       ??_GrvMonsterGladiator@@UAEPAXI@Z 20134d30 f i Monster_Gladiator.obj
 0001:00133d30       ??_ErvMonsterGladiator@@UAEPAXI@Z 20134d30 f i Monster_Gladiator.obj
 0001:00133da0       ?GetClassType@rvMonsterGrunt@@SAAAVidTypeInfo@@XZ 20134da0 f   Monster_Grunt.obj
 0001:00133db0       ?GetType@rvMonsterGrunt@@UBEPAVidTypeInfo@@XZ 20134db0 f   Monster_Grunt.obj
 0001:00133dc0       ?Save@rvMonsterGrunt@@QBEXPAVidSaveGame@@@Z 20134dc0 f   Monster_Grunt.obj
 0001:00133e10       ?Restore@rvMonsterGrunt@@QAEXPAVidRestoreGame@@@Z 20134e10 f   Monster_Grunt.obj
 0001:00133e60       ?RageStop@rvMonsterGrunt@@AAEXXZ 20134e60 f   Monster_Grunt.obj
 0001:00133e70       ?OnDeath@rvMonsterGrunt@@MAEXXZ 20134e70 f   Monster_Grunt.obj
 0001:00133e80       ?OnTacticalChange@rvMonsterGrunt@@MAEXW4aiTactical_t@@@Z 20134e80 f   Monster_Grunt.obj
 0001:00133ea0       ?AdjustHealthByDamage@rvMonsterGrunt@@UAEXH@Z 20134ea0 f   Monster_Grunt.obj
 0001:00133ef0       ?State_Torso_Pain@rvMonsterGrunt@@AAE?AW4stateResult_t@@ABUstateParms_t@@@Z 20134ef0 f   Monster_Grunt.obj
 0001:00133f20       ?State_Torso_LeapAttack@rvMonsterGrunt@@AAE?AW4stateResult_t@@ABUstateParms_t@@@Z 20134f20 f   Monster_Grunt.obj
 0001:00133fd0       ?RageStart@rvMonsterGrunt@@AAEXXZ 20134fd0 f   Monster_Grunt.obj
 0001:00134040       ?CheckActions@rvMonsterGrunt@@MAE_NXZ 20135040 f   Monster_Grunt.obj
 0001:00134190       ?State_Torso_Enrage@rvMonsterGrunt@@AAE?AW4stateResult_t@@ABUstateParms_t@@@Z 20135190 f   Monster_Grunt.obj
 0001:00134200       ?Spawn@rvMonsterGrunt@@QAEXXZ 20135200 f   Monster_Grunt.obj
 0001:001342b0       ??0rvMonsterGrunt@@QAE@XZ  201352b0 f   Monster_Grunt.obj
 0001:00134320       ?CreateInstance@rvMonsterGrunt@@SAPAVidClass@@XZ 20135320 f   Monster_Grunt.obj
 0001:001343c0       ?RegisterClassA@rvMonsterGrunt@@SAXXZ 201353c0 f   Monster_Grunt.obj
 0001:00134450       ?Register_rvMonsterGrunt@@YAXXZ 20135450 f   Monster_Grunt.obj
 0001:00134460       ??_ErvMonsterStroggFlyer@@UAEPAXI@Z 20135460 f i Monster_StroggFlyer.obj
 0001:00134460       ??_GrvMonsterStroggFlyer@@UAEPAXI@Z 20135460 f i Monster_StroggFlyer.obj
 0001:00134460       ??_GrvMonsterGrunt@@UAEPAXI@Z 20135460 f i Monster_Grunt.obj
 0001:00134460       ??_ErvMonsterGrunt@@UAEPAXI@Z 20135460 f i Monster_Grunt.obj
 0001:001344d0       ?GetClassType@rvMonsterGunner@@SAAAVidTypeInfo@@XZ 201354d0 f   Monster_Gunner.obj
 0001:001344e0       ?GetType@rvMonsterGunner@@UBEPAVidTypeInfo@@XZ 201354e0 f   Monster_Gunner.obj
 0001:001344f0       ?UpdateRunStatus@rvMonsterGunner@@MAE_NXZ 201354f0 f   Monster_Gunner.obj
 0001:00134510       ?GetDebugInfo@rvMonsterGunner@@UAEXP6AXPBD00PAX@Z1@Z 20135510 f   Monster_Gunner.obj
 0001:001345a0       ?Pain@rvMonsterGunner@@UAE_NPAVidEntity@@0HABVidVec3@@H@Z 201355a0 f   Monster_Gunner.obj
 0001:001345f0       ?InitSpawnArgsVariables@rvMonsterGunner@@QAEXXZ 201355f0 f   Monster_Gunner.obj
 0001:001346d0       ?Spawn@rvMonsterGunner@@QAEXXZ 201356d0 f   Monster_Gunner.obj
 0001:00134750       ?Save@rvMonsterGunner@@QBEXPAVidSaveGame@@@Z 20135750 f   Monster_Gunner.obj
 0001:001347e0       ?Restore@rvMonsterGunner@@QAEXPAVidRestoreGame@@@Z 201357e0 f   Monster_Gunner.obj
 0001:00134870       ?FilterTactical@rvMonsterGunner@@MAEHH@Z 20135870 f   Monster_Gunner.obj
 0001:00134920       ?OnTacticalChange@rvMonsterGunner@@MAEXW4aiTactical_t@@@Z 20135920 f   Monster_Gunner.obj
 0001:00134960       ?CheckAction_SideStepLeft@rvMonsterGunner@@AAE_NPAVrvAIAction@@H@Z 20135960 f   Monster_Gunner.obj
 0001:00134a00       ?CheckAction_SideStepRight@rvMonsterGunner@@AAE_NPAVrvAIAction@@H@Z 20135a00 f   Monster_Gunner.obj
 0001:00134aa0       ?State_Torso_NailgunAttack@rvMonsterGunner@@AAE?AW4stateResult_t@@ABUstateParms_t@@@Z 20135aa0 f   Monster_Gunner.obj
 0001:00134d40       ?OnStopMoving@rvMonsterGunner@@MAEXW4aiMoveCommand_t@@@Z 20135d40 f   Monster_Gunner.obj
 0001:00134e60       ?CheckActions@rvMonsterGunner@@MAE_NXZ 20135e60 f   Monster_Gunner.obj
 0001:00134f50       ?State_Torso_MovingRangedAttack@rvMonsterGunner@@AAE?AW4stateResult_t@@ABUstateParms_t@@@Z 20135f50 f   Monster_Gunner.obj
 0001:001350f0       ??0rvMonsterGunner@@QAE@XZ 201360f0 f   Monster_Gunner.obj
 0001:001351b0       ?CreateInstance@rvMonsterGunner@@SAPAVidClass@@XZ 201361b0 f   Monster_Gunner.obj
 0001:00135250       ?RegisterClassA@rvMonsterGunner@@SAXXZ 20136250 f   Monster_Gunner.obj
 0001:001352e0       ?Register_rvMonsterGunner@@YAXXZ 201362e0 f   Monster_Gunner.obj
 0001:001352f0       ??1rvMonsterGunner@@UAE@XZ 201362f0 f i Monster_Gunner.obj
 0001:00135380       ??_GrvMonsterGunner@@UAEPAXI@Z 20136380 f i Monster_Gunner.obj
 0001:00135380       ??_ErvMonsterGunner@@UAEPAXI@Z 20136380 f i Monster_Gunner.obj
 0001:001353b0       ?GetClassType@rvMonsterHarvester@@SAAAVidTypeInfo@@XZ 201363b0 f   Monster_Harvester.obj
 0001:001353c0       ?GetType@rvMonsterHarvester@@UBEPAVidTypeInfo@@XZ 201363c0 f   Monster_Harvester.obj
 0001:001353d0       ?SkipImpulse@rvMonsterHarvester@@UAE_NPAVidEntity@@H@Z 201363d0 f   Monster_Harvester.obj
 0001:001353e0       ?Damage@rvMonsterHarvester@@UAEXPAVidEntity@@0ABVidVec3@@PBDMH@Z 201363e0 f   Monster_Harvester.obj
 0001:00135410       ?FilterTactical@rvMonsterHarvester@@MAEHH@Z 20136410 f   Monster_Harvester.obj
 0001:00135420       ?State_Killed@rvMonsterHarvester@@AAE?AW4stateResult_t@@ABUstateParms_t@@@Z 20136420 f   Monster_Harvester.obj
 0001:00135490       ?Attack@rvMonsterHarvester@@UAE_NPBDW4jointHandle_t@@PAVidEntity@@ABVidVec3@@@Z 20136490 f   Monster_Harvester.obj
 0001:001354e0       ?InitSpawnArgsVariables@rvMonsterHarvester@@QAEXXZ 201364e0 f   Monster_Harvester.obj
 0001:001356f0       ?Spawn@rvMonsterHarvester@@QAEXXZ 201366f0 f   Monster_Harvester.obj
 0001:001357c0       ?Save@rvMonsterHarvester@@QBEXPAVidSaveGame@@@Z 201367c0 f   Monster_Harvester.obj
 0001:00135890       ?Restore@rvMonsterHarvester@@QAEXPAVidRestoreGame@@@Z 20136890 f   Monster_Harvester.obj
 0001:00135940       ?UpdateAnimationControllers@rvMonsterHarvester@@UAE_NXZ 20136940 f   Monster_Harvester.obj
 0001:00135950       ?DropLeg@rvMonsterHarvester@@AAEXH@Z 20136950 f   Monster_Harvester.obj
 0001:00135f10       ?DestroyPart@rvMonsterHarvester@@IAEXH@Z 20136f10 f   Monster_Harvester.obj
 0001:001361c0       ?CanTurn@rvMonsterHarvester@@UBE_NXZ 201371c0 f   Monster_Harvester.obj
 0001:00136210       ?GetDamageForLocation@rvMonsterHarvester@@UAEHHH@Z 20137210 f   Monster_Harvester.obj
 0001:001363e0       ?CheckAction_WhipAttack@rvMonsterHarvester@@AAE_NPAVrvAIAction@@H@Z 201373e0 f   Monster_Harvester.obj
 0001:00136410       ?State_Dead@rvMonsterHarvester@@AAE?AW4stateResult_t@@ABUstateParms_t@@@Z 20137410 f   Monster_Harvester.obj
 0001:00136480       ?State_Torso_WhipAttack@rvMonsterHarvester@@AAE?AW4stateResult_t@@ABUstateParms_t@@@Z 20137480 f   Monster_Harvester.obj
 0001:00136680       ?GetMeleeAttackAnim@rvMonsterHarvester@@IAEPBDABVidVec3@@@Z 20137680 f   Monster_Harvester.obj
 0001:001368e0       ?PlayMeleeAttackAnim@rvMonsterHarvester@@IAE_NABVidVec3@@H@Z 201378e0 f   Monster_Harvester.obj
 0001:00136910       ?GetRangedAttackAnim@rvMonsterHarvester@@IAEPBDABVidVec3@@@Z 20137910 f   Monster_Harvester.obj
 0001:00136b10       ?PlayRangedAttackAnim@rvMonsterHarvester@@IAE_NABVidVec3@@H@Z 20137b10 f   Monster_Harvester.obj
 0001:00136b60       ?State_Torso_SprayAttack@rvMonsterHarvester@@AAE?AW4stateResult_t@@ABUstateParms_t@@@Z 20137b60 f   Monster_Harvester.obj
 0001:00136c80       ?State_Torso_RocketAttack@rvMonsterHarvester@@AAE?AW4stateResult_t@@ABUstateParms_t@@@Z 20137c80 f   Monster_Harvester.obj
 0001:00136ee0       ?CheckAction_SprayAttack@rvMonsterHarvester@@AAE_NPAVrvAIAction@@H@Z 20137ee0 f   Monster_Harvester.obj
 0001:00137100       ?CheckAction_RocketAttack@rvMonsterHarvester@@AAE_NPAVrvAIAction@@H@Z 20138100 f   Monster_Harvester.obj
 0001:00137250       ?CheckAction_GrenadeAttack@rvMonsterHarvester@@AAE_NPAVrvAIAction@@H@Z 20138250 f   Monster_Harvester.obj
 0001:001373f0       ?CheckAction_MeleeAttack@rvMonsterHarvester@@EAE_NPAVrvAIAction@@H@Z 201383f0 f   Monster_Harvester.obj
 0001:001374c0       ?CheckAction_RangedAttack@rvMonsterHarvester@@EAE_NPAVrvAIAction@@H@Z 201384c0 f   Monster_Harvester.obj
 0001:00137550       ?CheckActions@rvMonsterHarvester@@MAE_NXZ 20138550 f   Monster_Harvester.obj
 0001:001377b0       ?State_Torso_ClawAttack@rvMonsterHarvester@@AAE?AW4stateResult_t@@ABUstateParms_t@@@Z 201387b0 f   Monster_Harvester.obj
 0001:00137870       ?State_Torso_RangedAttack@rvMonsterHarvester@@AAE?AW4stateResult_t@@ABUstateParms_t@@@Z 20138870 f   Monster_Harvester.obj
 0001:00137a10       ?State_Torso_TurnRight90@rvMonsterHarvester@@AAE?AW4stateResult_t@@ABUstateParms_t@@@Z 20138a10 f   Monster_Harvester.obj
 0001:00137d70       ?State_Torso_TurnLeft90@rvMonsterHarvester@@AAE?AW4stateResult_t@@ABUstateParms_t@@@Z 20138d70 f   Monster_Harvester.obj
 0001:001380d0       ??0rvMonsterHarvester@@QAE@XZ 201390d0 f   Monster_Harvester.obj
 0001:001381c0       ?CreateInstance@rvMonsterHarvester@@SAPAVidClass@@XZ 201391c0 f   Monster_Harvester.obj
 0001:00138260       ?RegisterClassA@rvMonsterHarvester@@SAXXZ 20139260 f   Monster_Harvester.obj
 0001:001382f0       ?Register_rvMonsterHarvester@@YAXXZ 201392f0 f   Monster_Harvester.obj
 0001:00138300       ??1rvMonsterHarvester@@UAE@XZ 20139300 f i Monster_Harvester.obj
 0001:001383d0       ??_GrvMonsterHarvester@@UAEPAXI@Z 201393d0 f i Monster_Harvester.obj
 0001:001383d0       ??_ErvMonsterHarvester@@UAEPAXI@Z 201393d0 f i Monster_Harvester.obj
 0001:00138400       ?GetClassType@rvMonsterHarvesterDispersal@@SAAAVidTypeInfo@@XZ 20139400 f   Monster_HarvesterDispersal.obj
 0001:00138410       ?GetType@rvMonsterHarvesterDispersal@@UBEPAVidTypeInfo@@XZ 20139410 f   Monster_HarvesterDispersal.obj
 0001:00138420       ?Save@rvMonsterHarvesterDispersal@@QBEXPAVidSaveGame@@@Z 20139420 f   Monster_HarvesterDispersal.obj
 0001:00138470       ?SkipImpulse@rvMonsterHarvesterDispersal@@UAE_NPAVidEntity@@H@Z 20139470 f   Monster_HarvesterDispersal.obj
 0001:00138480       ?CanTurn@rvMonsterHarvesterDispersal@@UBE_NXZ 20139480 f   Monster_HarvesterDispersal.obj
 0001:00138490       ?FilterTactical@rvMonsterHarvesterDispersal@@MAEHH@Z 20139490 f   Monster_HarvesterDispersal.obj
 0001:001384a0       ?State_Torso_TurnRight90@rvMonsterHarvesterDispersal@@AAE?AW4stateResult_t@@ABUstateParms_t@@@Z 201394a0 f   Monster_HarvesterDispersal.obj
 0001:00138570       ?State_Torso_TurnLeft90@rvMonsterHarvesterDispersal@@AAE?AW4stateResult_t@@ABUstateParms_t@@@Z 20139570 f   Monster_HarvesterDispersal.obj
 0001:00138640       ?InitSpawnArgsVariables@rvMonsterHarvesterDispersal@@QAEXXZ 20139640 f   Monster_HarvesterDispersal.obj
 0001:001386c0       ?Spawn@rvMonsterHarvesterDispersal@@QAEXXZ 201396c0 f   Monster_HarvesterDispersal.obj
 0001:00138700       ?Restore@rvMonsterHarvesterDispersal@@QAEXPAVidRestoreGame@@@Z 20139700 f   Monster_HarvesterDispersal.obj
 0001:00138750       ?CheckActions@rvMonsterHarvesterDispersal@@MAE_NXZ 20139750 f   Monster_HarvesterDispersal.obj
 0001:00138790       ?CheckAction_RangedAttack@rvMonsterHarvesterDispersal@@EAE_NPAVrvAIAction@@H@Z 20139790 f   Monster_HarvesterDispersal.obj
 0001:00138840       ?CheckAction_SprayScream@rvMonsterHarvesterDispersal@@EAE_NPAVrvAIAction@@H@Z 20139840 f   Monster_HarvesterDispersal.obj
 0001:001388e0       ?State_Torso_RangedAttack@rvMonsterHarvesterDispersal@@AAE?AW4stateResult_t@@ABUstateParms_t@@@Z 201398e0 f   Monster_HarvesterDispersal.obj
 0001:00138a60       ?State_SprayScream@rvMonsterHarvesterDispersal@@AAE?AW4stateResult_t@@ABUstateParms_t@@@Z 20139a60 f   Monster_HarvesterDispersal.obj
 0001:00138cb0       ??0rvMonsterHarvesterDispersal@@QAE@XZ 20139cb0 f   Monster_HarvesterDispersal.obj
 0001:00138d00       ?CreateInstance@rvMonsterHarvesterDispersal@@SAPAVidClass@@XZ 20139d00 f   Monster_HarvesterDispersal.obj
 0001:00138da0       ?RegisterClassA@rvMonsterHarvesterDispersal@@SAXXZ 20139da0 f   Monster_HarvesterDispersal.obj
 0001:00138e30       ?Register_rvMonsterHarvesterDispersal@@YAXXZ 20139e30 f   Monster_HarvesterDispersal.obj
 0001:00138e40       ??_9rvMonsterHarvesterDispersal@@$BCJI@AE 20139e40 f i Monster_HarvesterDispersal.obj
 0001:00138e40       ??_9rvMonsterTeleportDropper@@$BCJI@AE 20139e40 f i Monster_TeleportDropper.obj
 0001:00138e50       ??_ErvMonsterHarvesterDispersal@@UAEPAXI@Z 20139e50 f i Monster_HarvesterDispersal.obj
 0001:00138e50       ??_GrvMonsterHarvesterDispersal@@UAEPAXI@Z 20139e50 f i Monster_HarvesterDispersal.obj
 0001:00138ec0       ?GetClassType@rvMonsterHeavyHoverTank@@SAAAVidTypeInfo@@XZ 20139ec0 f   Monster_HeavyHoverTank.obj
 0001:00138ed0       ?GetType@rvMonsterHeavyHoverTank@@UBEPAVidTypeInfo@@XZ 20139ed0 f   Monster_HeavyHoverTank.obj
 0001:00138ee0       ?CheckAction_Strafe@rvMonsterHeavyHoverTank@@AAE_NPAVrvAIAction@@H@Z 20139ee0 f   Monster_HeavyHoverTank.obj
 0001:00138f40       ?State_Torso_RocketAttack@rvMonsterHeavyHoverTank@@AAE?AW4stateResult_t@@ABUstateParms_t@@@Z 20139f40 f   Monster_HeavyHoverTank.obj
 0001:00138ff0       ?State_Torso_ChangeWeaponState@rvMonsterHeavyHoverTank@@AAE?AW4stateResult_t@@ABUstateParms_t@@@Z 20139ff0 f   Monster_HeavyHoverTank.obj
 0001:001390c0       ?InitSpawnArgsVariables@rvMonsterHeavyHoverTank@@QAEXXZ 2013a0c0 f   Monster_HeavyHoverTank.obj
 0001:00139140       ?Spawn@rvMonsterHeavyHoverTank@@QAEXXZ 2013a140 f   Monster_HeavyHoverTank.obj
 0001:00139200       ?Save@rvMonsterHeavyHoverTank@@QBEXPAVidSaveGame@@@Z 2013a200 f   Monster_HeavyHoverTank.obj
 0001:00139290       ?Restore@rvMonsterHeavyHoverTank@@QAEXPAVidRestoreGame@@@Z 2013a290 f   Monster_HeavyHoverTank.obj
 0001:00139320       ?Damage@rvMonsterHeavyHoverTank@@UAEXPAVidEntity@@0ABVidVec3@@PBDMH@Z 2013a320 f   Monster_HeavyHoverTank.obj
 0001:00139470       ?CheckActions@rvMonsterHeavyHoverTank@@MAE_NXZ 2013a470 f   Monster_HeavyHoverTank.obj
 0001:00139500       ?State_Torso_BlasterAttack@rvMonsterHeavyHoverTank@@AAE?AW4stateResult_t@@ABUstateParms_t@@@Z 2013a500 f   Monster_HeavyHoverTank.obj
 0001:001396b0       ?State_Torso_EvadeLeft@rvMonsterHeavyHoverTank@@AAE?AW4stateResult_t@@ABUstateParms_t@@@Z 2013a6b0 f   Monster_HeavyHoverTank.obj
 0001:001397a0       ?State_Torso_EvadeRight@rvMonsterHeavyHoverTank@@AAE?AW4stateResult_t@@ABUstateParms_t@@@Z 2013a7a0 f   Monster_HeavyHoverTank.obj
 0001:001398a0       ?State_Torso_Strafe@rvMonsterHeavyHoverTank@@AAE?AW4stateResult_t@@ABUstateParms_t@@@Z 2013a8a0 f   Monster_HeavyHoverTank.obj
 0001:00139910       ?OnDeath@rvMonsterHeavyHoverTank@@UAEXXZ 2013a910 f   Monster_HeavyHoverTank.obj
 0001:001399c0       ?OnEnemyChange@rvMonsterHeavyHoverTank@@MAEXPAVidEntity@@@Z 2013a9c0 f   Monster_HeavyHoverTank.obj
 0001:00139a40       ?Think@rvMonsterHeavyHoverTank@@UAEXXZ 2013aa40 f   Monster_HeavyHoverTank.obj
 0001:00139da0       ??0rvMonsterHeavyHoverTank@@QAE@XZ 2013ada0 f   Monster_HeavyHoverTank.obj
 0001:00139e40       ?CreateInstance@rvMonsterHeavyHoverTank@@SAPAVidClass@@XZ 2013ae40 f   Monster_HeavyHoverTank.obj
 0001:00139ee0       ?RegisterClassA@rvMonsterHeavyHoverTank@@SAXXZ 2013aee0 f   Monster_HeavyHoverTank.obj
 0001:00139f70       ?Register_rvMonsterHeavyHoverTank@@YAXXZ 2013af70 f   Monster_HeavyHoverTank.obj
 0001:00139f80       ??_ErvMonsterHeavyHoverTank@@UAEPAXI@Z 2013af80 f i Monster_HeavyHoverTank.obj
 0001:00139f80       ??_GrvMonsterHeavyHoverTank@@UAEPAXI@Z 2013af80 f i Monster_HeavyHoverTank.obj
 0001:0013a000       ?GetClassType@rvMonsterIronMaiden@@SAAAVidTypeInfo@@XZ 2013b000 f   Monster_IronMaiden.obj
 0001:0013a010       ?GetType@rvMonsterIronMaiden@@UBEPAVidTypeInfo@@XZ 2013b010 f   Monster_IronMaiden.obj
 0001:0013a020       ?Save@rvMonsterIronMaiden@@QBEXPAVidSaveGame@@@Z 2013b020 f   Monster_IronMaiden.obj
 0001:0013a060       ?FilterTactical@rvMonsterIronMaiden@@UAEHH@Z 2013b060 f   Monster_IronMaiden.obj
 0001:0013a080       ?CheckAction_BansheeAttack@rvMonsterIronMaiden@@AAE_NPAVrvAIAction@@H@Z 2013b080 f   Monster_IronMaiden.obj
 0001:0013a090       ?PerformAction_PhaseIn@rvMonsterIronMaiden@@AAE_NXZ 2013b090 f   Monster_IronMaiden.obj
 0001:0013a0e0       ?OnDeath@rvMonsterIronMaiden@@MAEXXZ 2013b0e0 f   Monster_IronMaiden.obj
 0001:0013a110       ?GetDebugInfo@rvMonsterIronMaiden@@UAEXP6AXPBD00PAX@Z1@Z 2013b110 f   Monster_IronMaiden.obj
 0001:0013a150       ?State_Torso_PhaseOut@rvMonsterIronMaiden@@AAE?AW4stateResult_t@@ABUstateParms_t@@@Z 2013b150 f   Monster_IronMaiden.obj
 0001:0013a1b0       ?Frame_EndBansheeAttack@rvMonsterIronMaiden@@AAE?AW4stateResult_t@@ABUstateParms_t@@@Z 2013b1b0 f   Monster_IronMaiden.obj
 0001:0013a1d0       ?InitSpawnArgsVariables@rvMonsterIronMaiden@@QAEXXZ 2013b1d0 f   Monster_IronMaiden.obj
 0001:0013a220       ?Spawn@rvMonsterIronMaiden@@QAEXXZ 2013b220 f   Monster_IronMaiden.obj
 0001:0013a2b0       ?Restore@rvMonsterIronMaiden@@QAEXPAVidRestoreGame@@@Z 2013b2b0 f   Monster_IronMaiden.obj
 0001:0013a2f0       ?PerformAction_PhaseOut@rvMonsterIronMaiden@@AAE_NXZ 2013b2f0 f   Monster_IronMaiden.obj
 0001:0013a360       ?CheckActions@rvMonsterIronMaiden@@MAE_NXZ 2013b360 f   Monster_IronMaiden.obj
 0001:0013a3b0       ?PhaseOut@rvMonsterIronMaiden@@IAEXXZ 2013b3b0 f   Monster_IronMaiden.obj
 0001:0013a4a0       ?PhaseIn@rvMonsterIronMaiden@@IAEXXZ 2013b4a0 f   Monster_IronMaiden.obj
 0001:0013a5a0       ?State_Phased@rvMonsterIronMaiden@@AAE?AW4stateResult_t@@ABUstateParms_t@@@Z 2013b5a0 f   Monster_IronMaiden.obj
 0001:0013a650       ?State_Torso_PhaseIn@rvMonsterIronMaiden@@AAE?AW4stateResult_t@@ABUstateParms_t@@@Z 2013b650 f   Monster_IronMaiden.obj
 0001:0013a6f0       ?State_Torso_BansheeAttack@rvMonsterIronMaiden@@AAE?AW4stateResult_t@@ABUstateParms_t@@@Z 2013b6f0 f   Monster_IronMaiden.obj
 0001:0013a790       ?State_Torso_BansheeAttackDone@rvMonsterIronMaiden@@AAE?AW4stateResult_t@@ABUstateParms_t@@@Z 2013b790 f   Monster_IronMaiden.obj
 0001:0013a7b0       ?Frame_PhaseIn@rvMonsterIronMaiden@@AAE?AW4stateResult_t@@ABUstateParms_t@@@Z 2013b7b0 f   Monster_IronMaiden.obj
 0001:0013a7c0       ?Frame_PhaseOut@rvMonsterIronMaiden@@AAE?AW4stateResult_t@@ABUstateParms_t@@@Z 2013b7c0 f   Monster_IronMaiden.obj
 0001:0013a7d0       ?Frame_BansheeAttack@rvMonsterIronMaiden@@AAE?AW4stateResult_t@@ABUstateParms_t@@@Z 2013b7d0 f   Monster_IronMaiden.obj
 0001:0013a9e0       ??0rvMonsterIronMaiden@@QAE@XZ 2013b9e0 f   Monster_IronMaiden.obj
 0001:0013aa50       ?CreateInstance@rvMonsterIronMaiden@@SAPAVidClass@@XZ 2013ba50 f   Monster_IronMaiden.obj
 0001:0013aaf0       ?RegisterClassA@rvMonsterIronMaiden@@SAXXZ 2013baf0 f   Monster_IronMaiden.obj
 0001:0013ab80       ?Register_rvMonsterIronMaiden@@YAXXZ 2013bb80 f   Monster_IronMaiden.obj
 0001:0013ab90       ?GetClassType@rvMonsterLightTank@@SAAAVidTypeInfo@@XZ 2013bb90 f   Monster_LightTank.obj
 0001:0013aba0       ?GetType@rvMonsterLightTank@@UBEPAVidTypeInfo@@XZ 2013bba0 f   Monster_LightTank.obj
 0001:0013abb0       ?Save@rvMonsterLightTank@@QBEXPAVidSaveGame@@@Z 2013bbb0 f   Monster_LightTank.obj
 0001:0013ac40       ?Restore@rvMonsterLightTank@@QAEXPAVidRestoreGame@@@Z 2013bc40 f   Monster_LightTank.obj
 0001:0013acd0       ?OnTacticalChange@rvMonsterLightTank@@MAEXW4aiTactical_t@@@Z 2013bcd0 f   Monster_LightTank.obj
 0001:0013ad00       ?UpdateRunStatus@rvMonsterLightTank@@MAE_NXZ 2013bd00 f   Monster_LightTank.obj
 0001:0013ad40       ?Pain@rvMonsterLightTank@@UAE_NPAVidEntity@@0HABVidVec3@@H@Z 2013bd40 f   Monster_LightTank.obj
 0001:0013ad90       ?CheckAction_PowerUp@rvMonsterLightTank@@AAE_NPAVrvAIAction@@H@Z 2013bd90 f   Monster_LightTank.obj
 0001:0013add0       ?CheckAction_EvadeLeft@rvMonsterLightTank@@EAE_NPAVrvAIAction@@H@Z 2013bdd0 f   Monster_LightTank.obj
 0001:0013ae00       ?CheckAction_EvadeRight@rvMonsterLightTank@@EAE_NPAVrvAIAction@@H@Z 2013be00 f   Monster_LightTank.obj
 0001:0013ae30       ?State_Killed@rvMonsterLightTank@@AAE?AW4stateResult_t@@ABUstateParms_t@@@Z 2013be30 f   Monster_LightTank.obj
 0001:0013ae60       ?State_Torso_FlameThrowerThink@rvMonsterLightTank@@AAE?AW4stateResult_t@@ABUstateParms_t@@@Z 2013be60 f   Monster_LightTank.obj
 0001:0013aea0       ?State_Torso_Pain@rvMonsterLightTank@@AAE?AW4stateResult_t@@ABUstateParms_t@@@Z 2013bea0 f   Monster_LightTank.obj
 0001:0013aed0       ?State_Torso_RangedAttack@rvMonsterLightTank@@AAE?AW4stateResult_t@@ABUstateParms_t@@@Z 2013bed0 f   Monster_LightTank.obj
 0001:0013af60       ?Spawn@rvMonsterLightTank@@QAEXXZ 2013bf60 f   Monster_LightTank.obj
 0001:0013b010       ?FilterTactical@rvMonsterLightTank@@MAEHH@Z 2013c010 f   Monster_LightTank.obj
 0001:0013b070       ?DestroyFlamethrower@rvMonsterLightTank@@IAEXXZ 2013c070 f   Monster_LightTank.obj
 0001:0013b2f0       ?GetDamageForLocation@rvMonsterLightTank@@UAEHHH@Z 2013c2f0 f   Monster_LightTank.obj
 0001:0013b360       ?State_Torso_FlameThrower@rvMonsterLightTank@@AAE?AW4stateResult_t@@ABUstateParms_t@@@Z 2013c360 f   Monster_LightTank.obj
 0001:0013b3f0       ?State_Torso_PowerUp@rvMonsterLightTank@@AAE?AW4stateResult_t@@ABUstateParms_t@@@Z 2013c3f0 f   Monster_LightTank.obj
 0001:0013b510       ?DamageFeedback@rvMonsterLightTank@@UAEXPAVidEntity@@0AAH@Z 2013c510 f   Monster_LightTank.obj
 0001:0013b5a0       ?OnStopMoving@rvMonsterLightTank@@MAEXW4aiMoveCommand_t@@@Z 2013c5a0 f   Monster_LightTank.obj
 0001:0013b640       ?CheckAction_ChargeAttack@rvMonsterLightTank@@AAE_NPAVrvAIAction@@H@Z 2013c640 f   Monster_LightTank.obj
 0001:0013b6f0       ?CheckActions@rvMonsterLightTank@@MAE_NXZ 2013c6f0 f   Monster_LightTank.obj
 0001:0013b860       ??0rvMonsterLightTank@@QAE@XZ 2013c860 f   Monster_LightTank.obj
 0001:0013b8f0       ?CreateInstance@rvMonsterLightTank@@SAPAVidClass@@XZ 2013c8f0 f   Monster_LightTank.obj
 0001:0013b990       ?RegisterClassA@rvMonsterLightTank@@SAXXZ 2013c990 f   Monster_LightTank.obj
 0001:0013ba20       ?Register_rvMonsterLightTank@@YAXXZ 2013ca20 f   Monster_LightTank.obj
 0001:0013ba30       ??_GrvMonsterLightTank@@UAEPAXI@Z 2013ca30 f i Monster_LightTank.obj
 0001:0013ba30       ??_ErvMonsterLightTank@@UAEPAXI@Z 2013ca30 f i Monster_LightTank.obj
 0001:0013bac0       ?GetClassType@rvMonsterNetworkGuardian@@SAAAVidTypeInfo@@XZ 2013cac0 f   Monster_NetworkGuardian.obj
 0001:0013bad0       ?GetType@rvMonsterNetworkGuardian@@UBEPAVidTypeInfo@@XZ 2013cad0 f   Monster_NetworkGuardian.obj
 0001:0013bae0       ?Save@rvMonsterNetworkGuardian@@QBEXPAVidSaveGame@@@Z 2013cae0 f   Monster_NetworkGuardian.obj
 0001:0013bba0       ?Restore@rvMonsterNetworkGuardian@@QAEXPAVidRestoreGame@@@Z 2013cba0 f   Monster_NetworkGuardian.obj
 0001:0013bc60       ?Event_ForceWalkMode@rvMonsterNetworkGuardian@@AAEXXZ 2013cc60 f   Monster_NetworkGuardian.obj
 0001:0013bcb0       ?Event_ForceLanding@rvMonsterNetworkGuardian@@AAEXXZ 2013ccb0 f   Monster_NetworkGuardian.obj
 0001:0013bd20       ?Event_ForceTakeoff@rvMonsterNetworkGuardian@@AAEXXZ 2013cd20 f   Monster_NetworkGuardian.obj
 0001:0013bd60       ?Event_AllowAutopilot@rvMonsterNetworkGuardian@@AAEXM@Z 2013cd60 f   Monster_NetworkGuardian.obj
 0001:0013bd90       ?Event_SetBattleStage@rvMonsterNetworkGuardian@@AAEXM@Z 2013cd90 f   Monster_NetworkGuardian.obj
 0001:0013bdb0       ?State_Torso_ShotgunRocket@rvMonsterNetworkGuardian@@AAE?AW4stateResult_t@@ABUstateParms_t@@@Z 2013cdb0 f   Monster_NetworkGuardian.obj
 0001:0013be10       ?State_Torso_BlasterSweepGround@rvMonsterNetworkGuardian@@AAE?AW4stateResult_t@@ABUstateParms_t@@@Z 2013ce10 f   Monster_NetworkGuardian.obj
 0001:0013be70       ?State_Torso_FlyingSweep@rvMonsterNetworkGuardian@@AAE?AW4stateResult_t@@ABUstateParms_t@@@Z 2013ce70 f   Monster_NetworkGuardian.obj
 0001:0013bed0       ?State_Torso_FlyingRanged@rvMonsterNetworkGuardian@@AAE?AW4stateResult_t@@ABUstateParms_t@@@Z 2013ced0 f   Monster_NetworkGuardian.obj
 0001:0013bf30       ?State_Torso_MIRVAttack@rvMonsterNetworkGuardian@@AAE?AW4stateResult_t@@ABUstateParms_t@@@Z 2013cf30 f   Monster_NetworkGuardian.obj
 0001:0013bf90       ?State_Wait_Flying@rvMonsterNetworkGuardian@@AAE?AW4stateResult_t@@ABUstateParms_t@@@Z 2013cf90 f   Monster_NetworkGuardian.obj
 0001:0013bfb0       ?State_Torso_TurnRight90@rvMonsterNetworkGuardian@@AAE?AW4stateResult_t@@ABUstateParms_t@@@Z 2013cfb0 f   Monster_NetworkGuardian.obj
 0001:0013c060       ?State_Torso_TurnLeft90@rvMonsterNetworkGuardian@@AAE?AW4stateResult_t@@ABUstateParms_t@@@Z 2013d060 f   Monster_NetworkGuardian.obj
 0001:0013c110       ?Spawn@rvMonsterNetworkGuardian@@QAEXXZ 2013d110 f   Monster_NetworkGuardian.obj
 0001:0013c200       ?CheckActions@rvMonsterNetworkGuardian@@MAE_NXZ 2013d200 f   Monster_NetworkGuardian.obj
 0001:0013c5e0       ?State_Torso_EvadeLeft@rvMonsterNetworkGuardian@@AAE?AW4stateResult_t@@ABUstateParms_t@@@Z 2013d5e0 f   Monster_NetworkGuardian.obj
 0001:0013c6d0       ?State_Torso_EvadeRight@rvMonsterNetworkGuardian@@AAE?AW4stateResult_t@@ABUstateParms_t@@@Z 2013d6d0 f   Monster_NetworkGuardian.obj
 0001:0013c7d0       ?State_Torso_LiftOff@rvMonsterNetworkGuardian@@AAE?AW4stateResult_t@@ABUstateParms_t@@@Z 2013d7d0 f   Monster_NetworkGuardian.obj
 0001:0013c8c0       ?State_Torso_Fall@rvMonsterNetworkGuardian@@AAE?AW4stateResult_t@@ABUstateParms_t@@@Z 2013d8c0 f   Monster_NetworkGuardian.obj
 0001:0013c9d0       ?State_Torso_BlasterAttack@rvMonsterNetworkGuardian@@AAE?AW4stateResult_t@@ABUstateParms_t@@@Z 2013d9d0 f   Monster_NetworkGuardian.obj
 0001:0013cb50       ??0rvMonsterNetworkGuardian@@QAE@XZ 2013db50 f   Monster_NetworkGuardian.obj
 0001:0013cc20       ?CreateInstance@rvMonsterNetworkGuardian@@SAPAVidClass@@XZ 2013dc20 f   Monster_NetworkGuardian.obj
 0001:0013ccc0       ?RegisterClassA@rvMonsterNetworkGuardian@@SAXXZ 2013dcc0 f   Monster_NetworkGuardian.obj
 0001:0013cd50       ?Register_rvMonsterNetworkGuardian@@YAXXZ 2013dd50 f   Monster_NetworkGuardian.obj
 0001:0013cd60       ??1rvMonsterNetworkGuardian@@UAE@XZ 2013dd60 f i Monster_NetworkGuardian.obj
 0001:0013ce10       ??_GrvMonsterNetworkGuardian@@UAEPAXI@Z 2013de10 f i Monster_NetworkGuardian.obj
 0001:0013ce10       ??_ErvMonsterNetworkGuardian@@UAEPAXI@Z 2013de10 f i Monster_NetworkGuardian.obj
 0001:0013ce40       ?GetClassType@rvMonsterRepairBot@@SAAAVidTypeInfo@@XZ 2013de40 f   Monster_RepairBot.obj
 0001:0013ce50       ?GetType@rvMonsterRepairBot@@UBEPAVidTypeInfo@@XZ 2013de50 f   Monster_RepairBot.obj
 0001:0013ce60       ?CheckActions@rvMonsterRepairBot@@MAE_NXZ 2013de60 f   Monster_RepairBot.obj
 0001:0013ce70       ?GetDebugInfo@rvMonsterRepairBot@@UAEXP6AXPBD00PAX@Z1@Z 2013de70 f   Monster_RepairBot.obj
 0001:0013ce80       ?State_Legs_Move@rvMonsterRepairBot@@AAE?AW4stateResult_t@@ABUstateParms_t@@@Z 2013de80 f   Monster_RepairBot.obj
 0001:0013cf80       ??0rvMonsterRepairBot@@QAE@XZ 2013df80 f   Monster_RepairBot.obj
 0001:0013cfc0       ?InitSpawnArgsVariables@rvMonsterRepairBot@@QAEXXZ 2013dfc0 f   Monster_RepairBot.obj
 0001:0013d070       ?Spawn@rvMonsterRepairBot@@QAEXXZ 2013e070 f   Monster_RepairBot.obj
 0001:0013d080       ?Save@repairBotArm_t@@QBEXPAVidSaveGame@@@Z 2013e080 f   Monster_RepairBot.obj
 0001:0013d0d0       ?Restore@repairBotArm_t@@QAEXPAVidRestoreGame@@@Z 2013e0d0 f   Monster_RepairBot.obj
 0001:0013d120       ?CreateInstance@rvMonsterRepairBot@@SAPAVidClass@@XZ 2013e120 f   Monster_RepairBot.obj
 0001:0013d1c0       ?Save@rvMonsterRepairBot@@QBEXPAVidSaveGame@@@Z 2013e1c0 f   Monster_RepairBot.obj
 0001:0013d200       ?Restore@rvMonsterRepairBot@@QAEXPAVidRestoreGame@@@Z 2013e200 f   Monster_RepairBot.obj
 0001:0013d240       ?StopRepairs@rvMonsterRepairBot@@AAEXAAVrepairBotArm_t@@@Z 2013e240 f   Monster_RepairBot.obj
 0001:0013d2f0       ?State_TorsoAction_Repair@rvMonsterRepairBot@@AAE?AW4stateResult_t@@ABUstateParms_t@@@Z 2013e2f0 f   Monster_RepairBot.obj
 0001:0013d3e0       ?State_TorsoAction_RepairDone@rvMonsterRepairBot@@AAE?AW4stateResult_t@@ABUstateParms_t@@@Z 2013e3e0 f   Monster_RepairBot.obj
 0001:0013d410       ?RegisterClassA@rvMonsterRepairBot@@SAXXZ 2013e410 f   Monster_RepairBot.obj
 0001:0013d4a0       ?Register_rvMonsterRepairBot@@YAXXZ 2013e4a0 f   Monster_RepairBot.obj
 0001:0013d4b0       ?OnDeath@rvMonsterRepairBot@@MAEXXZ 2013e4b0 f   Monster_RepairBot.obj
 0001:0013d530       ?UpdateRepairs@rvMonsterRepairBot@@AAEXAAVrepairBotArm_t@@@Z 2013e530 f   Monster_RepairBot.obj
 0001:0013d990       ?Think@rvMonsterRepairBot@@UAEXXZ 2013e990 f   Monster_RepairBot.obj
 0001:0013d9c0       ??_ErvMonsterFailedTransfer@@UAEPAXI@Z 2013e9c0 f i Monster_FailedTransfer.obj
 0001:0013d9c0       ??_GrvMonsterRepairBot@@UAEPAXI@Z 2013e9c0 f i Monster_RepairBot.obj
 0001:0013d9c0       ??_GrvMonsterScientist@@UAEPAXI@Z 2013e9c0 f i Monster_Scientist.obj
 0001:0013d9c0       ??_GrvMonsterFailedTransfer@@UAEPAXI@Z 2013e9c0 f i Monster_FailedTransfer.obj
 0001:0013d9c0       ??_EidAI@@UAEPAXI@Z        2013e9c0 f i AI.obj
 0001:0013d9c0       ??_ErvMonsterRepairBot@@UAEPAXI@Z 2013e9c0 f i Monster_RepairBot.obj
 0001:0013d9c0       ??_GidAI@@UAEPAXI@Z        2013e9c0 f i AI.obj
 0001:0013d9c0       ??_ErvMonsterScientist@@UAEPAXI@Z 2013e9c0 f i Monster_Scientist.obj
 0001:0013d9f0       ?GetClassType@rvMonsterScientist@@SAAAVidTypeInfo@@XZ 2013e9f0 f   Monster_Scientist.obj
 0001:0013da00       ?GetType@rvMonsterScientist@@UBEPAVidTypeInfo@@XZ 2013ea00 f   Monster_Scientist.obj
 0001:0013da10       ??0rvMonsterScientist@@QAE@XZ 2013ea10 f   Monster_Scientist.obj
 0001:0013da30       ?OnDeath@rvMonsterScientist@@UAEXXZ 2013ea30 f   Monster_Scientist.obj
 0001:0013da50       ?GetDebugInfo@rvMonsterScientist@@UAEXP6AXPBD00PAX@Z1@Z 2013ea50 f   Monster_Scientist.obj
 0001:0013da60       ?CreateInstance@rvMonsterScientist@@SAPAVidClass@@XZ 2013ea60 f   Monster_Scientist.obj
 0001:0013db00       ?Spawn@rvMonsterScientist@@QAEXXZ 2013eb00 f   Monster_Scientist.obj
 0001:0013db50       ?RegisterClassA@rvMonsterScientist@@SAXXZ 2013eb50 f   Monster_Scientist.obj
 0001:0013dbe0       ?Register_rvMonsterScientist@@YAXXZ 2013ebe0 f   Monster_Scientist.obj
 0001:0013dbf0       ?GetClassType@rvMonsterSentry@@SAAAVidTypeInfo@@XZ 2013ebf0 f   Monster_Sentry.obj
 0001:0013dc00       ?GetType@rvMonsterSentry@@UBEPAVidTypeInfo@@XZ 2013ec00 f   Monster_Sentry.obj
 0001:0013dc10       ?Save@rvMonsterSentry@@QBEXPAVidSaveGame@@@Z 2013ec10 f   Monster_Sentry.obj
 0001:0013dc90       ?CheckAction_CircleStrafe@rvMonsterSentry@@AAE_NPAVrvAIAction@@H@Z 2013ec90 f   Monster_Sentry.obj
 0001:0013dcb0       ?FilterTactical@rvMonsterSentry@@MAEHH@Z 2013ecb0 f   Monster_Sentry.obj
 0001:0013dce0       ?GetDebugInfo@rvMonsterSentry@@UAEXP6AXPBD00PAX@Z1@Z 2013ece0 f   Monster_Sentry.obj
 0001:0013ddc0       ?State_Action_CircleStrafe@rvMonsterSentry@@AAE?AW4stateResult_t@@ABUstateParms_t@@@Z 2013edc0 f   Monster_Sentry.obj
 0001:0013dde0       ?InitSpawnArgsVariables@rvMonsterSentry@@QAEXXZ 2013ede0 f   Monster_Sentry.obj
 0001:0013de60       ?Spawn@rvMonsterSentry@@QAEXXZ 2013ee60 f   Monster_Sentry.obj
 0001:0013df10       ?Restore@rvMonsterSentry@@QAEXPAVidRestoreGame@@@Z 2013ef10 f   Monster_Sentry.obj
 0001:0013dfa0       ?Pain@rvMonsterSentry@@UAE_NPAVidEntity@@0HABVidVec3@@H@Z 2013efa0 f   Monster_Sentry.obj
 0001:0013e0e0       ?CheckActions@rvMonsterSentry@@MAE_NXZ 2013f0e0 f   Monster_Sentry.obj
 0001:0013e150       ?Explode@rvMonsterSentry@@IAEX_N@Z 2013f150 f   Monster_Sentry.obj
 0001:0013e1e0       ?State_Torso_KamakaziAttack@rvMonsterSentry@@AAE?AW4stateResult_t@@ABUstateParms_t@@@Z 2013f1e0 f   Monster_Sentry.obj
 0001:0013e1f0       ?State_Torso_EvadeLeft@rvMonsterSentry@@AAE?AW4stateResult_t@@ABUstateParms_t@@@Z 2013f1f0 f   Monster_Sentry.obj
 0001:0013e2b0       ?State_Torso_EvadeRight@rvMonsterSentry@@AAE?AW4stateResult_t@@ABUstateParms_t@@@Z 2013f2b0 f   Monster_Sentry.obj
 0001:0013e370       ?Think@rvMonsterSentry@@UAEXXZ 2013f370 f   Monster_Sentry.obj
 0001:0013e3a0       ?OnDeath@rvMonsterSentry@@MAEXXZ 2013f3a0 f   Monster_Sentry.obj
 0001:0013e3c0       ?State_Torso_BlasterAttack@rvMonsterSentry@@AAE?AW4stateResult_t@@ABUstateParms_t@@@Z 2013f3c0 f   Monster_Sentry.obj
 0001:0013e4d0       ?State_CircleStrafe@rvMonsterSentry@@AAE?AW4stateResult_t@@ABUstateParms_t@@@Z 2013f4d0 f   Monster_Sentry.obj
 0001:0013e770       ??0rvMonsterSentry@@QAE@XZ 2013f770 f   Monster_Sentry.obj
 0001:0013e7f0       ?CreateInstance@rvMonsterSentry@@SAPAVidClass@@XZ 2013f7f0 f   Monster_Sentry.obj
 0001:0013e890       ?RegisterClassA@rvMonsterSentry@@SAXXZ 2013f890 f   Monster_Sentry.obj
 0001:0013e920       ?Register_rvMonsterSentry@@YAXXZ 2013f920 f   Monster_Sentry.obj
 0001:0013e930       ??_GrvMonsterSentry@@UAEPAXI@Z 2013f930 f i Monster_Sentry.obj
 0001:0013e930       ??_ErvMonsterSentry@@UAEPAXI@Z 2013f930 f i Monster_Sentry.obj
 0001:0013e9b0       ?GetClassType@rvMonsterSlimyTransfer@@SAAAVidTypeInfo@@XZ 2013f9b0 f   Monster_SlimyTransfer.obj
 0001:0013e9c0       ?GetType@rvMonsterSlimyTransfer@@UBEPAVidTypeInfo@@XZ 2013f9c0 f   Monster_SlimyTransfer.obj
 0001:0013e9d0       ?Save@rvMonsterSlimyTransfer@@QBEXPAVidSaveGame@@@Z 2013f9d0 f   Monster_SlimyTransfer.obj
 0001:0013ea00       ?OnDeath@rvMonsterSlimyTransfer@@MAEXXZ 2013fa00 f   Monster_SlimyTransfer.obj
 0001:0013ea20       ?State_Frame_StopVomit@rvMonsterSlimyTransfer@@AAE?AW4stateResult_t@@ABUstateParms_t@@@Z 2013fa20 f   Monster_SlimyTransfer.obj
 0001:0013ea50       ?InitSpawnArgsVariables@rvMonsterSlimyTransfer@@QAEXXZ 2013fa50 f   Monster_SlimyTransfer.obj
 0001:0013eae0       ?Spawn@rvMonsterSlimyTransfer@@QAEXXZ 2013fae0 f   Monster_SlimyTransfer.obj
 0001:0013eb10       ?Restore@rvMonsterSlimyTransfer@@QAEXPAVidRestoreGame@@@Z 2013fb10 f   Monster_SlimyTransfer.obj
